
kernel/kernel:     file format elf32-littlearm

Disassembly of section .text:

a3000000 <_start>:
a3000000:	e1a02008 	mov	r2, r8
a3000004:	ea00003a 	b	a30000f4 <kmain>

a3000008 <panic>:
a3000008:	e92d000f 	stmdb	sp!, {r0, r1, r2, r3}
a300000c:	e24dd004 	sub	sp, sp, #4	; 0x4
a3000010:	e28d3008 	add	r3, sp, #8	; 0x8
a3000014:	e59f0014 	ldr	r0, [pc, #20]	; a3000030 <.text+0x30>
a3000018:	e58d3000 	str	r3, [sp]
a300001c:	eb0004c0 	bl	a3001324 <printf>
a3000020:	e10f3000 	mrs	r3, CPSR
a3000024:	e38330c0 	orr	r3, r3, #192	; 0xc0
a3000028:	e121f003 	msr	CPSR_c, r3
a300002c:	eafffffe 	b	a300002c <panic+0x24>
a3000030:	a3001530 	movwge	r1, #1328	; 0x530

a3000034 <install_handler>:
a3000034:	e5903000 	ldr	r3, [r0]
a3000038:	e59f2090 	ldr	r2, [pc, #144]	; a30000d0 <.text+0xd0>
a300003c:	e1a0c000 	mov	ip, r0
a3000040:	e1a00a03 	mov	r0, r3, lsl #20
a3000044:	e0032002 	and	r2, r3, r2
a3000048:	e59f3080 	ldr	r3, [pc, #128]	; a30000d0 <.text+0xd0>
a300004c:	e1a00a20 	mov	r0, r0, lsr #20
a3000050:	e52de004 	str	lr, [sp, #-4]!
a3000054:	e1520003 	cmp	r2, r3
a3000058:	e59fe074 	ldr	lr, [pc, #116]	; a30000d4 <.text+0xd4>
a300005c:	e08c2000 	add	r2, ip, r0
a3000060:	1a000018 	bne	a30000c8 <install_handler+0x94>
a3000064:	e35c0008 	cmp	ip, #8	; 0x8
a3000068:	e5920008 	ldr	r0, [r2, #8]
a300006c:	1a000007 	bne	a3000090 <install_handler+0x5c>
a3000070:	e59f3060 	ldr	r3, [pc, #96]	; a30000d8 <.text+0xd8>
a3000074:	e5902000 	ldr	r2, [r0]
a3000078:	e5830000 	str	r0, [r3]
a300007c:	e59f3058 	ldr	r3, [pc, #88]	; a30000dc <.text+0xdc>
a3000080:	e5832000 	str	r2, [r3]
a3000084:	e5902004 	ldr	r2, [r0, #4]
a3000088:	e59f3050 	ldr	r3, [pc, #80]	; a30000e0 <.text+0xe0>
a300008c:	ea000008 	b	a30000b4 <install_handler+0x80>
a3000090:	e35c0018 	cmp	ip, #24	; 0x18
a3000094:	1a000007 	bne	a30000b8 <install_handler+0x84>
a3000098:	e59f3044 	ldr	r3, [pc, #68]	; a30000e4 <.text+0xe4>
a300009c:	e5902000 	ldr	r2, [r0]
a30000a0:	e5830000 	str	r0, [r3]
a30000a4:	e59f303c 	ldr	r3, [pc, #60]	; a30000e8 <.text+0xe8>
a30000a8:	e5832000 	str	r2, [r3]
a30000ac:	e5902004 	ldr	r2, [r0, #4]
a30000b0:	e59f3034 	ldr	r3, [pc, #52]	; a30000ec <.text+0xec>
a30000b4:	e5832000 	str	r2, [r3]
a30000b8:	e59f3030 	ldr	r3, [pc, #48]	; a30000f0 <.text+0xf0>
a30000bc:	e5801004 	str	r1, [r0, #4]
a30000c0:	e3a0e000 	mov	lr, #0	; 0x0
a30000c4:	e5803000 	str	r3, [r0]
a30000c8:	e1a0000e 	mov	r0, lr
a30000cc:	e49df004 	ldr	pc, [sp], #4
a30000d0:	e59ff000 	ldr	pc, [pc, #0]	; a30000d8 <.text+0xd8>
a30000d4:	0badc0de 	bleq	a1b70454 <_start-0x148fbac>
a30000d8:	a3001ab8 	movwge	r1, #2744	; 0xab8
a30000dc:	a3001aac 	movwge	r1, #2732	; 0xaac
a30000e0:	a3001ab0 	movwge	r1, #2736	; 0xab0
a30000e4:	a3001aa0 	movwge	r1, #2720	; 0xaa0
a30000e8:	a3001aa8 	movwge	r1, #2728	; 0xaa8
a30000ec:	a3001ab4 	movwge	r1, #2740	; 0xab4
a30000f0:	e51ff004 	ldr	pc, [pc, #-4]	; a30000f4 <kmain>

a30000f4 <kmain>:
a30000f4:	e92d4010 	stmdb	sp!, {r4, lr}
a30000f8:	e24dd014 	sub	sp, sp, #20	; 0x14
a30000fc:	e1a04002 	mov	r4, r2
a3000100:	eb00049f 	bl	a3001384 <app_startup>
a3000104:	e59f3068 	ldr	r3, [pc, #104]	; a3000174 <.text+0x174>
a3000108:	e59f1068 	ldr	r1, [pc, #104]	; a3000178 <.text+0x178>
a300010c:	e3a00008 	mov	r0, #8	; 0x8
a3000110:	e5834000 	str	r4, [r3]
a3000114:	ebffffc6 	bl	a3000034 <install_handler>
a3000118:	e2504000 	subs	r4, r0, #0	; 0x0
a300011c:	e59f1058 	ldr	r1, [pc, #88]	; a300017c <.text+0x17c>
a3000120:	e3a00018 	mov	r0, #24	; 0x18
a3000124:	1a00000f 	bne	a3000168 <kmain+0x74>
a3000128:	ebffffc1 	bl	a3000034 <install_handler>
a300012c:	e2504000 	subs	r4, r0, #0	; 0x0
a3000130:	1a00000c 	bne	a3000168 <kmain+0x74>
a3000134:	eb0001aa 	bl	a30007e4 <timer_init>
a3000138:	e59f2040 	ldr	r2, [pc, #64]	; a3000180 <.text+0x180>
a300013c:	e3a03301 	mov	r3, #67108864	; 0x4000000
a3000140:	e5823004 	str	r3, [r2, #4]
a3000144:	e5824008 	str	r4, [r2, #8]
a3000148:	eb00038f 	bl	a3000f8c <runqueue_init>
a300014c:	eb0003ef 	bl	a3001110 <mutex_init>
a3000150:	e1a0000d 	mov	r0, sp
a3000154:	eb000320 	bl	a3000ddc <sched_init>
a3000158:	e10f3000 	mrs	r3, CPSR
a300015c:	e38330c0 	orr	r3, r3, #192	; 0xc0
a3000160:	e121f003 	msr	CPSR_c, r3
a3000164:	eb000340 	bl	a3000e6c <dispatch_nosave>
a3000168:	e1a00004 	mov	r0, r4
a300016c:	e28dd014 	add	sp, sp, #20	; 0x14
a3000170:	e8bd8010 	ldmia	sp!, {r4, pc}
a3000174:	a3001aa4 	movwge	r1, #2724	; 0xaa4
a3000178:	a3000794 	movwge	r0, #1940	; 0x794
a300017c:	a3000648 	movwge	r0, #1608	; 0x648
a3000180:	40d00000 	sbcmis	r0, r0, r0

a3000184 <sum_region>:
a3000184:	e3a0c000 	mov	ip, #0	; 0x0
a3000188:	e1a0200c 	mov	r2, ip
a300018c:	ea000002 	b	a300019c <sum_region+0x18>
a3000190:	e7903102 	ldr	r3, [r0, r2, lsl #2]
a3000194:	e2822001 	add	r2, r2, #1	; 0x1
a3000198:	e08cc003 	add	ip, ip, r3
a300019c:	e1520001 	cmp	r2, r1
a30001a0:	1afffffa 	bne	a3000190 <sum_region+0xc>
a30001a4:	e1a0000c 	mov	r0, ip
a30001a8:	e12fff1e 	bx	lr

a30001ac <ilog2>:
a30001ac:	e3a03000 	mov	r3, #0	; 0x0
a30001b0:	ea000000 	b	a30001b8 <ilog2+0xc>
a30001b4:	e2833001 	add	r3, r3, #1	; 0x1
a30001b8:	e1b000a0 	movs	r0, r0, lsr #1
a30001bc:	1afffffc 	bne	a30001b4 <ilog2+0x8>
a30001c0:	e1a00003 	mov	r0, r3
a30001c4:	e12fff1e 	bx	lr

a30001c8 <valid_addr>:
a30001c8:	e1a0c003 	mov	ip, r3
a30001cc:	e1500003 	cmp	r0, r3
a30001d0:	33a03000 	movcc	r3, #0	; 0x0
a30001d4:	23a03001 	movcs	r3, #1	; 0x1
a30001d8:	e1500002 	cmp	r0, r2
a30001dc:	33833001 	orrcc	r3, r3, #1	; 0x1
a30001e0:	e3530000 	cmp	r3, #0	; 0x0
a30001e4:	e3a03000 	mov	r3, #0	; 0x0
a30001e8:	1a000005 	bne	a3000204 <valid_addr+0x3c>
a30001ec:	e0902001 	adds	r2, r0, r1
a30001f0:	33a03000 	movcc	r3, #0	; 0x0
a30001f4:	23a03001 	movcs	r3, #1	; 0x1
a30001f8:	e152000c 	cmp	r2, ip
a30001fc:	83833001 	orrhi	r3, r3, #1	; 0x1
a3000200:	e2233001 	eor	r3, r3, #1	; 0x1
a3000204:	e1a00003 	mov	r0, r3
a3000208:	e12fff1e 	bx	lr

a300020c <raise>:
a300020c:	e52de004 	str	lr, [sp, #-4]!
a3000210:	e59f0004 	ldr	r0, [pc, #4]	; a300021c <.text+0x21c>
a3000214:	eb000440 	bl	a300131c <puts>
a3000218:	eafffffe 	b	a3000218 <raise+0xc>
a300021c:	a3001538 	movwge	r1, #1336	; 0x538

a3000220 <isascii>:
a3000220:	e350007f 	cmp	r0, #127	; 0x7f
a3000224:	83a00000 	movhi	r0, #0	; 0x0
a3000228:	93a00001 	movls	r0, #1	; 0x1
a300022c:	e12fff1e 	bx	lr

a3000230 <iscntrl>:
a3000230:	e2400020 	sub	r0, r0, #32	; 0x20
a3000234:	e350005e 	cmp	r0, #94	; 0x5e
a3000238:	93a00000 	movls	r0, #0	; 0x0
a300023c:	83a00001 	movhi	r0, #1	; 0x1
a3000240:	e12fff1e 	bx	lr

a3000244 <isdigit>:
a3000244:	e2400030 	sub	r0, r0, #48	; 0x30
a3000248:	e3500009 	cmp	r0, #9	; 0x9
a300024c:	83a00000 	movhi	r0, #0	; 0x0
a3000250:	93a00001 	movls	r0, #1	; 0x1
a3000254:	e12fff1e 	bx	lr

a3000258 <isgraph>:
a3000258:	e2400021 	sub	r0, r0, #33	; 0x21
a300025c:	e350005d 	cmp	r0, #93	; 0x5d
a3000260:	83a00000 	movhi	r0, #0	; 0x0
a3000264:	93a00001 	movls	r0, #1	; 0x1
a3000268:	e12fff1e 	bx	lr

a300026c <islower>:
a300026c:	e2400061 	sub	r0, r0, #97	; 0x61
a3000270:	e3500019 	cmp	r0, #25	; 0x19
a3000274:	83a00000 	movhi	r0, #0	; 0x0
a3000278:	93a00001 	movls	r0, #1	; 0x1
a300027c:	e12fff1e 	bx	lr

a3000280 <isprint>:
a3000280:	e2400020 	sub	r0, r0, #32	; 0x20
a3000284:	e350005e 	cmp	r0, #94	; 0x5e
a3000288:	83a00000 	movhi	r0, #0	; 0x0
a300028c:	93a00001 	movls	r0, #1	; 0x1
a3000290:	e12fff1e 	bx	lr

a3000294 <isspace>:
a3000294:	e350000c 	cmp	r0, #12	; 0xc
a3000298:	13500020 	cmpne	r0, #32	; 0x20
a300029c:	0a000007 	beq	a30002c0 <isspace+0x2c>
a30002a0:	e350000d 	cmp	r0, #13	; 0xd
a30002a4:	1350000a 	cmpne	r0, #10	; 0xa
a30002a8:	0a000004 	beq	a30002c0 <isspace+0x2c>
a30002ac:	e350000b 	cmp	r0, #11	; 0xb
a30002b0:	13500009 	cmpne	r0, #9	; 0x9
a30002b4:	13a00000 	movne	r0, #0	; 0x0
a30002b8:	03a00001 	moveq	r0, #1	; 0x1
a30002bc:	e12fff1e 	bx	lr
a30002c0:	e3a00001 	mov	r0, #1	; 0x1
a30002c4:	e12fff1e 	bx	lr

a30002c8 <isupper>:
a30002c8:	e2400041 	sub	r0, r0, #65	; 0x41
a30002cc:	e3500019 	cmp	r0, #25	; 0x19
a30002d0:	83a00000 	movhi	r0, #0	; 0x0
a30002d4:	93a00001 	movls	r0, #1	; 0x1
a30002d8:	e12fff1e 	bx	lr

a30002dc <isalpha>:
a30002dc:	e2403061 	sub	r3, r0, #97	; 0x61
a30002e0:	e3530019 	cmp	r3, #25	; 0x19
a30002e4:	e2400041 	sub	r0, r0, #65	; 0x41
a30002e8:	e3a03001 	mov	r3, #1	; 0x1
a30002ec:	9a000002 	bls	a30002fc <isalpha+0x20>
a30002f0:	e3500019 	cmp	r0, #25	; 0x19
a30002f4:	83a03000 	movhi	r3, #0	; 0x0
a30002f8:	93a03001 	movls	r3, #1	; 0x1
a30002fc:	e1a00003 	mov	r0, r3
a3000300:	e12fff1e 	bx	lr

a3000304 <isalnum>:
a3000304:	e92d4010 	stmdb	sp!, {r4, lr}
a3000308:	e1a04000 	mov	r4, r0
a300030c:	ebfffff2 	bl	a30002dc <isalpha>
a3000310:	e3500000 	cmp	r0, #0	; 0x0
a3000314:	e2444030 	sub	r4, r4, #48	; 0x30
a3000318:	e3a00001 	mov	r0, #1	; 0x1
a300031c:	1a000002 	bne	a300032c <isalnum+0x28>
a3000320:	e3540009 	cmp	r4, #9	; 0x9
a3000324:	83a00000 	movhi	r0, #0	; 0x0
a3000328:	93a00001 	movls	r0, #1	; 0x1
a300032c:	e8bd8010 	ldmia	sp!, {r4, pc}

a3000330 <tolower>:
a3000330:	e2403041 	sub	r3, r0, #65	; 0x41
a3000334:	e3530019 	cmp	r3, #25	; 0x19
a3000338:	92800020 	addls	r0, r0, #32	; 0x20
a300033c:	e12fff1e 	bx	lr

a3000340 <isxdigit>:
a3000340:	e2403030 	sub	r3, r0, #48	; 0x30
a3000344:	e3530009 	cmp	r3, #9	; 0x9
a3000348:	e2402041 	sub	r2, r0, #65	; 0x41
a300034c:	9a000006 	bls	a300036c <isxdigit+0x2c>
a3000350:	e3520005 	cmp	r2, #5	; 0x5
a3000354:	e2400061 	sub	r0, r0, #97	; 0x61
a3000358:	9a000003 	bls	a300036c <isxdigit+0x2c>
a300035c:	e3500005 	cmp	r0, #5	; 0x5
a3000360:	83a00000 	movhi	r0, #0	; 0x0
a3000364:	93a00001 	movls	r0, #1	; 0x1
a3000368:	e12fff1e 	bx	lr
a300036c:	e3a00001 	mov	r0, #1	; 0x1
a3000370:	e12fff1e 	bx	lr

a3000374 <ispunct>:
a3000374:	e2403021 	sub	r3, r0, #33	; 0x21
a3000378:	e353005d 	cmp	r3, #93	; 0x5d
a300037c:	e52de004 	str	lr, [sp, #-4]!
a3000380:	e3a03000 	mov	r3, #0	; 0x0
a3000384:	8a000002 	bhi	a3000394 <ispunct+0x20>
a3000388:	ebffffdd 	bl	a3000304 <isalnum>
a300038c:	e2703001 	rsbs	r3, r0, #1	; 0x1
a3000390:	33a03000 	movcc	r3, #0	; 0x0
a3000394:	e1a00003 	mov	r0, r3
a3000398:	e49df004 	ldr	pc, [sp], #4

a300039c <toupper>:
a300039c:	e2403061 	sub	r3, r0, #97	; 0x61
a30003a0:	e3530019 	cmp	r3, #25	; 0x19
a30003a4:	92400020 	subls	r0, r0, #32	; 0x20
a30003a8:	e12fff1e 	bx	lr

a30003ac <hexdump>:
a30003ac:	e92d44f0 	stmdb	sp!, {r4, r5, r6, r7, sl, lr}
a30003b0:	e1a0a000 	mov	sl, r0
a30003b4:	e59f00d0 	ldr	r0, [pc, #208]	; a300048c <.text+0x48c>
a30003b8:	e1a07001 	mov	r7, r1
a30003bc:	eb0003d8 	bl	a3001324 <printf>
a30003c0:	e3a05000 	mov	r5, #0	; 0x0
a30003c4:	ea00002b 	b	a3000478 <hexdump+0xcc>
a30003c8:	e59f00c0 	ldr	r0, [pc, #192]	; a3000490 <.text+0x490>
a30003cc:	e1a01005 	mov	r1, r5
a30003d0:	eb0003d3 	bl	a3001324 <printf>
a30003d4:	e1a04005 	mov	r4, r5
a30003d8:	ea00000b 	b	a300040c <hexdump+0x60>
a30003dc:	e3140003 	tst	r4, #3	; 0x3
a30003e0:	1a000000 	bne	a30003e8 <hexdump+0x3c>
a30003e4:	eb0003ce 	bl	a3001324 <printf>
a30003e8:	e1540007 	cmp	r4, r7
a30003ec:	e59f00a0 	ldr	r0, [pc, #160]	; a3000494 <.text+0x494>
a30003f0:	3a000001 	bcc	a30003fc <hexdump+0x50>
a30003f4:	eb0003ca 	bl	a3001324 <printf>
a30003f8:	ea000002 	b	a3000408 <hexdump+0x5c>
a30003fc:	e7d4100a 	ldrb	r1, [r4, sl]
a3000400:	e59f0090 	ldr	r0, [pc, #144]	; a3000498 <.text+0x498>
a3000404:	eb0003c6 	bl	a3001324 <printf>
a3000408:	e2844001 	add	r4, r4, #1	; 0x1
a300040c:	e2856010 	add	r6, r5, #16	; 0x10
a3000410:	e1540006 	cmp	r4, r6
a3000414:	e59f0080 	ldr	r0, [pc, #128]	; a300049c <.text+0x49c>
a3000418:	3affffef 	bcc	a30003dc <hexdump+0x30>
a300041c:	e59f007c 	ldr	r0, [pc, #124]	; a30004a0 <.text+0x4a0>
a3000420:	eb0003bf 	bl	a3001324 <printf>
a3000424:	e08a4005 	add	r4, sl, r5
a3000428:	ea00000c 	b	a3000460 <hexdump+0xb4>
a300042c:	e1550007 	cmp	r5, r7
a3000430:	3a000001 	bcc	a300043c <hexdump+0x90>
a3000434:	eb0003ba 	bl	a3001324 <printf>
a3000438:	ea000006 	b	a3000458 <hexdump+0xac>
a300043c:	e5d43000 	ldrb	r3, [r4]
a3000440:	e59f005c 	ldr	r0, [pc, #92]	; a30004a4 <.text+0x4a4>
a3000444:	e2431021 	sub	r1, r3, #33	; 0x21
a3000448:	e351005d 	cmp	r1, #93	; 0x5d
a300044c:	91a01003 	movls	r1, r3
a3000450:	83a0102e 	movhi	r1, #46	; 0x2e
a3000454:	eb0003b2 	bl	a3001324 <printf>
a3000458:	e2855001 	add	r5, r5, #1	; 0x1
a300045c:	e2844001 	add	r4, r4, #1	; 0x1
a3000460:	e1550006 	cmp	r5, r6
a3000464:	e59f0030 	ldr	r0, [pc, #48]	; a300049c <.text+0x49c>
a3000468:	3affffef 	bcc	a300042c <hexdump+0x80>
a300046c:	e59f0034 	ldr	r0, [pc, #52]	; a30004a8 <.text+0x4a8>
a3000470:	eb0003ab 	bl	a3001324 <printf>
a3000474:	e1a05006 	mov	r5, r6
a3000478:	e1550007 	cmp	r5, r7
a300047c:	3affffd1 	bcc	a30003c8 <hexdump+0x1c>
a3000480:	e59f0024 	ldr	r0, [pc, #36]	; a30004ac <.text+0x4ac>
a3000484:	e8bd44f0 	ldmia	sp!, {r4, r5, r6, r7, sl, lr}
a3000488:	ea0003a5 	b	a3001324 <printf>
a300048c:	a3001558 	movwge	r1, #1368	; 0x558
a3000490:	a30015a8 	movwge	r1, #1448	; 0x5a8
a3000494:	a30015c0 	movwge	r1, #1472	; 0x5c0
a3000498:	a30015c8 	movwge	r1, #1480	; 0x5c8
a300049c:	a30015b8 	movwge	r1, #1464	; 0x5b8
a30004a0:	a30015d0 	movwge	r1, #1488	; 0x5d0
a30004a4:	a30015d8 	movwge	r1, #1496	; 0x5d8
a30004a8:	a30015e0 	movwge	r1, #1504	; 0x5e0
a30004ac:	a30015e8 	movwge	r1, #1512	; 0x5e8

a30004b0 <dev_init>:
a30004b0:	e59f0028 	ldr	r0, [pc, #40]	; a30004e0 <.text+0x4e0>
a30004b4:	e59f1028 	ldr	r1, [pc, #40]	; a30004e4 <.text+0x4e4>
a30004b8:	e591300c 	ldr	r3, [r1, #12]
a30004bc:	e59f2024 	ldr	r2, [pc, #36]	; a30004e8 <.text+0x4e8>
a30004c0:	e2411004 	sub	r1, r1, #4	; 0x4
a30004c4:	e580301c 	str	r3, [r0, #28]
a30004c8:	e1510002 	cmp	r1, r2
a30004cc:	e3a03000 	mov	r3, #0	; 0x0
a30004d0:	e5803018 	str	r3, [r0, #24]
a30004d4:	e2400008 	sub	r0, r0, #8	; 0x8
a30004d8:	1afffff6 	bne	a30004b8 <dev_init+0x8>
a30004dc:	e12fff1e 	bx	lr
a30004e0:	a3001968 	movwge	r1, #2408	; 0x968
a30004e4:	a300164c 	movwge	r1, #1612	; 0x64c
a30004e8:	a300163c 	movwge	r1, #1596	; 0x63c

a30004ec <sleepqueue_wake>:
a30004ec:	e59f2044 	ldr	r2, [pc, #68]	; a3000538 <.text+0x538>
a30004f0:	e92d4030 	stmdb	sp!, {r4, r5, lr}
a30004f4:	e7924180 	ldr	r4, [r2, r0, lsl #3]
a30004f8:	e3a03000 	mov	r3, #0	; 0x0
a30004fc:	e7823180 	str	r3, [r2, r0, lsl #3]
a3000500:	e1a05004 	mov	r5, r4
a3000504:	ea000007 	b	a3000528 <sleepqueue_wake+0x3c>
a3000508:	e5955030 	ldr	r5, [r5, #48]
a300050c:	eb000384 	bl	a3001324 <printf>
a3000510:	e5d41001 	ldrb	r1, [r4, #1]
a3000514:	e1a00004 	mov	r0, r4
a3000518:	eb0002b0 	bl	a3000fe0 <runqueue_add>
a300051c:	e3a03000 	mov	r3, #0	; 0x0
a3000520:	e5843030 	str	r3, [r4, #48]
a3000524:	e1a04005 	mov	r4, r5
a3000528:	e3540000 	cmp	r4, #0	; 0x0
a300052c:	e59f0008 	ldr	r0, [pc, #8]	; a300053c <.text+0x53c>
a3000530:	1afffff4 	bne	a3000508 <sleepqueue_wake+0x1c>
a3000534:	e8bd8030 	ldmia	sp!, {r4, r5, pc}
a3000538:	a3001968 	movwge	r1, #2408	; 0x968
a300053c:	a3001638 	movwge	r1, #1592	; 0x638

a3000540 <dev_update>:
a3000540:	e92d4070 	stmdb	sp!, {r4, r5, r6, lr}
a3000544:	e1a06000 	mov	r6, r0
a3000548:	e10f3000 	mrs	r3, CPSR
a300054c:	e38330c0 	orr	r3, r3, #192	; 0xc0
a3000550:	e121f003 	msr	CPSR_c, r3
a3000554:	e59f5054 	ldr	r5, [pc, #84]	; a30005b0 <.text+0x5b0>
a3000558:	e3a04003 	mov	r4, #3	; 0x3
a300055c:	e5953018 	ldr	r3, [r5, #24]
a3000560:	e3530000 	cmp	r3, #0	; 0x0
a3000564:	0a000008 	beq	a300058c <dev_update+0x4c>
a3000568:	e595301c 	ldr	r3, [r5, #28]
a300056c:	e1a00006 	mov	r0, r6
a3000570:	e2531000 	subs	r1, r3, #0	; 0x0
a3000574:	0a000004 	beq	a300058c <dev_update+0x4c>
a3000578:	eb0003bc 	bl	a3001470 <__umodsi3>
a300057c:	e3500000 	cmp	r0, #0	; 0x0
a3000580:	e1a00004 	mov	r0, r4
a3000584:	1a000000 	bne	a300058c <dev_update+0x4c>
a3000588:	ebffffd7 	bl	a30004ec <sleepqueue_wake>
a300058c:	e2444001 	sub	r4, r4, #1	; 0x1
a3000590:	e3740001 	cmn	r4, #1	; 0x1
a3000594:	e2455008 	sub	r5, r5, #8	; 0x8
a3000598:	1affffef 	bne	a300055c <dev_update+0x1c>
a300059c:	eb00023b 	bl	a3000e90 <dispatch_save>
a30005a0:	e10f3000 	mrs	r3, CPSR
a30005a4:	e3c330c0 	bic	r3, r3, #192	; 0xc0
a30005a8:	e121f003 	msr	CPSR_c, r3
a30005ac:	e8bd8070 	ldmia	sp!, {r4, r5, r6, pc}
a30005b0:	a3001968 	movwge	r1, #2408	; 0x968

a30005b4 <dev_wait>:
a30005b4:	e92d4070 	stmdb	sp!, {r4, r5, r6, lr}
a30005b8:	e1a04000 	mov	r4, r0
a30005bc:	e10f3000 	mrs	r3, CPSR
a30005c0:	e38330c0 	orr	r3, r3, #192	; 0xc0
a30005c4:	e121f003 	msr	CPSR_c, r3
a30005c8:	e59f602c 	ldr	r6, [pc, #44]	; a30005fc <.text+0x5fc>
a30005cc:	e7965180 	ldr	r5, [r6, r0, lsl #3]
a30005d0:	e3550000 	cmp	r5, #0	; 0x0
a30005d4:	0a000001 	beq	a30005e0 <dev_wait+0x2c>
a30005d8:	eb00021f 	bl	a3000e5c <get_cur_tcb>
a30005dc:	e5805030 	str	r5, [r0, #48]
a30005e0:	eb00021d 	bl	a3000e5c <get_cur_tcb>
a30005e4:	e7860184 	str	r0, [r6, r4, lsl #3]
a30005e8:	eb00024a 	bl	a3000f18 <dispatch_sleep>
a30005ec:	e10f3000 	mrs	r3, CPSR
a30005f0:	e3c330c0 	bic	r3, r3, #192	; 0xc0
a30005f4:	e121f003 	msr	CPSR_c, r3
a30005f8:	e8bd8070 	ldmia	sp!, {r4, r5, r6, pc}
a30005fc:	a3001968 	movwge	r1, #2408	; 0x968

a3000600 <reg_read>:
a3000600:	e2800101 	add	r0, r0, #1073741824	; 0x40000000
a3000604:	e5900000 	ldr	r0, [r0]
a3000608:	e12fff1e 	bx	lr

a300060c <reg_write>:
a300060c:	e2800101 	add	r0, r0, #1073741824	; 0x40000000
a3000610:	e5801000 	str	r1, [r0]
a3000614:	e12fff1e 	bx	lr

a3000618 <reg_set>:
a3000618:	e2800101 	add	r0, r0, #1073741824	; 0x40000000
a300061c:	e5903000 	ldr	r3, [r0]
a3000620:	e1833001 	orr	r3, r3, r1
a3000624:	e5803000 	str	r3, [r0]
a3000628:	e12fff1e 	bx	lr

a300062c <reg_clear>:
a300062c:	e2800101 	add	r0, r0, #1073741824	; 0x40000000
a3000630:	e5903000 	ldr	r3, [r0]
a3000634:	e1c33001 	bic	r3, r3, r1
a3000638:	e5803000 	str	r3, [r0]
a300063c:	e12fff1e 	bx	lr

a3000640 <read_cpsr>:
a3000640:	e10f0000 	mrs	r0, CPSR
a3000644:	e12fff1e 	bx	lr

a3000648 <irq_wrapper>:
a3000648:	e24ee004 	sub	lr, lr, #4	; 0x4
a300064c:	e59fd048 	ldr	sp, [pc, #72]	; a300069c <.text+0x69c>
a3000650:	e92d0003 	stmdb	sp!, {r0, r1}
a3000654:	e14f0000 	mrs	r0, SPSR
a3000658:	e1a0100e 	mov	r1, lr
a300065c:	e321f093 	msr	CPSR_c, #147	; 0x93
a3000660:	e169f000 	msr	SPSR_fc, r0
a3000664:	e92d0002 	stmdb	sp!, {r1}
a3000668:	e59f1030 	ldr	r1, [pc, #48]	; a30006a0 <.text+0x6a0>
a300066c:	e8910003 	ldmia	r1, {r0, r1}
a3000670:	e92d510f 	stmdb	sp!, {r0, r1, r2, r3, r8, ip, lr}
a3000674:	e14f0000 	mrs	r0, SPSR
a3000678:	e94d6001 	stmdb	sp, {r0, sp, lr}^
a300067c:	e24dd00c 	sub	sp, sp, #12	; 0xc
a3000680:	e59fc01c 	ldr	ip, [pc, #28]	; a30006a4 <.text+0x6a4>
a3000684:	e59c8000 	ldr	r8, [ip]
a3000688:	eb000006 	bl	a30006a8 <C_IRQ_Handler>
a300068c:	e8dd6001 	ldmia	sp, {r0, sp, lr}^
a3000690:	e28dd00c 	add	sp, sp, #12	; 0xc
a3000694:	e169f000 	msr	SPSR_fc, r0
a3000698:	e8fdd10f 	ldmia	sp!, {r0, r1, r2, r3, r8, ip, lr, pc}^
a300069c:	a3001990 	movwge	r1, #2448	; 0x990
a30006a0:	a3001988 	movwge	r1, #2440	; 0x988
a30006a4:	a3001aa4 	movwge	r1, #2724	; 0xaa4

a30006a8 <C_IRQ_Handler>:
a30006a8:	ea00005c 	b	a3000820 <timer_inc>

a30006ac <C_SWI_Handler>:
a30006ac:	e2400609 	sub	r0, r0, #9437184	; 0x900000
a30006b0:	e2400003 	sub	r0, r0, #3	; 0x3
a30006b4:	e52de004 	str	lr, [sp, #-4]!
a30006b8:	e1a03001 	mov	r3, r1
a30006bc:	e3500011 	cmp	r0, #17	; 0x11
a30006c0:	979ff100 	ldrls	pc, [pc, r0, lsl #2]
a30006c4:	ea00002c 	b	a300077c <.text+0x77c>
a30006c8:	a3000710 	movwge	r0, #1808	; 0x710
a30006cc:	a300071c 	movwge	r0, #1820	; 0x71c
a30006d0:	a300077c 	movwge	r0, #1916	; 0x77c
a30006d4:	a3000738 	movwge	r0, #1848	; 0x738
a30006d8:	a3000728 	movwge	r0, #1832	; 0x728
a30006dc:	a300077c 	movwge	r0, #1916	; 0x77c
a30006e0:	a300077c 	movwge	r0, #1916	; 0x77c
a30006e4:	a3000740 	movwge	r0, #1856	; 0x740
a30006e8:	a300077c 	movwge	r0, #1916	; 0x77c
a30006ec:	a300077c 	movwge	r0, #1916	; 0x77c
a30006f0:	a300077c 	movwge	r0, #1916	; 0x77c
a30006f4:	a300077c 	movwge	r0, #1916	; 0x77c
a30006f8:	a3000750 	movwge	r0, #1872	; 0x750
a30006fc:	a3000758 	movwge	r0, #1880	; 0x758
a3000700:	a3000764 	movwge	r0, #1892	; 0x764
a3000704:	a300077c 	movwge	r0, #1916	; 0x77c
a3000708:	a300077c 	movwge	r0, #1916	; 0x77c
a300070c:	a3000770 	movwge	r0, #1904	; 0x770
a3000710:	e8910007 	ldmia	r1, {r0, r1, r2}
a3000714:	e49de004 	ldr	lr, [sp], #4
a3000718:	ea000083 	b	a300092c <read_syscall>
a300071c:	e8910007 	ldmia	r1, {r0, r1, r2}
a3000720:	e49de004 	ldr	lr, [sp], #4
a3000724:	ea000061 	b	a30008b0 <write_syscall>
a3000728:	e5910000 	ldr	r0, [r1]
a300072c:	eb000119 	bl	a3000b98 <sleep_syscall>
a3000730:	e3a00000 	mov	r0, #0	; 0x0
a3000734:	e49df004 	ldr	pc, [sp], #4
a3000738:	e49de004 	ldr	lr, [sp], #4
a300073c:	ea00010f 	b	a3000b80 <time_syscall>
a3000740:	e5911004 	ldr	r1, [r1, #4]
a3000744:	e5930000 	ldr	r0, [r3]
a3000748:	e49de004 	ldr	lr, [sp], #4
a300074c:	ea0000ba 	b	a3000a3c <task_create>
a3000750:	e49de004 	ldr	lr, [sp], #4
a3000754:	ea00027b 	b	a3001148 <mutex_create>
a3000758:	e5910000 	ldr	r0, [r1]
a300075c:	e49de004 	ldr	lr, [sp], #4
a3000760:	ea000298 	b	a30011c8 <mutex_lock>
a3000764:	e5910000 	ldr	r0, [r1]
a3000768:	e49de004 	ldr	lr, [sp], #4
a300076c:	ea0002ca 	b	a300129c <mutex_unlock>
a3000770:	e5910000 	ldr	r0, [r1]
a3000774:	e49de004 	ldr	lr, [sp], #4
a3000778:	ea0000a7 	b	a3000a1c <event_wait>
a300077c:	e59f0008 	ldr	r0, [pc, #8]	; a300078c <.text+0x78c>
a3000780:	eb0002e7 	bl	a3001324 <printf>
a3000784:	e59f0004 	ldr	r0, [pc, #4]	; a3000790 <.text+0x790>
a3000788:	e49df004 	ldr	pc, [sp], #4
a300078c:	a3001660 	movwge	r1, #1632	; 0x660
a3000790:	0badc0de 	bleq	a1b70b10 <_start-0x148f4f0>

a3000794 <S_Handler>:
a3000794:	e24dd004 	sub	sp, sp, #4	; 0x4
a3000798:	e92d5fff 	stmdb	sp!, {r0, r1, r2, r3, r4, r5, r6, r7, r8, r9, sl, fp, ip, lr}
a300079c:	e14f2000 	mrs	r2, SPSR
a30007a0:	e58d2038 	str	r2, [sp, #56]
a30007a4:	e1a0100d 	mov	r1, sp
a30007a8:	e59f0030 	ldr	r0, [pc, #48]	; a30007e0 <.text+0x7e0>
a30007ac:	e5908000 	ldr	r8, [r0]
a30007b0:	e51e0004 	ldr	r0, [lr, #-4]
a30007b4:	e3c004ff 	bic	r0, r0, #-16777216	; 0xff000000
a30007b8:	e10fc000 	mrs	ip, CPSR
a30007bc:	e3ccc080 	bic	ip, ip, #128	; 0x80
a30007c0:	e129f00c 	msr	CPSR_fc, ip
a30007c4:	ebffffb8 	bl	a30006ac <C_SWI_Handler>
a30007c8:	e59d2038 	ldr	r2, [sp, #56]
a30007cc:	e169f002 	msr	SPSR_fc, r2
a30007d0:	e28dd004 	add	sp, sp, #4	; 0x4
a30007d4:	e8bd5ffe 	ldmia	sp!, {r1, r2, r3, r4, r5, r6, r7, r8, r9, sl, fp, ip, lr}
a30007d8:	e28dd004 	add	sp, sp, #4	; 0x4
a30007dc:	e1b0f00e 	movs	pc, lr
a30007e0:	a3001aa4 	movwge	r1, #2724	; 0xaa4

a30007e4 <timer_init>:
a30007e4:	e59f1028 	ldr	r1, [pc, #40]	; a3000814 <.text+0x814>
a30007e8:	e59f3028 	ldr	r3, [pc, #40]	; a3000818 <.text+0x818>
a30007ec:	e59f2028 	ldr	r2, [pc, #40]	; a300081c <.text+0x81c>
a30007f0:	e5813000 	str	r3, [r1]
a30007f4:	e3a03000 	mov	r3, #0	; 0x0
a30007f8:	e5823010 	str	r3, [r2, #16]
a30007fc:	e5913000 	ldr	r3, [r1]
a3000800:	e5823000 	str	r3, [r2]
a3000804:	e592301c 	ldr	r3, [r2, #28]
a3000808:	e3833001 	orr	r3, r3, #1	; 0x1
a300080c:	e582301c 	str	r3, [r2, #28]
a3000810:	e12fff1e 	bx	lr
a3000814:	a3001abc 	movwge	r1, #2748	; 0xabc
a3000818:	00007ef4 	streqd	r7, [r0], -r4
a300081c:	40a00000 	adcmi	r0, r0, r0

a3000820 <timer_inc>:
a3000820:	e59f1030 	ldr	r1, [pc, #48]	; a3000858 <.text+0x858>
a3000824:	e59f2030 	ldr	r2, [pc, #48]	; a300085c <.text+0x85c>
a3000828:	e5913000 	ldr	r3, [r1]
a300082c:	e2833001 	add	r3, r3, #1	; 0x1
a3000830:	e5813000 	str	r3, [r1]
a3000834:	e3a03000 	mov	r3, #0	; 0x0
a3000838:	e5823010 	str	r3, [r2, #16]
a300083c:	e5923014 	ldr	r3, [r2, #20]
a3000840:	e3833001 	orr	r3, r3, #1	; 0x1
a3000844:	e5823014 	str	r3, [r2, #20]
a3000848:	e5912000 	ldr	r2, [r1]
a300084c:	e3a0300a 	mov	r3, #10	; 0xa
a3000850:	e0000392 	mul	r0, r2, r3
a3000854:	eaffff39 	b	a3000540 <dev_update>
a3000858:	a3001ac0 	movwge	r1, #2752	; 0xac0
a300085c:	40a00000 	adcmi	r0, r0, r0

a3000860 <userSetup>:
a3000860:	e10fc000 	mrs	ip, CPSR
a3000864:	e3ccc0ff 	bic	ip, ip, #255	; 0xff
a3000868:	e38cc010 	orr	ip, ip, #16	; 0x10
a300086c:	e38cc040 	orr	ip, ip, #64	; 0x40
a3000870:	e129f00c 	msr	CPSR_fc, ip
a3000874:	e3a0d4a3 	mov	sp, #-1560281088	; 0xa3000000
a3000878:	e1a04000 	mov	r4, r0
a300087c:	e1a05004 	mov	r5, r4
a3000880:	e1a05105 	mov	r5, r5, lsl #2

a3000884 <loop>:
a3000884:	e7912005 	ldr	r2, [r1, r5]
a3000888:	e2455004 	sub	r5, r5, #4	; 0x4
a300088c:	e92d0004 	stmdb	sp!, {r2}
a3000890:	e2544001 	subs	r4, r4, #1	; 0x1
a3000894:	aafffffa 	bge	a3000884 <loop>
a3000898:	e92d0001 	stmdb	sp!, {r0}
a300089c:	e10fc000 	mrs	ip, CPSR
a30008a0:	e3ccc0ff 	bic	ip, ip, #255	; 0xff
a30008a4:	e38cc013 	orr	ip, ip, #19	; 0x13
a30008a8:	e129f00c 	msr	CPSR_fc, ip
a30008ac:	e1a0f00e 	mov	pc, lr

a30008b0 <write_syscall>:
a30008b0:	e3500001 	cmp	r0, #1	; 0x1
a30008b4:	e92d4070 	stmdb	sp!, {r4, r5, r6, lr}
a30008b8:	e1a05001 	mov	r5, r1
a30008bc:	e1a06002 	mov	r6, r2
a30008c0:	0a000003 	beq	a30008d4 <write_syscall+0x24>
a30008c4:	e59f005c 	ldr	r0, [pc, #92]	; a3000928 <.text+0x928>
a30008c8:	eb000293 	bl	a300131c <puts>
a30008cc:	e3e00008 	mvn	r0, #8	; 0x8
a30008d0:	e8bd8070 	ldmia	sp!, {r4, r5, r6, pc}
a30008d4:	e0813002 	add	r3, r1, r2
a30008d8:	e3730357 	cmn	r3, #1543503873	; 0x5c000001
a30008dc:	8a00000f 	bhi	a3000920 <write_syscall+0x70>
a30008e0:	e3510401 	cmp	r1, #16777216	; 0x1000000
a30008e4:	33a02000 	movcc	r2, #0	; 0x0
a30008e8:	23a02001 	movcs	r2, #1	; 0x1
a30008ec:	e3730216 	cmn	r3, #1610612737	; 0x60000001
a30008f0:	83a02000 	movhi	r2, #0	; 0x0
a30008f4:	e3520000 	cmp	r2, #0	; 0x0
a30008f8:	01a04002 	moveq	r4, r2
a30008fc:	0a000003 	beq	a3000910 <write_syscall+0x60>
a3000900:	ea000006 	b	a3000920 <write_syscall+0x70>
a3000904:	e7d40005 	ldrb	r0, [r4, r5]
a3000908:	e2844001 	add	r4, r4, #1	; 0x1
a300090c:	eb000280 	bl	a3001314 <putc>
a3000910:	e1540006 	cmp	r4, r6
a3000914:	1afffffa 	bne	a3000904 <write_syscall+0x54>
a3000918:	e1a00006 	mov	r0, r6
a300091c:	e8bd8070 	ldmia	sp!, {r4, r5, r6, pc}
a3000920:	e3e00008 	mvn	r0, #8	; 0x8
a3000924:	e8bd8070 	ldmia	sp!, {r4, r5, r6, pc}
a3000928:	a3001678 	movwge	r1, #1656	; 0x678

a300092c <read_syscall>:
a300092c:	e0813002 	add	r3, r1, r2
a3000930:	e92d40f0 	stmdb	sp!, {r4, r5, r6, r7, lr}
a3000934:	e3730357 	cmn	r3, #1543503873	; 0x5c000001
a3000938:	93a03000 	movls	r3, #0	; 0x0
a300093c:	83a03001 	movhi	r3, #1	; 0x1
a3000940:	e1a07002 	mov	r7, r2
a3000944:	e3710216 	cmn	r1, #1610612737	; 0x60000001
a3000948:	83a02000 	movhi	r2, #0	; 0x0
a300094c:	93a02001 	movls	r2, #1	; 0x1
a3000950:	e1922003 	orrs	r2, r2, r3
a3000954:	e1a06001 	mov	r6, r1
a3000958:	13e0500d 	mvnne	r5, #13	; 0xd
a300095c:	1a000024 	bne	a30009f4 <read_syscall+0xc8>
a3000960:	e3500000 	cmp	r0, #0	; 0x0
a3000964:	13e05008 	mvnne	r5, #8	; 0x8
a3000968:	01a05000 	moveq	r5, r0
a300096c:	0a00001a 	beq	a30009dc <read_syscall+0xb0>
a3000970:	ea00001f 	b	a30009f4 <read_syscall+0xc8>
a3000974:	e354000d 	cmp	r4, #13	; 0xd
a3000978:	e1a00004 	mov	r0, r4
a300097c:	0a000003 	beq	a3000990 <read_syscall+0x64>
a3000980:	e354007f 	cmp	r4, #127	; 0x7f
a3000984:	0a000006 	beq	a30009a4 <read_syscall+0x78>
a3000988:	e354000a 	cmp	r4, #10	; 0xa
a300098c:	1a00000f 	bne	a30009d0 <read_syscall+0xa4>
a3000990:	e3a0000a 	mov	r0, #10	; 0xa
a3000994:	eb00025e 	bl	a3001314 <putc>
a3000998:	e7c64005 	strb	r4, [r6, r5]
a300099c:	e2855001 	add	r5, r5, #1	; 0x1
a30009a0:	ea000013 	b	a30009f4 <read_syscall+0xc8>
a30009a4:	e3550000 	cmp	r5, #0	; 0x0
a30009a8:	e3a00008 	mov	r0, #8	; 0x8
a30009ac:	d2455001 	suble	r5, r5, #1	; 0x1
a30009b0:	da000008 	ble	a30009d8 <read_syscall+0xac>
a30009b4:	eb000256 	bl	a3001314 <putc>
a30009b8:	e3a00020 	mov	r0, #32	; 0x20
a30009bc:	eb000254 	bl	a3001314 <putc>
a30009c0:	e3a00008 	mov	r0, #8	; 0x8
a30009c4:	e2455002 	sub	r5, r5, #2	; 0x2
a30009c8:	eb000251 	bl	a3001314 <putc>
a30009cc:	ea000001 	b	a30009d8 <read_syscall+0xac>
a30009d0:	eb00024f 	bl	a3001314 <putc>
a30009d4:	e7c64005 	strb	r4, [r6, r5]
a30009d8:	e2855001 	add	r5, r5, #1	; 0x1
a30009dc:	eb000248 	bl	a3001304 <getc>
a30009e0:	e20040ff 	and	r4, r0, #255	; 0xff
a30009e4:	e3540004 	cmp	r4, #4	; 0x4
a30009e8:	0a000001 	beq	a30009f4 <read_syscall+0xc8>
a30009ec:	e1550007 	cmp	r5, r7
a30009f0:	3affffdf 	bcc	a3000974 <read_syscall+0x48>
a30009f4:	e1a00005 	mov	r0, r5
a30009f8:	e8bd80f0 	ldmia	sp!, {r4, r5, r6, r7, pc}

a30009fc <invalid_syscall>:
a30009fc:	e1a01000 	mov	r1, r0
a3000a00:	e59f0010 	ldr	r0, [pc, #16]	; a3000a18 <.text+0xa18>
a3000a04:	eb000246 	bl	a3001324 <printf>
a3000a08:	e10f3000 	mrs	r3, CPSR
a3000a0c:	e38330c0 	orr	r3, r3, #192	; 0xc0
a3000a10:	e121f003 	msr	CPSR_c, r3
a3000a14:	eafffffe 	b	a3000a14 <invalid_syscall+0x18>
a3000a18:	a3001690 	movwge	r1, #1680	; 0x690

a3000a1c <event_wait>:
a3000a1c:	e3500003 	cmp	r0, #3	; 0x3
a3000a20:	e52de004 	str	lr, [sp, #-4]!
a3000a24:	e3a03016 	mov	r3, #22	; 0x16
a3000a28:	8a000001 	bhi	a3000a34 <event_wait+0x18>
a3000a2c:	ebfffee0 	bl	a30005b4 <dev_wait>
a3000a30:	e3a03000 	mov	r3, #0	; 0x0
a3000a34:	e1a00003 	mov	r0, r3
a3000a38:	e49df004 	ldr	pc, [sp], #4

a3000a3c <task_create>:
a3000a3c:	e92d4070 	stmdb	sp!, {r4, r5, r6, lr}
a3000a40:	e1a04000 	mov	r4, r0
a3000a44:	e59f011c 	ldr	r0, [pc, #284]	; a3000b68 <.text+0xb68>
a3000a48:	e1a05001 	mov	r5, r1
a3000a4c:	eb000234 	bl	a3001324 <printf>
a3000a50:	e1a03004 	mov	r3, r4
a3000a54:	e3a00000 	mov	r0, #0	; 0x0
a3000a58:	ea000008 	b	a3000a80 <task_create+0x44>
a3000a5c:	e593200c 	ldr	r2, [r3, #12]
a3000a60:	e5931010 	ldr	r1, [r3, #16]
a3000a64:	e2833014 	add	r3, r3, #20	; 0x14
a3000a68:	e1520001 	cmp	r2, r1
a3000a6c:	8a00000a 	bhi	a3000a9c <task_create+0x60>
a3000a70:	e3520000 	cmp	r2, #0	; 0x0
a3000a74:	0a00000a 	beq	a3000aa4 <task_create+0x68>
a3000a78:	e3510000 	cmp	r1, #0	; 0x0
a3000a7c:	0a00000a 	beq	a3000aac <task_create+0x70>
a3000a80:	e1500005 	cmp	r0, r5
a3000a84:	e2800001 	add	r0, r0, #1	; 0x1
a3000a88:	1afffff3 	bne	a3000a5c <task_create+0x20>
a3000a8c:	e3550040 	cmp	r5, #64	; 0x40
a3000a90:	959f20d4 	ldrls	r2, [pc, #212]	; a3000b6c <.text+0xb6c>
a3000a94:	9a000008 	bls	a3000abc <task_create+0x80>
a3000a98:	ea000005 	b	a3000ab4 <task_create+0x78>
a3000a9c:	e3a00064 	mov	r0, #100	; 0x64
a3000aa0:	e8bd8070 	ldmia	sp!, {r4, r5, r6, pc}
a3000aa4:	e59f00c4 	ldr	r0, [pc, #196]	; a3000b70 <.text+0xb70>
a3000aa8:	ea000000 	b	a3000ab0 <task_create+0x74>
a3000aac:	e59f00c0 	ldr	r0, [pc, #192]	; a3000b74 <.text+0xb74>
a3000ab0:	eb00021b 	bl	a3001324 <printf>
a3000ab4:	e3a00016 	mov	r0, #22	; 0x16
a3000ab8:	e8bd8070 	ldmia	sp!, {r4, r5, r6, pc}
a3000abc:	e59f30b4 	ldr	r3, [pc, #180]	; a3000b78 <.text+0xb78>
a3000ac0:	e3a01000 	mov	r1, #0	; 0x0
a3000ac4:	e4821004 	str	r1, [r2], #4
a3000ac8:	e1520003 	cmp	r2, r3
a3000acc:	1afffffa 	bne	a3000abc <task_create+0x80>
a3000ad0:	e59f3094 	ldr	r3, [pc, #148]	; a3000b6c <.text+0xb6c>
a3000ad4:	e1a00004 	mov	r0, r4
a3000ad8:	e1a06001 	mov	r6, r1
a3000adc:	ea000002 	b	a3000aec <task_create+0xb0>
a3000ae0:	e5030004 	str	r0, [r3, #-4]
a3000ae4:	e2866001 	add	r6, r6, #1	; 0x1
a3000ae8:	e2800014 	add	r0, r0, #20	; 0x14
a3000aec:	e1560005 	cmp	r6, r5
a3000af0:	e2833004 	add	r3, r3, #4	; 0x4
a3000af4:	1afffff9 	bne	a3000ae0 <task_create+0xa4>
a3000af8:	e59f007c 	ldr	r0, [pc, #124]	; a3000b7c <.text+0xb7c>
a3000afc:	e3a0e001 	mov	lr, #1	; 0x1
a3000b00:	ea000010 	b	a3000b48 <task_create+0x10c>
a3000b04:	e5903000 	ldr	r3, [r0]
a3000b08:	e24e1001 	sub	r1, lr, #1	; 0x1
a3000b0c:	e1a0c000 	mov	ip, r0
a3000b10:	e5934010 	ldr	r4, [r3, #16]
a3000b14:	ea000001 	b	a3000b20 <task_create+0xe4>
a3000b18:	e5802004 	str	r2, [r0, #4]
a3000b1c:	e2411001 	sub	r1, r1, #1	; 0x1
a3000b20:	e3510000 	cmp	r1, #0	; 0x0
a3000b24:	ba000003 	blt	a3000b38 <task_create+0xfc>
a3000b28:	e53c2004 	ldr	r2, [ip, #-4]!
a3000b2c:	e5923010 	ldr	r3, [r2, #16]
a3000b30:	e1530004 	cmp	r3, r4
a3000b34:	8afffff7 	bhi	a3000b18 <task_create+0xdc>
a3000b38:	e4902004 	ldr	r2, [r0], #4
a3000b3c:	e59f3038 	ldr	r3, [pc, #56]	; a3000b7c <.text+0xb7c>
a3000b40:	e28ee001 	add	lr, lr, #1	; 0x1
a3000b44:	e7832101 	str	r2, [r3, r1, lsl #2]
a3000b48:	e15e0006 	cmp	lr, r6
a3000b4c:	baffffec 	blt	a3000b04 <task_create+0xc8>
a3000b50:	e1a01005 	mov	r1, r5
a3000b54:	e59f0010 	ldr	r0, [pc, #16]	; a3000b6c <.text+0xb6c>
a3000b58:	eb000074 	bl	a3000d30 <allocate_tasks>
a3000b5c:	eb0000c2 	bl	a3000e6c <dispatch_nosave>
a3000b60:	e3a00001 	mov	r0, #1	; 0x1
a3000b64:	e8bd8070 	ldmia	sp!, {r4, r5, r6, pc}
a3000b68:	a30016c0 	movwge	r1, #1728	; 0x6c0
a3000b6c:	a3001ac4 	movwge	r1, #2756	; 0xac4
a3000b70:	a30016d0 	movwge	r1, #1744	; 0x6d0
a3000b74:	a30016e8 	movwge	r1, #1768	; 0x6e8
a3000b78:	a3001bc4 	movwge	r1, #3012	; 0xbc4
a3000b7c:	a3001ac8 	movwge	r1, #2760	; 0xac8

a3000b80 <time_syscall>:
a3000b80:	e59f300c 	ldr	r3, [pc, #12]	; a3000b94 <.text+0xb94>
a3000b84:	e5932000 	ldr	r2, [r3]
a3000b88:	e3a0300a 	mov	r3, #10	; 0xa
a3000b8c:	e0000392 	mul	r0, r2, r3
a3000b90:	e12fff1e 	bx	lr
a3000b94:	a3001ac0 	movwge	r1, #2752	; 0xac0

a3000b98 <sleep_syscall>:
a3000b98:	e59f3024 	ldr	r3, [pc, #36]	; a3000bc4 <.text+0xbc4>
a3000b9c:	e92d4010 	stmdb	sp!, {r4, lr}
a3000ba0:	e3a0100a 	mov	r1, #10	; 0xa
a3000ba4:	e5934000 	ldr	r4, [r3]
a3000ba8:	eb0001ff 	bl	a30013ac <__aeabi_uidiv>
a3000bac:	e0844000 	add	r4, r4, r0
a3000bb0:	e59f300c 	ldr	r3, [pc, #12]	; a3000bc4 <.text+0xbc4>
a3000bb4:	e5933000 	ldr	r3, [r3]
a3000bb8:	e1530004 	cmp	r3, r4
a3000bbc:	3afffffb 	bcc	a3000bb0 <sleep_syscall+0x18>
a3000bc0:	e8bd8010 	ldmia	sp!, {r4, pc}
a3000bc4:	a3001ac0 	movwge	r1, #2752	; 0xac0

a3000bc8 <idle>:
a3000bc8:	e10f3000 	mrs	r3, CPSR
a3000bcc:	e3c330c0 	bic	r3, r3, #192	; 0xc0
a3000bd0:	e121f003 	msr	CPSR_c, r3
a3000bd4:	eafffffe 	b	a3000bd4 <idle+0xc>

a3000bd8 <tcb_init>:
a3000bd8:	e20220ff 	and	r2, r2, #255	; 0xff
a3000bdc:	e5c12000 	strb	r2, [r1]
a3000be0:	e5c12001 	strb	r2, [r1, #1]
a3000be4:	e5903000 	ldr	r3, [r0]
a3000be8:	e92d4070 	stmdb	sp!, {r4, r5, r6, lr}
a3000bec:	e5813004 	str	r3, [r1, #4]
a3000bf0:	e9900030 	ldmib	r0, {r4, r5}
a3000bf4:	e5906010 	ldr	r6, [r0, #16]
a3000bf8:	e590e00c 	ldr	lr, [r0, #12]
a3000bfc:	e59f3030 	ldr	r3, [pc, #48]	; a3000c34 <.text+0xc34>
a3000c00:	e2810a01 	add	r0, r1, #4096	; 0x1000
a3000c04:	e2812004 	add	r2, r1, #4	; 0x4
a3000c08:	e3a0c000 	mov	ip, #0	; 0x0
a3000c0c:	e2800038 	add	r0, r0, #56	; 0x38
a3000c10:	e5824004 	str	r4, [r2, #4]
a3000c14:	e5825008 	str	r5, [r2, #8]
a3000c18:	e582e00c 	str	lr, [r2, #12]
a3000c1c:	e5826010 	str	r6, [r2, #16]
a3000c20:	e5823024 	str	r3, [r2, #36]
a3000c24:	e5820020 	str	r0, [r2, #32]
a3000c28:	e581c02c 	str	ip, [r1, #44]
a3000c2c:	e581c030 	str	ip, [r1, #48]
a3000c30:	e8bd8070 	ldmia	sp!, {r4, r5, r6, pc}
a3000c34:	a3000f48 	movwge	r0, #3912	; 0xf48

a3000c38 <tcb_debug>:
a3000c38:	e92d4010 	stmdb	sp!, {r4, lr}
a3000c3c:	e1a04000 	mov	r4, r0
a3000c40:	e59f00b4 	ldr	r0, [pc, #180]	; a3000cfc <.text+0xcfc>
a3000c44:	eb0001b6 	bl	a3001324 <printf>
a3000c48:	e5d41000 	ldrb	r1, [r4]
a3000c4c:	e59f00ac 	ldr	r0, [pc, #172]	; a3000d00 <.text+0xd00>
a3000c50:	eb0001b3 	bl	a3001324 <printf>
a3000c54:	e5d41001 	ldrb	r1, [r4, #1]
a3000c58:	e59f00a4 	ldr	r0, [pc, #164]	; a3000d04 <.text+0xd04>
a3000c5c:	eb0001b0 	bl	a3001324 <printf>
a3000c60:	e5941004 	ldr	r1, [r4, #4]
a3000c64:	e59f009c 	ldr	r0, [pc, #156]	; a3000d08 <.text+0xd08>
a3000c68:	e5942004 	ldr	r2, [r4, #4]
a3000c6c:	eb0001ac 	bl	a3001324 <printf>
a3000c70:	e5941008 	ldr	r1, [r4, #8]
a3000c74:	e59f0090 	ldr	r0, [pc, #144]	; a3000d0c <.text+0xd0c>
a3000c78:	e5942008 	ldr	r2, [r4, #8]
a3000c7c:	eb0001a8 	bl	a3001324 <printf>
a3000c80:	e594100c 	ldr	r1, [r4, #12]
a3000c84:	e59f0084 	ldr	r0, [pc, #132]	; a3000d10 <.text+0xd10>
a3000c88:	e594200c 	ldr	r2, [r4, #12]
a3000c8c:	eb0001a4 	bl	a3001324 <printf>
a3000c90:	e5941010 	ldr	r1, [r4, #16]
a3000c94:	e59f0078 	ldr	r0, [pc, #120]	; a3000d14 <.text+0xd14>
a3000c98:	e5942010 	ldr	r2, [r4, #16]
a3000c9c:	eb0001a0 	bl	a3001324 <printf>
a3000ca0:	e5941014 	ldr	r1, [r4, #20]
a3000ca4:	e59f006c 	ldr	r0, [pc, #108]	; a3000d18 <.text+0xd18>
a3000ca8:	e5942014 	ldr	r2, [r4, #20]
a3000cac:	eb00019c 	bl	a3001324 <printf>
a3000cb0:	e5941018 	ldr	r1, [r4, #24]
a3000cb4:	e59f0060 	ldr	r0, [pc, #96]	; a3000d1c <.text+0xd1c>
a3000cb8:	e5942018 	ldr	r2, [r4, #24]
a3000cbc:	eb000198 	bl	a3001324 <printf>
a3000cc0:	e594101c 	ldr	r1, [r4, #28]
a3000cc4:	e59f0054 	ldr	r0, [pc, #84]	; a3000d20 <.text+0xd20>
a3000cc8:	e594201c 	ldr	r2, [r4, #28]
a3000ccc:	eb000194 	bl	a3001324 <printf>
a3000cd0:	e5941020 	ldr	r1, [r4, #32]
a3000cd4:	e59f0048 	ldr	r0, [pc, #72]	; a3000d24 <.text+0xd24>
a3000cd8:	e5942020 	ldr	r2, [r4, #32]
a3000cdc:	eb000190 	bl	a3001324 <printf>
a3000ce0:	e5941024 	ldr	r1, [r4, #36]
a3000ce4:	e59f003c 	ldr	r0, [pc, #60]	; a3000d28 <.text+0xd28>
a3000ce8:	eb00018d 	bl	a3001324 <printf>
a3000cec:	e5941028 	ldr	r1, [r4, #40]
a3000cf0:	e59f0034 	ldr	r0, [pc, #52]	; a3000d2c <.text+0xd2c>
a3000cf4:	e8bd4010 	ldmia	sp!, {r4, lr}
a3000cf8:	ea000189 	b	a3001324 <printf>
a3000cfc:	a3001700 	movwge	r1, #1792	; 0x700
a3000d00:	a3001720 	movwge	r1, #1824	; 0x720
a3000d04:	a3001730 	movwge	r1, #1840	; 0x730
a3000d08:	a3001748 	movwge	r1, #1864	; 0x748
a3000d0c:	a3001758 	movwge	r1, #1880	; 0x758
a3000d10:	a3001768 	movwge	r1, #1896	; 0x768
a3000d14:	a3001778 	movwge	r1, #1912	; 0x778
a3000d18:	a3001788 	movwge	r1, #1928	; 0x788
a3000d1c:	a3001798 	movwge	r1, #1944	; 0x798
a3000d20:	a30017a8 	movwge	r1, #1960	; 0x7a8
a3000d24:	a30017b8 	movwge	r1, #1976	; 0x7b8
a3000d28:	a30017c8 	movwge	r1, #1992	; 0x7c8
a3000d2c:	a30017d0 	movwge	r1, #2000	; 0x7d0

a3000d30 <allocate_tasks>:
a3000d30:	e92d44f0 	stmdb	sp!, {r4, r5, r6, r7, sl, lr}
a3000d34:	e24dd014 	sub	sp, sp, #20	; 0x14
a3000d38:	e1a0a000 	mov	sl, r0
a3000d3c:	e1a07001 	mov	r7, r1
a3000d40:	eb000091 	bl	a3000f8c <runqueue_init>
a3000d44:	ebfffdd9 	bl	a30004b0 <dev_init>
a3000d48:	e3a06000 	mov	r6, #0	; 0x0
a3000d4c:	ea000004 	b	a3000d64 <allocate_tasks+0x34>
a3000d50:	e79a0104 	ldr	r0, [sl, r4, lsl #2]
a3000d54:	ebffff9f 	bl	a3000bd8 <tcb_init>
a3000d58:	e1a00005 	mov	r0, r5
a3000d5c:	e1a01004 	mov	r1, r4
a3000d60:	eb00009e 	bl	a3000fe0 <runqueue_add>
a3000d64:	e59f105c 	ldr	r1, [pc, #92]	; a3000dc8 <.text+0xdc8>
a3000d68:	e59f305c 	ldr	r3, [pc, #92]	; a3000dcc <.text+0xdcc>
a3000d6c:	e20640ff 	and	r4, r6, #255	; 0xff
a3000d70:	e1540007 	cmp	r4, r7
a3000d74:	e0253194 	mla	r5, r4, r1, r3
a3000d78:	e1a02004 	mov	r2, r4
a3000d7c:	e1a01005 	mov	r1, r5
a3000d80:	e2866001 	add	r6, r6, #1	; 0x1
a3000d84:	3afffff1 	bcc	a3000d50 <allocate_tasks+0x20>
a3000d88:	e59fc040 	ldr	ip, [pc, #64]	; a3000dd0 <.text+0xdd0>
a3000d8c:	e3a03000 	mov	r3, #0	; 0x0
a3000d90:	e1a0000d 	mov	r0, sp
a3000d94:	e58dc000 	str	ip, [sp]
a3000d98:	e59fc034 	ldr	ip, [pc, #52]	; a3000dd4 <.text+0xdd4>
a3000d9c:	e59f1034 	ldr	r1, [pc, #52]	; a3000dd8 <.text+0xdd8>
a3000da0:	e3a0203f 	mov	r2, #63	; 0x3f
a3000da4:	e58d3010 	str	r3, [sp, #16]
a3000da8:	e98d1008 	stmib	sp, {r3, ip}
a3000dac:	e58d300c 	str	r3, [sp, #12]
a3000db0:	ebffff88 	bl	a3000bd8 <tcb_init>
a3000db4:	e59f001c 	ldr	r0, [pc, #28]	; a3000dd8 <.text+0xdd8>
a3000db8:	e3a0103f 	mov	r1, #63	; 0x3f
a3000dbc:	eb000087 	bl	a3000fe0 <runqueue_add>
a3000dc0:	e28dd014 	add	sp, sp, #20	; 0x14
a3000dc4:	e8bd84f0 	ldmia	sp!, {r4, r5, r6, r7, sl, pc}
a3000dc8:	00001038 	andeq	r1, r0, r8, lsr r0
a3000dcc:	a3001bc8 	movwge	r1, #3016	; 0xbc8
a3000dd0:	a3000bc8 	movwge	r0, #3016	; 0xbc8
a3000dd4:	a1600000 	cmnge	r0, r0
a3000dd8:	a3041990 	movwge	r1, #18832	; 0x4990

a3000ddc <sched_init>:
a3000ddc:	e92d4030 	stmdb	sp!, {r4, r5, lr}
a3000de0:	e59f5044 	ldr	r5, [pc, #68]	; a3000e2c <.text+0xe2c>
a3000de4:	e3a0320a 	mov	r3, #-1610612736	; 0xa0000000
a3000de8:	e3a04000 	mov	r4, #0	; 0x0
a3000dec:	e3a01001 	mov	r1, #1	; 0x1
a3000df0:	e5803000 	str	r3, [r0]
a3000df4:	e2833403 	add	r3, r3, #50331648	; 0x3000000
a3000df8:	e5803008 	str	r3, [r0, #8]
a3000dfc:	e5801010 	str	r1, [r0, #16]
a3000e00:	e5804004 	str	r4, [r0, #4]
a3000e04:	e580100c 	str	r1, [r0, #12]
a3000e08:	e1a02004 	mov	r2, r4
a3000e0c:	e1a01005 	mov	r1, r5
a3000e10:	ebffff70 	bl	a3000bd8 <tcb_init>
a3000e14:	e1a00005 	mov	r0, r5
a3000e18:	e1a01004 	mov	r1, r4
a3000e1c:	eb00006f 	bl	a3000fe0 <runqueue_add>
a3000e20:	e1a00005 	mov	r0, r5
a3000e24:	e8bd4030 	ldmia	sp!, {r4, r5, lr}
a3000e28:	ea000002 	b	a3000e38 <dispatch_init>
a3000e2c:	a3001bc8 	movwge	r1, #3016	; 0xbc8

a3000e30 <assign_schedule>:
a3000e30:	e3a00001 	mov	r0, #1	; 0x1
a3000e34:	e12fff1e 	bx	lr

a3000e38 <dispatch_init>:
a3000e38:	e59f3004 	ldr	r3, [pc, #4]	; a3000e44 <.text+0xe44>
a3000e3c:	e5830000 	str	r0, [r3]
a3000e40:	e12fff1e 	bx	lr
a3000e44:	a3001990 	movwge	r1, #2448	; 0x990

a3000e48 <get_cur_prio>:
a3000e48:	e59f3008 	ldr	r3, [pc, #8]	; a3000e58 <.text+0xe58>
a3000e4c:	e5933000 	ldr	r3, [r3]
a3000e50:	e5d30001 	ldrb	r0, [r3, #1]
a3000e54:	e12fff1e 	bx	lr
a3000e58:	a3001990 	movwge	r1, #2448	; 0x990

a3000e5c <get_cur_tcb>:
a3000e5c:	e59f3004 	ldr	r3, [pc, #4]	; a3000e68 <.text+0xe68>
a3000e60:	e5930000 	ldr	r0, [r3]
a3000e64:	e12fff1e 	bx	lr
a3000e68:	a3001990 	movwge	r1, #2448	; 0x990

a3000e6c <dispatch_nosave>:
a3000e6c:	e52de004 	str	lr, [sp, #-4]!
a3000e70:	eb000083 	bl	a3001084 <highest_prio>
a3000e74:	eb00006c 	bl	a300102c <runqueue_remove>
a3000e78:	e59f300c 	ldr	r3, [pc, #12]	; a3000e8c <.text+0xe8c>
a3000e7c:	e1a02000 	mov	r2, r0
a3000e80:	e2800004 	add	r0, r0, #4	; 0x4
a3000e84:	e5832000 	str	r2, [r3]
a3000e88:	eb00003c 	bl	a3000f80 <ctx_switch_half>
a3000e8c:	a3001990 	movwge	r1, #2448	; 0x990

a3000e90 <dispatch_save>:
a3000e90:	e92d4070 	stmdb	sp!, {r4, r5, r6, lr}
a3000e94:	e59f606c 	ldr	r6, [pc, #108]	; a3000f08 <.text+0xf08>
a3000e98:	e5960000 	ldr	r0, [r6]
a3000e9c:	e5d01001 	ldrb	r1, [r0, #1]
a3000ea0:	eb00004e 	bl	a3000fe0 <runqueue_add>
a3000ea4:	eb000076 	bl	a3001084 <highest_prio>
a3000ea8:	e5963000 	ldr	r3, [r6]
a3000eac:	e5d33001 	ldrb	r3, [r3, #1]
a3000eb0:	e1530000 	cmp	r3, r0
a3000eb4:	1a000001 	bne	a3000ec0 <dispatch_save+0x30>
a3000eb8:	e8bd4070 	ldmia	sp!, {r4, r5, r6, lr}
a3000ebc:	ea00005a 	b	a300102c <runqueue_remove>
a3000ec0:	eb000059 	bl	a300102c <runqueue_remove>
a3000ec4:	e5965000 	ldr	r5, [r6]
a3000ec8:	e1a04000 	mov	r4, r0
a3000ecc:	e59f0038 	ldr	r0, [pc, #56]	; a3000f0c <.text+0xf0c>
a3000ed0:	e5864000 	str	r4, [r6]
a3000ed4:	eb000112 	bl	a3001324 <printf>
a3000ed8:	e59f0030 	ldr	r0, [pc, #48]	; a3000f10 <.text+0xf10>
a3000edc:	eb000110 	bl	a3001324 <printf>
a3000ee0:	e1a00005 	mov	r0, r5
a3000ee4:	ebffff53 	bl	a3000c38 <tcb_debug>
a3000ee8:	e59f0024 	ldr	r0, [pc, #36]	; a3000f14 <.text+0xf14>
a3000eec:	eb00010c 	bl	a3001324 <printf>
a3000ef0:	e1a00004 	mov	r0, r4
a3000ef4:	ebffff4f 	bl	a3000c38 <tcb_debug>
a3000ef8:	e2840004 	add	r0, r4, #4	; 0x4
a3000efc:	e2851004 	add	r1, r5, #4	; 0x4
a3000f00:	e8bd4070 	ldmia	sp!, {r4, r5, r6, lr}
a3000f04:	ea00001b 	b	a3000f78 <ctx_switch_full>
a3000f08:	a3001990 	movwge	r1, #2448	; 0x990
a3000f0c:	a30017d8 	movwge	r1, #2008	; 0x7d8
a3000f10:	a30017e8 	movwge	r1, #2024	; 0x7e8
a3000f14:	a3001808 	movwge	r1, #2056	; 0x808

a3000f18 <dispatch_sleep>:
a3000f18:	e52de004 	str	lr, [sp, #-4]!
a3000f1c:	eb000058 	bl	a3001084 <highest_prio>
a3000f20:	eb000041 	bl	a300102c <runqueue_remove>
a3000f24:	e59f2018 	ldr	r2, [pc, #24]	; a3000f44 <.text+0xf44>
a3000f28:	e1a03000 	mov	r3, r0
a3000f2c:	e2800004 	add	r0, r0, #4	; 0x4
a3000f30:	e5921000 	ldr	r1, [r2]
a3000f34:	e5823000 	str	r3, [r2]
a3000f38:	e2811004 	add	r1, r1, #4	; 0x4
a3000f3c:	e49de004 	ldr	lr, [sp], #4
a3000f40:	ea00000c 	b	a3000f78 <ctx_switch_full>
a3000f44:	a3001990 	movwge	r1, #2448	; 0x990

a3000f48 <launch_task>:
a3000f48:	e1a00005 	mov	r0, r5
a3000f4c:	e3a01000 	mov	r1, #0	; 0x0
a3000f50:	e3a02000 	mov	r2, #0	; 0x0
a3000f54:	e3a03000 	mov	r3, #0	; 0x0
a3000f58:	e3a05000 	mov	r5, #0	; 0x0
a3000f5c:	e3a08000 	mov	r8, #0	; 0x0
a3000f60:	e3a0c000 	mov	ip, #0	; 0x0
a3000f64:	e321f010 	msr	CPSR_c, #16	; 0x10
a3000f68:	e1a0d006 	mov	sp, r6
a3000f6c:	e3a06000 	mov	r6, #0	; 0x0
a3000f70:	e59fe010 	ldr	lr, [pc, #16]	; a3000f88 <.text+0xf88>
a3000f74:	e1a0f004 	mov	pc, r4

a3000f78 <ctx_switch_full>:
a3000f78:	e8816ff0 	stmia	r1, {r4, r5, r6, r7, r8, r9, sl, fp, sp, lr}
a3000f7c:	ebffffff 	bl	a3000f80 <ctx_switch_half>

a3000f80 <ctx_switch_half>:
a3000f80:	e8906ff0 	ldmia	r0, {r4, r5, r6, r7, r8, r9, sl, fp, sp, lr}
a3000f84:	e1a0f00e 	mov	pc, lr
a3000f88:	deadbeef 	cdple	14, 10, cr11, cr13, cr15, {7}

a3000f8c <runqueue_init>:
a3000f8c:	e59f3038 	ldr	r3, [pc, #56]	; a3000fcc <.text+0xfcc>
a3000f90:	e59f1038 	ldr	r1, [pc, #56]	; a3000fd0 <.text+0xfd0>
a3000f94:	e3a02000 	mov	r2, #0	; 0x0
a3000f98:	e5c32000 	strb	r2, [r3]
a3000f9c:	e3a03000 	mov	r3, #0	; 0x0
a3000fa0:	e4c13001 	strb	r3, [r1], #1
a3000fa4:	e59f3028 	ldr	r3, [pc, #40]	; a3000fd4 <.text+0xfd4>
a3000fa8:	e1510003 	cmp	r1, r3
a3000fac:	1afffffa 	bne	a3000f9c <runqueue_init+0x10>
a3000fb0:	e59f2020 	ldr	r2, [pc, #32]	; a3000fd8 <.text+0xfd8>
a3000fb4:	e3a03000 	mov	r3, #0	; 0x0
a3000fb8:	e4823004 	str	r3, [r2], #4
a3000fbc:	e59f3018 	ldr	r3, [pc, #24]	; a3000fdc <.text+0xfdc>
a3000fc0:	e1520003 	cmp	r2, r3
a3000fc4:	1afffffa 	bne	a3000fb4 <runqueue_init+0x28>
a3000fc8:	e12fff1e 	bx	lr
a3000fcc:	a3001a9c 	movwge	r1, #2716	; 0xa9c
a3000fd0:	a3001a94 	movwge	r1, #2708	; 0xa94
a3000fd4:	a3001a9c 	movwge	r1, #2716	; 0xa9c
a3000fd8:	a3001994 	movwge	r1, #2452	; 0x994
a3000fdc:	a3001a94 	movwge	r1, #2708	; 0xa94

a3000fe0 <runqueue_add>:
a3000fe0:	e92d4070 	stmdb	sp!, {r4, r5, r6, lr}
a3000fe4:	e59f4034 	ldr	r4, [pc, #52]	; a3001020 <.text+0x1020>
a3000fe8:	e20160ff 	and	r6, r1, #255	; 0xff
a3000fec:	e1a0c1a6 	mov	ip, r6, lsr #3
a3000ff0:	e59f502c 	ldr	r5, [pc, #44]	; a3001024 <.text+0x1024>
a3000ff4:	e7d4300c 	ldrb	r3, [r4, ip]
a3000ff8:	e3a02001 	mov	r2, #1	; 0x1
a3000ffc:	e2011007 	and	r1, r1, #7	; 0x7
a3001000:	e5d5e000 	ldrb	lr, [r5]
a3001004:	e1833112 	orr	r3, r3, r2, lsl r1
a3001008:	e18eec12 	orr	lr, lr, r2, lsl ip
a300100c:	e7c4300c 	strb	r3, [r4, ip]
a3001010:	e59f3010 	ldr	r3, [pc, #16]	; a3001028 <.text+0x1028>
a3001014:	e5c5e000 	strb	lr, [r5]
a3001018:	e7830106 	str	r0, [r3, r6, lsl #2]
a300101c:	e8bd8070 	ldmia	sp!, {r4, r5, r6, pc}
a3001020:	a3001a94 	movwge	r1, #2708	; 0xa94
a3001024:	a3001a9c 	movwge	r1, #2716	; 0xa9c
a3001028:	a3001994 	movwge	r1, #2452	; 0x994

a300102c <runqueue_remove>:
a300102c:	e59fc044 	ldr	ip, [pc, #68]	; a3001078 <.text+0x1078>
a3001030:	e20020ff 	and	r2, r0, #255	; 0xff
a3001034:	e92d4030 	stmdb	sp!, {r4, r5, lr}
a3001038:	e1a0e1a2 	mov	lr, r2, lsr #3
a300103c:	e7dc300e 	ldrb	r3, [ip, lr]
a3001040:	e3a04001 	mov	r4, #1	; 0x1
a3001044:	e2000007 	and	r0, r0, #7	; 0x7
a3001048:	e1c33014 	bic	r3, r3, r4, lsl r0
a300104c:	e59f5028 	ldr	r5, [pc, #40]	; a300107c <.text+0x107c>
a3001050:	e59f1028 	ldr	r1, [pc, #40]	; a3001080 <.text+0x1080>
a3001054:	e3530000 	cmp	r3, #0	; 0x0
a3001058:	e7cc300e 	strb	r3, [ip, lr]
a300105c:	e3a03000 	mov	r3, #0	; 0x0
a3001060:	e7910102 	ldr	r0, [r1, r2, lsl #2]
a3001064:	e7813102 	str	r3, [r1, r2, lsl #2]
a3001068:	05d53000 	ldreqb	r3, [r5]
a300106c:	01c33e14 	biceq	r3, r3, r4, lsl lr
a3001070:	05c53000 	streqb	r3, [r5]
a3001074:	e8bd8030 	ldmia	sp!, {r4, r5, pc}
a3001078:	a3001a94 	movwge	r1, #2708	; 0xa94
a300107c:	a3001a9c 	movwge	r1, #2716	; 0xa9c
a3001080:	a3001994 	movwge	r1, #2452	; 0x994

a3001084 <highest_prio>:
a3001084:	e59f3020 	ldr	r3, [pc, #32]	; a30010ac <.text+0x10ac>
a3001088:	e59f1020 	ldr	r1, [pc, #32]	; a30010b0 <.text+0x10b0>
a300108c:	e5d33000 	ldrb	r3, [r3]
a3001090:	e7d12003 	ldrb	r2, [r1, r3]
a3001094:	e59f3018 	ldr	r3, [pc, #24]	; a30010b4 <.text+0x10b4>
a3001098:	e7d33002 	ldrb	r3, [r3, r2]
a300109c:	e7d10003 	ldrb	r0, [r1, r3]
a30010a0:	e0800182 	add	r0, r0, r2, lsl #3
a30010a4:	e20000ff 	and	r0, r0, #255	; 0xff
a30010a8:	e12fff1e 	bx	lr
a30010ac:	a3001a9c 	movwge	r1, #2716	; 0xa9c
a30010b0:	a3001860 	movwge	r1, #2144	; 0x860
a30010b4:	a3001a94 	movwge	r1, #2708	; 0xa94

a30010b8 <printit>:
a30010b8:	e92d4030 	stmdb	sp!, {r4, r5, lr}
a30010bc:	e59f3038 	ldr	r3, [pc, #56]	; a30010fc <.text+0x10fc>
a30010c0:	e59f0038 	ldr	r0, [pc, #56]	; a3001100 <.text+0x1100>
a30010c4:	e59f5038 	ldr	r5, [pc, #56]	; a3001104 <.text+0x1104>
a30010c8:	e5d31000 	ldrb	r1, [r3]
a30010cc:	eb000094 	bl	a3001324 <printf>
a30010d0:	e3a04000 	mov	r4, #0	; 0x0
a30010d4:	e1a01004 	mov	r1, r4
a30010d8:	e59f0028 	ldr	r0, [pc, #40]	; a3001108 <.text+0x1108>
a30010dc:	e2844001 	add	r4, r4, #1	; 0x1
a30010e0:	e4d52001 	ldrb	r2, [r5], #1
a30010e4:	eb00008e 	bl	a3001324 <printf>
a30010e8:	e3540008 	cmp	r4, #8	; 0x8
a30010ec:	1afffff8 	bne	a30010d4 <printit+0x1c>
a30010f0:	e59f0014 	ldr	r0, [pc, #20]	; a300110c <.text+0x110c>
a30010f4:	e8bd4030 	ldmia	sp!, {r4, r5, lr}
a30010f8:	ea000089 	b	a3001324 <printf>
a30010fc:	a3001a9c 	movwge	r1, #2716	; 0xa9c
a3001100:	a3001828 	movwge	r1, #2088	; 0x828
a3001104:	a3001a94 	movwge	r1, #2708	; 0xa94
a3001108:	a3001840 	movwge	r1, #2112	; 0x840
a300110c:	a3001858 	movwge	r1, #2136	; 0x858

a3001110 <mutex_init>:
a3001110:	e59f1028 	ldr	r1, [pc, #40]	; a3001140 <.text+0x1140>
a3001114:	e3a03000 	mov	r3, #0	; 0x0
a3001118:	e581300c 	str	r3, [r1, #12]
a300111c:	e5813004 	str	r3, [r1, #4]
a3001120:	e5813008 	str	r3, [r1, #8]
a3001124:	e59f3018 	ldr	r3, [pc, #24]	; a3001144 <.text+0x1144>
a3001128:	e3a02001 	mov	r2, #1	; 0x1
a300112c:	e5812000 	str	r2, [r1]
a3001130:	e2811010 	add	r1, r1, #16	; 0x10
a3001134:	e1510003 	cmp	r1, r3
a3001138:	1afffff5 	bne	a3001114 <mutex_init+0x4>
a300113c:	e12fff1e 	bx	lr
a3001140:	a30429c8 	movwge	r2, #18888	; 0x49c8
a3001144:	a3042bc8 	movwge	r2, #19400	; 0x4bc8

a3001148 <mutex_create>:
a3001148:	e59f2038 	ldr	r2, [pc, #56]	; a3001188 <.text+0x1188>
a300114c:	e3a01000 	mov	r1, #0	; 0x0
a3001150:	e5923000 	ldr	r3, [r2]
a3001154:	e2810001 	add	r0, r1, #1	; 0x1
a3001158:	e2822010 	add	r2, r2, #16	; 0x10
a300115c:	e3530001 	cmp	r3, #1	; 0x1
a3001160:	1a000003 	bne	a3001174 <mutex_create+0x2c>
a3001164:	e59f301c 	ldr	r3, [pc, #28]	; a3001188 <.text+0x1188>
a3001168:	e3a02000 	mov	r2, #0	; 0x0
a300116c:	e7832201 	str	r2, [r3, r1, lsl #4]
a3001170:	e12fff1e 	bx	lr
a3001174:	e3500020 	cmp	r0, #32	; 0x20
a3001178:	e1a01000 	mov	r1, r0
a300117c:	1afffff3 	bne	a3001150 <mutex_create+0x8>
a3001180:	e3e0000b 	mvn	r0, #11	; 0xb
a3001184:	e12fff1e 	bx	lr
a3001188:	a30429c8 	movwge	r2, #18888	; 0x49c8

a300118c <mutex_queue_add>:
a300118c:	e59f3030 	ldr	r3, [pc, #48]	; a30011c4 <.text+0x11c4>
a3001190:	e0832200 	add	r2, r3, r0, lsl #4
a3001194:	e592300c 	ldr	r3, [r2, #12]
a3001198:	e3530000 	cmp	r3, #0	; 0x0
a300119c:	0582100c 	streq	r1, [r2, #12]
a30011a0:	05813030 	streq	r3, [r1, #48]
a30011a4:	012fff1e 	bxeq	lr
a30011a8:	ea000000 	b	a30011b0 <mutex_queue_add+0x24>
a30011ac:	e5933030 	ldr	r3, [r3, #48]
a30011b0:	e5932030 	ldr	r2, [r3, #48]
a30011b4:	e3520000 	cmp	r2, #0	; 0x0
a30011b8:	1afffffb 	bne	a30011ac <mutex_queue_add+0x20>
a30011bc:	e5812030 	str	r2, [r1, #48]
a30011c0:	e12fff1e 	bx	lr
a30011c4:	a30429c8 	movwge	r2, #18888	; 0x49c8

a30011c8 <mutex_lock>:
a30011c8:	e3500020 	cmp	r0, #32	; 0x20
a30011cc:	e92d4070 	stmdb	sp!, {r4, r5, r6, lr}
a30011d0:	e59f506c 	ldr	r5, [pc, #108]	; a3001244 <.text+0x1244>
a30011d4:	e1a04000 	mov	r4, r0
a30011d8:	8a000016 	bhi	a3001238 <mutex_lock+0x70>
a30011dc:	e7956200 	ldr	r6, [r5, r0, lsl #4]
a30011e0:	e3560000 	cmp	r6, #0	; 0x0
a30011e4:	1a000013 	bne	a3001238 <mutex_lock+0x70>
a30011e8:	ebffff1b 	bl	a3000e5c <get_cur_tcb>
a30011ec:	e0852204 	add	r2, r5, r4, lsl #4
a30011f0:	e5923004 	ldr	r3, [r2, #4]
a30011f4:	e1a0c000 	mov	ip, r0
a30011f8:	e3e0e039 	mvn	lr, #57	; 0x39
a30011fc:	e1500003 	cmp	r0, r3
a3001200:	0a00000d 	beq	a300123c <mutex_lock+0x74>
a3001204:	e5923008 	ldr	r3, [r2, #8]
a3001208:	e1a00004 	mov	r0, r4
a300120c:	e1a0100c 	mov	r1, ip
a3001210:	e3530000 	cmp	r3, #0	; 0x0
a3001214:	e1a0e003 	mov	lr, r3
a3001218:	02833001 	addeq	r3, r3, #1	; 0x1
a300121c:	0582c004 	streq	ip, [r2, #4]
a3001220:	05823008 	streq	r3, [r2, #8]
a3001224:	0a000004 	beq	a300123c <mutex_lock+0x74>
a3001228:	ebffffd7 	bl	a300118c <mutex_queue_add>
a300122c:	ebffff39 	bl	a3000f18 <dispatch_sleep>
a3001230:	e1a0e006 	mov	lr, r6
a3001234:	ea000000 	b	a300123c <mutex_lock+0x74>
a3001238:	e3e0e015 	mvn	lr, #21	; 0x15
a300123c:	e1a0000e 	mov	r0, lr
a3001240:	e8bd8070 	ldmia	sp!, {r4, r5, r6, pc}
a3001244:	a30429c8 	movwge	r2, #18888	; 0x49c8

a3001248 <mutex_queue_remove>:
a3001248:	e59f3048 	ldr	r3, [pc, #72]	; a3001298 <.text+0x1298>
a300124c:	e92d4030 	stmdb	sp!, {r4, r5, lr}
a3001250:	e0835200 	add	r5, r3, r0, lsl #4
a3001254:	e595200c 	ldr	r2, [r5, #12]
a3001258:	e3520000 	cmp	r2, #0	; 0x0
a300125c:	0a00000c 	beq	a3001294 <mutex_queue_remove+0x4c>
a3001260:	e5924030 	ldr	r4, [r2, #48]
a3001264:	e1a00002 	mov	r0, r2
a3001268:	e3540000 	cmp	r4, #0	; 0x0
a300126c:	1a000003 	bne	a3001280 <mutex_queue_remove+0x38>
a3001270:	e5d21001 	ldrb	r1, [r2, #1]
a3001274:	ebffff59 	bl	a3000fe0 <runqueue_add>
a3001278:	e585400c 	str	r4, [r5, #12]
a300127c:	e8bd8030 	ldmia	sp!, {r4, r5, pc}
a3001280:	e5923030 	ldr	r3, [r2, #48]
a3001284:	e5d21001 	ldrb	r1, [r2, #1]
a3001288:	e1a00002 	mov	r0, r2
a300128c:	e8bd4030 	ldmia	sp!, {r4, r5, lr}
a3001290:	eaffff52 	b	a3000fe0 <runqueue_add>
a3001294:	e8bd8030 	ldmia	sp!, {r4, r5, pc}
a3001298:	a30429c8 	movwge	r2, #18888	; 0x49c8

a300129c <mutex_unlock>:
a300129c:	e3500020 	cmp	r0, #32	; 0x20
a30012a0:	e92d4070 	stmdb	sp!, {r4, r5, r6, lr}
a30012a4:	e59f604c 	ldr	r6, [pc, #76]	; a30012f8 <.text+0x12f8>
a30012a8:	e1a04000 	mov	r4, r0
a30012ac:	8a00000e 	bhi	a30012ec <mutex_unlock+0x50>
a30012b0:	e7965200 	ldr	r5, [r6, r0, lsl #4]
a30012b4:	e3550000 	cmp	r5, #0	; 0x0
a30012b8:	1a00000b 	bne	a30012ec <mutex_unlock+0x50>
a30012bc:	ebfffee6 	bl	a3000e5c <get_cur_tcb>
a30012c0:	e0862204 	add	r2, r6, r4, lsl #4
a30012c4:	e5923004 	ldr	r3, [r2, #4]
a30012c8:	e3e01000 	mvn	r1, #0	; 0x0
a30012cc:	e1500003 	cmp	r0, r3
a30012d0:	e1a00004 	mov	r0, r4
a30012d4:	0a000005 	beq	a30012f0 <mutex_unlock+0x54>
a30012d8:	e5825004 	str	r5, [r2, #4]
a30012dc:	e5825008 	str	r5, [r2, #8]
a30012e0:	ebffffd8 	bl	a3001248 <mutex_queue_remove>
a30012e4:	e1a01005 	mov	r1, r5
a30012e8:	ea000000 	b	a30012f0 <mutex_unlock+0x54>
a30012ec:	e3e01015 	mvn	r1, #21	; 0x15
a30012f0:	e1a00001 	mov	r0, r1
a30012f4:	e8bd8070 	ldmia	sp!, {r4, r5, r6, pc}
a30012f8:	a30429c8 	movwge	r2, #18888	; 0x49c8

a30012fc <dummy>:
a30012fc:	e598c020 	ldr	ip, [r8, #32]
a3001300:	e59cf000 	ldr	pc, [ip]

a3001304 <getc>:
a3001304:	e598c020 	ldr	ip, [r8, #32]
a3001308:	e59cf004 	ldr	pc, [ip, #4]

a300130c <tstc>:
a300130c:	e598c020 	ldr	ip, [r8, #32]
a3001310:	e59cf008 	ldr	pc, [ip, #8]

a3001314 <putc>:
a3001314:	e598c020 	ldr	ip, [r8, #32]
a3001318:	e59cf00c 	ldr	pc, [ip, #12]

a300131c <puts>:
a300131c:	e598c020 	ldr	ip, [r8, #32]
a3001320:	e59cf010 	ldr	pc, [ip, #16]

a3001324 <printf>:
a3001324:	e598c020 	ldr	ip, [r8, #32]
a3001328:	e59cf014 	ldr	pc, [ip, #20]

a300132c <install_hdlr>:
a300132c:	e598c020 	ldr	ip, [r8, #32]
a3001330:	e59cf018 	ldr	pc, [ip, #24]

a3001334 <free_hdlr>:
a3001334:	e598c020 	ldr	ip, [r8, #32]
a3001338:	e59cf01c 	ldr	pc, [ip, #28]

a300133c <malloc>:
a300133c:	e598c020 	ldr	ip, [r8, #32]
a3001340:	e59cf020 	ldr	pc, [ip, #32]

a3001344 <free>:
a3001344:	e598c020 	ldr	ip, [r8, #32]
a3001348:	e59cf024 	ldr	pc, [ip, #36]

a300134c <udelay>:
a300134c:	e598c020 	ldr	ip, [r8, #32]
a3001350:	e59cf028 	ldr	pc, [ip, #40]

a3001354 <get_timer>:
a3001354:	e598c020 	ldr	ip, [r8, #32]
a3001358:	e59cf02c 	ldr	pc, [ip, #44]

a300135c <vprintf>:
a300135c:	e598c020 	ldr	ip, [r8, #32]
a3001360:	e59cf030 	ldr	pc, [ip, #48]

a3001364 <do_reset>:
a3001364:	e598c020 	ldr	ip, [r8, #32]
a3001368:	e59cf034 	ldr	pc, [ip, #52]

a300136c <getenv>:
a300136c:	e598c020 	ldr	ip, [r8, #32]
a3001370:	e59cf038 	ldr	pc, [ip, #56]

a3001374 <setenv>:
a3001374:	e598c020 	ldr	ip, [r8, #32]
a3001378:	e59cf03c 	ldr	pc, [ip, #60]

a300137c <simple_strtoul>:
a300137c:	e598c020 	ldr	ip, [r8, #32]
a3001380:	e59cf040 	ldr	pc, [ip, #64]

a3001384 <app_startup>:
a3001384:	e59f2018 	ldr	r2, [pc, #24]	; a30013a4 <.text+0x13a4>
a3001388:	ea000001 	b	a3001394 <app_startup+0x10>
a300138c:	e3a03000 	mov	r3, #0	; 0x0
a3001390:	e4823004 	str	r3, [r2], #4
a3001394:	e59f300c 	ldr	r3, [pc, #12]	; a30013a8 <.text+0x13a8>
a3001398:	e1520003 	cmp	r2, r3
a300139c:	3afffffa 	bcc	a300138c <app_startup+0x8>
a30013a0:	e12fff1e 	bx	lr
a30013a4:	a3001968 	movwge	r1, #2408	; 0x968
a30013a8:	a3042bc8 	movwge	r2, #19400	; 0x4bc8

a30013ac <__aeabi_uidiv>:
a30013ac:	e2512001 	subs	r2, r1, #1	; 0x1
a30013b0:	012fff1e 	bxeq	lr
a30013b4:	3a000023 	bcc	a3001448 <__aeabi_uidiv+0x9c>
a30013b8:	e1500001 	cmp	r0, r1
a30013bc:	9a00001a 	bls	a300142c <__aeabi_uidiv+0x80>
a30013c0:	e1110002 	tst	r1, r2
a30013c4:	0a00001b 	beq	a3001438 <__aeabi_uidiv+0x8c>
a30013c8:	e16f3f11 	clz	r3, r1
a30013cc:	e16f2f10 	clz	r2, r0
a30013d0:	e0432002 	sub	r2, r3, r2
a30013d4:	e3a03001 	mov	r3, #1	; 0x1
a30013d8:	e1a01211 	mov	r1, r1, lsl r2
a30013dc:	e1a03213 	mov	r3, r3, lsl r2
a30013e0:	e3a02000 	mov	r2, #0	; 0x0
a30013e4:	e1500001 	cmp	r0, r1
a30013e8:	20400001 	subcs	r0, r0, r1
a30013ec:	21822003 	orrcs	r2, r2, r3
a30013f0:	e15000a1 	cmp	r0, r1, lsr #1
a30013f4:	204000a1 	subcs	r0, r0, r1, lsr #1
a30013f8:	218220a3 	orrcs	r2, r2, r3, lsr #1
a30013fc:	e1500121 	cmp	r0, r1, lsr #2
a3001400:	20400121 	subcs	r0, r0, r1, lsr #2
a3001404:	21822123 	orrcs	r2, r2, r3, lsr #2
a3001408:	e15001a1 	cmp	r0, r1, lsr #3
a300140c:	204001a1 	subcs	r0, r0, r1, lsr #3
a3001410:	218221a3 	orrcs	r2, r2, r3, lsr #3
a3001414:	e3500000 	cmp	r0, #0	; 0x0
a3001418:	11b03223 	movnes	r3, r3, lsr #4
a300141c:	11a01221 	movne	r1, r1, lsr #4
a3001420:	1affffef 	bne	a30013e4 <__aeabi_uidiv+0x38>
a3001424:	e1a00002 	mov	r0, r2
a3001428:	e12fff1e 	bx	lr
a300142c:	03a00001 	moveq	r0, #1	; 0x1
a3001430:	13a00000 	movne	r0, #0	; 0x0
a3001434:	e12fff1e 	bx	lr
a3001438:	e16f2f11 	clz	r2, r1
a300143c:	e262201f 	rsb	r2, r2, #31	; 0x1f
a3001440:	e1a00230 	mov	r0, r0, lsr r2
a3001444:	e12fff1e 	bx	lr
a3001448:	e52de008 	str	lr, [sp, #-8]!
a300144c:	eb000033 	bl	a3001520 <__div0>
a3001450:	e3a00000 	mov	r0, #0	; 0x0
a3001454:	e49df008 	ldr	pc, [sp], #8

a3001458 <__aeabi_uidivmod>:
a3001458:	e92d4003 	stmdb	sp!, {r0, r1, lr}
a300145c:	ebffffd2 	bl	a30013ac <__aeabi_uidiv>
a3001460:	e8bd4006 	ldmia	sp!, {r1, r2, lr}
a3001464:	e0030092 	mul	r3, r2, r0
a3001468:	e0411003 	sub	r1, r1, r3
a300146c:	e12fff1e 	bx	lr

a3001470 <__umodsi3>:
a3001470:	e2512001 	subs	r2, r1, #1	; 0x1
a3001474:	3a000025 	bcc	a3001510 <__umodsi3+0xa0>
a3001478:	11500001 	cmpne	r0, r1
a300147c:	03a00000 	moveq	r0, #0	; 0x0
a3001480:	81110002 	tsthi	r1, r2
a3001484:	00000002 	andeq	r0, r0, r2
a3001488:	912fff1e 	bxls	lr
a300148c:	e16f2f11 	clz	r2, r1
a3001490:	e16f3f10 	clz	r3, r0
a3001494:	e0422003 	sub	r2, r2, r3
a3001498:	e1a01211 	mov	r1, r1, lsl r2
a300149c:	e2522003 	subs	r2, r2, #3	; 0x3
a30014a0:	ba00000e 	blt	a30014e0 <__umodsi3+0x70>
a30014a4:	e1500001 	cmp	r0, r1
a30014a8:	20400001 	subcs	r0, r0, r1
a30014ac:	e15000a1 	cmp	r0, r1, lsr #1
a30014b0:	204000a1 	subcs	r0, r0, r1, lsr #1
a30014b4:	e1500121 	cmp	r0, r1, lsr #2
a30014b8:	20400121 	subcs	r0, r0, r1, lsr #2
a30014bc:	e15001a1 	cmp	r0, r1, lsr #3
a30014c0:	204001a1 	subcs	r0, r0, r1, lsr #3
a30014c4:	e3500001 	cmp	r0, #1	; 0x1
a30014c8:	e1a01221 	mov	r1, r1, lsr #4
a30014cc:	a2522004 	subges	r2, r2, #4	; 0x4
a30014d0:	aafffff3 	bge	a30014a4 <__umodsi3+0x34>
a30014d4:	e3120003 	tst	r2, #3	; 0x3
a30014d8:	13300000 	teqne	r0, #0	; 0x0
a30014dc:	0a00000a 	beq	a300150c <__umodsi3+0x9c>
a30014e0:	e3720002 	cmn	r2, #2	; 0x2
a30014e4:	ba000006 	blt	a3001504 <__umodsi3+0x94>
a30014e8:	0a000002 	beq	a30014f8 <__umodsi3+0x88>
a30014ec:	e1500001 	cmp	r0, r1
a30014f0:	20400001 	subcs	r0, r0, r1
a30014f4:	e1a010a1 	mov	r1, r1, lsr #1
a30014f8:	e1500001 	cmp	r0, r1
a30014fc:	20400001 	subcs	r0, r0, r1
a3001500:	e1a010a1 	mov	r1, r1, lsr #1
a3001504:	e1500001 	cmp	r0, r1
a3001508:	20400001 	subcs	r0, r0, r1
a300150c:	e12fff1e 	bx	lr
a3001510:	e52de008 	str	lr, [sp, #-8]!
a3001514:	eb000001 	bl	a3001520 <__div0>
a3001518:	e3a00000 	mov	r0, #0	; 0x0
a300151c:	e49df008 	ldr	pc, [sp], #8

a3001520 <__div0>:
a3001520:	e92d4002 	stmdb	sp!, {r1, lr}
a3001524:	e3a00008 	mov	r0, #8	; 0x8
a3001528:	ebfffb37 	bl	a300020c <raise>
a300152c:	e8bd8002 	ldmia	sp!, {r1, pc}
Disassembly of section .rodata:

a3001530 <dev_freq-0x11c>:
a3001530:	494e4150 	stmmidb	lr, {r4, r6, r8, lr}^
a3001534:	00002143 	andeq	r2, r0, r3, asr #2
a3001538:	69766944 	ldmvsdb	r6!, {r2, r6, r8, fp, sp, lr}^
a300153c:	62206564 	eorvs	r6, r0, #419430400	; 0x19000000
a3001540:	657a2079 	ldrvsb	r2, [sl, #-121]!
a3001544:	2d206f72 	stccs	15, cr6, [r0, #-456]!
a3001548:	6e49202d 	cdpvs	0, 4, cr2, cr9, cr13, {1}
a300154c:	72656b20 	rsbvc	r6, r5, #32768	; 0x8000
a3001550:	0a6c656e 	beq	a4b1ab10 <__bss_end__+0x1ad7f48>
a3001554:	00000000 	andeq	r0, r0, r0
a3001558:	2d2d2d2e 	stccs	13, cr2, [sp, #-184]!
a300155c:	2d2d2d2d 	stccs	13, cr2, [sp, #-180]!
a3001560:	2d2d2d2d 	stccs	13, cr2, [sp, #-180]!
a3001564:	2d2d2d2d 	stccs	13, cr2, [sp, #-180]!
a3001568:	2d2d2d2d 	stccs	13, cr2, [sp, #-180]!
a300156c:	2d2d2d2d 	stccs	13, cr2, [sp, #-180]!
a3001570:	2d2d2d2d 	stccs	13, cr2, [sp, #-180]!
a3001574:	2d2d2d2d 	stccs	13, cr2, [sp, #-180]!
a3001578:	2d2d2d2d 	stccs	13, cr2, [sp, #-180]!
a300157c:	2d2d2d2d 	stccs	13, cr2, [sp, #-180]!
a3001580:	2d2d2d2d 	stccs	13, cr2, [sp, #-180]!
a3001584:	2d2d2d2d 	stccs	13, cr2, [sp, #-180]!
a3001588:	2d2d2d2d 	stccs	13, cr2, [sp, #-180]!
a300158c:	2d2d2d2d 	stccs	13, cr2, [sp, #-180]!
a3001590:	2d2d2d2d 	stccs	13, cr2, [sp, #-180]!
a3001594:	2d2d2d2d 	stccs	13, cr2, [sp, #-180]!
a3001598:	2d2d2d2d 	stccs	13, cr2, [sp, #-180]!
a300159c:	2d2d2d2d 	stccs	13, cr2, [sp, #-180]!
a30015a0:	2d2d2d2d 	stccs	13, cr2, [sp, #-180]!
a30015a4:	00000a2e 	andeq	r0, r0, lr, lsr #20
a30015a8:	3025207c 	eorcc	r2, r5, ip, ror r0
a30015ac:	20786c38 	rsbcss	r6, r8, r8, lsr ip
a30015b0:	20202020 	eorcs	r2, r0, r0, lsr #32
a30015b4:	00000020 	andeq	r0, r0, r0, lsr #32
a30015b8:	00000020 	andeq	r0, r0, r0, lsr #32
a30015bc:	00000000 	andeq	r0, r0, r0
a30015c0:	00002020 	andeq	r2, r0, r0, lsr #32
a30015c4:	00000000 	andeq	r0, r0, r0
a30015c8:	78323025 	ldmvcda	r2!, {r0, r2, r5, ip, sp}
a30015cc:	00000000 	andeq	r0, r0, r0
a30015d0:	20202020 	eorcs	r2, r0, r0, lsr #32
a30015d4:	00202020 	eoreq	r2, r0, r0, lsr #32
a30015d8:	00006325 	andeq	r6, r0, r5, lsr #6
a30015dc:	00000000 	andeq	r0, r0, r0
a30015e0:	000a7c20 	andeq	r7, sl, r0, lsr #24
a30015e4:	00000000 	andeq	r0, r0, r0
a30015e8:	2d2d2d60 	stccs	13, cr2, [sp, #-384]!
a30015ec:	2d2d2d2d 	stccs	13, cr2, [sp, #-180]!
a30015f0:	2d2d2d2d 	stccs	13, cr2, [sp, #-180]!
a30015f4:	2d2d2d2d 	stccs	13, cr2, [sp, #-180]!
a30015f8:	2d2d2d2d 	stccs	13, cr2, [sp, #-180]!
a30015fc:	2d2d2d2d 	stccs	13, cr2, [sp, #-180]!
a3001600:	2d2d2d2d 	stccs	13, cr2, [sp, #-180]!
a3001604:	2d2d2d2d 	stccs	13, cr2, [sp, #-180]!
a3001608:	2d2d2d2d 	stccs	13, cr2, [sp, #-180]!
a300160c:	2d2d2d2d 	stccs	13, cr2, [sp, #-180]!
a3001610:	2d2d2d2d 	stccs	13, cr2, [sp, #-180]!
a3001614:	2d2d2d2d 	stccs	13, cr2, [sp, #-180]!
a3001618:	2d2d2d2d 	stccs	13, cr2, [sp, #-180]!
a300161c:	2d2d2d2d 	stccs	13, cr2, [sp, #-180]!
a3001620:	2d2d2d2d 	stccs	13, cr2, [sp, #-180]!
a3001624:	2d2d2d2d 	stccs	13, cr2, [sp, #-180]!
a3001628:	2d2d2d2d 	stccs	13, cr2, [sp, #-180]!
a300162c:	2d2d2d2d 	stccs	13, cr2, [sp, #-180]!
a3001630:	2d2d2d2d 	stccs	13, cr2, [sp, #-180]!
a3001634:	00000a27 	andeq	r0, r0, r7, lsr #20
a3001638:	65656c73 	strvsb	r6, [r5, #-3187]!
a300163c:	65757170 	ldrvsb	r7, [r5, #-368]!
a3001640:	775f6575 	undefined
a3001644:	0a656b61 	beq	a495c3d0 <__bss_end__+0x1919808>
a3001648:	00000000 	andeq	r0, r0, r0

a300164c <dev_freq>:
a300164c:	00000064 	andeq	r0, r0, r4, rrx
a3001650:	000000c8 	andeq	r0, r0, r8, asr #1
a3001654:	000001f4 	streqd	r0, [r0], -r4
a3001658:	00000032 	andeq	r0, r0, r2, lsr r0
a300165c:	00000000 	andeq	r0, r0, r0
a3001660:	61766e49 	cmnvs	r6, r9, asr #28
a3001664:	2064696c 	rsbcs	r6, r4, ip, ror #18
a3001668:	20495753 	subcs	r5, r9, r3, asr r7
a300166c:	6c6c6163 	stfvse	f6, [ip], #-396
a3001670:	00006465 	andeq	r6, r0, r5, ror #8
a3001674:	00000000 	andeq	r0, r0, r0
a3001678:	656c6966 	strvsb	r6, [ip, #-2406]!
a300167c:	73656420 	cmnvc	r5, #536870912	; 0x20000000
a3001680:	70697263 	rsbvc	r7, r9, r3, ror #4
a3001684:	20726f74 	rsbcss	r6, r2, r4, ror pc
a3001688:	6f727265 	svcvs	0x00727265
a300168c:	00002172 	andeq	r2, r0, r2, ror r1
a3001690:	6e72654b 	cdpvs	5, 7, cr6, cr2, cr11, {2}
a3001694:	70206c65 	eorvc	r6, r0, r5, ror #24
a3001698:	63696e61 	cmnvs	r9, #1552	; 0x610
a300169c:	6e69203a 	mcrvs	0, 3, r2, cr9, cr10, {1}
a30016a0:	696c6176 	stmvsdb	ip!, {r1, r2, r4, r5, r6, r8, sp, lr}^
a30016a4:	79732064 	ldmvcdb	r3!, {r2, r5, r6, sp}^
a30016a8:	6c616373 	stcvsl	3, cr6, [r1], #-460
a30016ac:	2d2d206c 	stccs	0, cr2, [sp, #-432]!
a30016b0:	25783020 	ldrcsb	r3, [r8, #-32]!
a30016b4:	0a783830 	beq	a4e0f77c <__bss_end__+0x1dccbb4>
	...
a30016c0:	73610909 	cmnvc	r1, #147456	; 0x24000
a30016c4:	72635f6b 	rsbvc	r5, r3, #428	; 0x1ac
a30016c8:	65746165 	ldrvsb	r6, [r4, #-357]!
a30016cc:	0000000a 	andeq	r0, r0, sl
a30016d0:	61742061 	cmnvs	r4, r1, rrx
a30016d4:	63206b73 	teqvs	r0, #117760	; 0x1cc00
a30016d8:	2074736f 	rsbcss	r7, r4, pc, ror #6
a30016dc:	30207369 	eorcc	r7, r0, r9, ror #6
a30016e0:	0000000a 	andeq	r0, r0, sl
a30016e4:	00000000 	andeq	r0, r0, r0
a30016e8:	61742061 	cmnvs	r4, r1, rrx
a30016ec:	70206b73 	eorvc	r6, r0, r3, ror fp
a30016f0:	6f697265 	svcvs	0x00697265
a30016f4:	73692064 	cmnvc	r9, #100	; 0x64
a30016f8:	000a3020 	andeq	r3, sl, r0, lsr #32
a30016fc:	00000000 	andeq	r0, r0, r0
a3001700:	3d3d3d3d 	ldccc	13, cr3, [sp, #-244]!
a3001704:	3d3d3d3d 	ldccc	13, cr3, [sp, #-244]!
a3001708:	3d3d3d3d 	ldccc	13, cr3, [sp, #-244]!
a300170c:	3d3d3d3d 	ldccc	13, cr3, [sp, #-244]!
a3001710:	4243543d 	submi	r5, r3, #1023410176	; 0x3d000000
a3001714:	42454420 	submi	r4, r5, #536870912	; 0x20000000
a3001718:	000a4755 	andeq	r4, sl, r5, asr r7
a300171c:	00000000 	andeq	r0, r0, r0
a3001720:	6974614e 	ldmvsdb	r4!, {r1, r2, r3, r6, r8, sp, lr}^
a3001724:	50206576 	eorpl	r6, r0, r6, ror r5
a3001728:	3a6f6972 	bcc	a4bdbcf8 <__bss_end__+0x1b99130>
a300172c:	000a6425 	andeq	r6, sl, r5, lsr #8
a3001730:	72727543 	rsbvcs	r7, r2, #281018368	; 0x10c00000
a3001734:	20746e65 	rsbcss	r6, r4, r5, ror #28
a3001738:	6f697250 	svcvs	0x00697250
a300173c:	0a64253a 	beq	a490ac2c <__bss_end__+0x18c8064>
	...
a3001748:	253a3472 	ldrcs	r3, [sl, #-1138]!
a300174c:	64252878 	strvst	r2, [r5], #-2168
a3001750:	00000a29 	andeq	r0, r0, r9, lsr #20
a3001754:	00000000 	andeq	r0, r0, r0
a3001758:	253a3572 	ldrcs	r3, [sl, #-1394]!
a300175c:	64252878 	strvst	r2, [r5], #-2168
a3001760:	00000a29 	andeq	r0, r0, r9, lsr #20
a3001764:	00000000 	andeq	r0, r0, r0
a3001768:	253a3672 	ldrcs	r3, [sl, #-1650]!
a300176c:	64252878 	strvst	r2, [r5], #-2168
a3001770:	00000a29 	andeq	r0, r0, r9, lsr #20
a3001774:	00000000 	andeq	r0, r0, r0
a3001778:	253a3772 	ldrcs	r3, [sl, #-1906]!
a300177c:	64252878 	strvst	r2, [r5], #-2168
a3001780:	00000a29 	andeq	r0, r0, r9, lsr #20
a3001784:	00000000 	andeq	r0, r0, r0
a3001788:	253a3872 	ldrcs	r3, [sl, #-2162]!
a300178c:	64252878 	strvst	r2, [r5], #-2168
a3001790:	00000a29 	andeq	r0, r0, r9, lsr #20
a3001794:	00000000 	andeq	r0, r0, r0
a3001798:	253a3972 	ldrcs	r3, [sl, #-2418]!
a300179c:	64252878 	strvst	r2, [r5], #-2168
a30017a0:	00000a29 	andeq	r0, r0, r9, lsr #20
a30017a4:	00000000 	andeq	r0, r0, r0
a30017a8:	3a303172 	bcc	a3c0dd78 <__bss_end__+0xbcb1b0>
a30017ac:	25287825 	strcs	r7, [r8, #-2085]!
a30017b0:	000a2964 	andeq	r2, sl, r4, ror #18
a30017b4:	00000000 	andeq	r0, r0, r0
a30017b8:	3a313172 	bcc	a3c4dd88 <__bss_end__+0xc0b1c0>
a30017bc:	25287825 	strcs	r7, [r8, #-2085]!
a30017c0:	000a2964 	andeq	r2, sl, r4, ror #18
a30017c4:	00000000 	andeq	r0, r0, r0
a30017c8:	253a7073 	ldrcs	r7, [sl, #-115]!
a30017cc:	00000a70 	andeq	r0, r0, r0, ror sl
a30017d0:	253a726c 	ldrcs	r7, [sl, #-620]!
a30017d4:	00000a70 	andeq	r0, r0, r0, ror sl
a30017d8:	70736964 	rsbvcs	r6, r3, r4, ror #18
a30017dc:	68637461 	stmvsda	r3!, {r0, r5, r6, sl, ip, sp, lr}^
a30017e0:	7661735f 	undefined
a30017e4:	00000a65 	andeq	r0, r0, r5, ror #20
a30017e8:	3d3d3d3d 	ldccc	13, cr3, [sp, #-244]!
a30017ec:	3d3d3d3d 	ldccc	13, cr3, [sp, #-244]!
a30017f0:	3d3d3d3d 	ldccc	13, cr3, [sp, #-244]!
a30017f4:	43203d3d 	teqmi	r0, #3904	; 0xf40
a30017f8:	65727275 	ldrvsb	r7, [r2, #-629]!
a30017fc:	5420746e 	strplt	r7, [r0], #-1134
a3001800:	000a4243 	andeq	r4, sl, r3, asr #4
a3001804:	00000000 	andeq	r0, r0, r0
a3001808:	3d3d3d3d 	ldccc	13, cr3, [sp, #-244]!
a300180c:	3d3d3d3d 	ldccc	13, cr3, [sp, #-244]!
a3001810:	3d3d3d3d 	ldccc	13, cr3, [sp, #-244]!
a3001814:	4e203d3d 	mcrmi	13, 1, r3, cr0, cr13, {1}
a3001818:	20747865 	rsbcss	r7, r4, r5, ror #16
a300181c:	0a424354 	beq	a4092574 <__bss_end__+0x104f9ac>
	...
a3001828:	756f7267 	strvcb	r7, [pc, #-615]!	; a30015c9 <__div0+0xa9>
a300182c:	6e757270 	mrcvs	2, 3, r7, cr5, cr0, {3}
a3001830:	73746962 	cmnvc	r4, #1605632	; 0x188000
a3001834:	0a75253d 	beq	a4d4ad30 <__bss_end__+0x1d08168>
	...
a3001840:	5f6e7572 	svcpl	0x006e7572
a3001844:	73746962 	cmnvc	r4, #1605632	; 0x188000
a3001848:	5d64255b 	cfstr64pl	mvdx2, [r4, #-364]!
a300184c:	0975253d 	ldmeqdb	r5!, {r0, r2, r3, r4, r5, r8, sl, sp}^
	...
a3001858:	00000a0a 	andeq	r0, r0, sl, lsl #20
a300185c:	00000000 	andeq	r0, r0, r0

a3001860 <prio_unmap_table>:
a3001860:	00010000 	andeq	r0, r1, r0
a3001864:	00010002 	andeq	r0, r1, r2
a3001868:	00010003 	andeq	r0, r1, r3
a300186c:	00010002 	andeq	r0, r1, r2
a3001870:	00010004 	andeq	r0, r1, r4
a3001874:	00010002 	andeq	r0, r1, r2
a3001878:	00010003 	andeq	r0, r1, r3
a300187c:	00010002 	andeq	r0, r1, r2
a3001880:	00010005 	andeq	r0, r1, r5
a3001884:	00010002 	andeq	r0, r1, r2
a3001888:	00010003 	andeq	r0, r1, r3
a300188c:	00010002 	andeq	r0, r1, r2
a3001890:	00010004 	andeq	r0, r1, r4
a3001894:	00010002 	andeq	r0, r1, r2
a3001898:	00010003 	andeq	r0, r1, r3
a300189c:	00010002 	andeq	r0, r1, r2
a30018a0:	00010006 	andeq	r0, r1, r6
a30018a4:	00010002 	andeq	r0, r1, r2
a30018a8:	00010003 	andeq	r0, r1, r3
a30018ac:	00010002 	andeq	r0, r1, r2
a30018b0:	00010004 	andeq	r0, r1, r4
a30018b4:	00010002 	andeq	r0, r1, r2
a30018b8:	00010003 	andeq	r0, r1, r3
a30018bc:	00010002 	andeq	r0, r1, r2
a30018c0:	00010005 	andeq	r0, r1, r5
a30018c4:	00010002 	andeq	r0, r1, r2
a30018c8:	00010003 	andeq	r0, r1, r3
a30018cc:	00010002 	andeq	r0, r1, r2
a30018d0:	00010004 	andeq	r0, r1, r4
a30018d4:	00010002 	andeq	r0, r1, r2
a30018d8:	00010003 	andeq	r0, r1, r3
a30018dc:	00010002 	andeq	r0, r1, r2
a30018e0:	00010007 	andeq	r0, r1, r7
a30018e4:	00010002 	andeq	r0, r1, r2
a30018e8:	00010003 	andeq	r0, r1, r3
a30018ec:	00010002 	andeq	r0, r1, r2
a30018f0:	00010004 	andeq	r0, r1, r4
a30018f4:	00010002 	andeq	r0, r1, r2
a30018f8:	00010003 	andeq	r0, r1, r3
a30018fc:	00010002 	andeq	r0, r1, r2
a3001900:	00010005 	andeq	r0, r1, r5
a3001904:	00010002 	andeq	r0, r1, r2
a3001908:	00010003 	andeq	r0, r1, r3
a300190c:	00010002 	andeq	r0, r1, r2
a3001910:	00010004 	andeq	r0, r1, r4
a3001914:	00010002 	andeq	r0, r1, r2
a3001918:	00010003 	andeq	r0, r1, r3
a300191c:	00010002 	andeq	r0, r1, r2
a3001920:	00010006 	andeq	r0, r1, r6
a3001924:	00010002 	andeq	r0, r1, r2
a3001928:	00010003 	andeq	r0, r1, r3
a300192c:	00010002 	andeq	r0, r1, r2
a3001930:	00010004 	andeq	r0, r1, r4
a3001934:	00010002 	andeq	r0, r1, r2
a3001938:	00010003 	andeq	r0, r1, r3
a300193c:	00010002 	andeq	r0, r1, r2
a3001940:	00010005 	andeq	r0, r1, r5
a3001944:	00010002 	andeq	r0, r1, r2
a3001948:	00010003 	andeq	r0, r1, r3
a300194c:	00010002 	andeq	r0, r1, r2
a3001950:	00010004 	andeq	r0, r1, r4
a3001954:	00010002 	andeq	r0, r1, r2
a3001958:	00010003 	andeq	r0, r1, r3
a300195c:	00010002 	andeq	r0, r1, r2
Disassembly of section .data:

a3001960 <SVC_r8>:
a3001960:	00000001 	andeq	r0, r0, r1

a3001964 <UBOOT_SP>:
a3001964:	00000001 	andeq	r0, r0, r1
Disassembly of section .bss:

a3001968 <devices>:
	...

a3001988 <irq_stack_lo>:
	...

a3001990 <irq_stack_hi>:
a3001990:	00000000 	andeq	r0, r0, r0

a3001994 <run_list>:
	...

a3001a94 <run_bits>:
	...

a3001a9c <group_run_bits>:
a3001a9c:	00000000 	andeq	r0, r0, r0

a3001aa0 <UBOOT_IRQ_ADDR>:
a3001aa0:	00000000 	andeq	r0, r0, r0

a3001aa4 <global_data>:
a3001aa4:	00000000 	andeq	r0, r0, r0

a3001aa8 <UBOOT_IRQ_INST1>:
a3001aa8:	00000000 	andeq	r0, r0, r0

a3001aac <UBOOT_SWI_INST1>:
a3001aac:	00000000 	andeq	r0, r0, r0

a3001ab0 <UBOOT_SWI_INST2>:
a3001ab0:	00000000 	andeq	r0, r0, r0

a3001ab4 <UBOOT_IRQ_INST2>:
a3001ab4:	00000000 	andeq	r0, r0, r0

a3001ab8 <UBOOT_SWI_ADDR>:
a3001ab8:	00000000 	andeq	r0, r0, r0

a3001abc <osmr_count>:
a3001abc:	00000000 	andeq	r0, r0, r0

a3001ac0 <num_timer_tick>:
a3001ac0:	00000000 	andeq	r0, r0, r0

a3001ac4 <system_ptasks>:
	...

a3001bc8 <system_tcb>:
	...

a30429c8 <gtMutex>:
	...
Disassembly of section .comment:

00000000 <.comment>:
   0:	43434700 	movtmi	r4, #14080	; 0x3700
   4:	4728203a 	undefined
   8:	2029554e 	eorcs	r5, r9, lr, asr #10
   c:	2e312e34 	mrccs	14, 1, r2, cr1, cr4, {1}
  10:	47000031 	smladxmi	r0, r1, r0, r0
  14:	203a4343 	eorcss	r4, sl, r3, asr #6
  18:	554e4728 	strplb	r4, [lr, #-1832]
  1c:	2e342029 	cdpcs	0, 3, cr2, cr4, cr9, {1}
  20:	00312e31 	eoreqs	r2, r1, r1, lsr lr
  24:	43434700 	movtmi	r4, #14080	; 0x3700
  28:	4728203a 	undefined
  2c:	2029554e 	eorcs	r5, r9, lr, asr #10
  30:	2e312e34 	mrccs	14, 1, r2, cr1, cr4, {1}
  34:	47000031 	smladxmi	r0, r1, r0, r0
  38:	203a4343 	eorcss	r4, sl, r3, asr #6
  3c:	554e4728 	strplb	r4, [lr, #-1832]
  40:	2e342029 	cdpcs	0, 3, cr2, cr4, cr9, {1}
  44:	00312e31 	eoreqs	r2, r1, r1, lsr lr
  48:	43434700 	movtmi	r4, #14080	; 0x3700
  4c:	4728203a 	undefined
  50:	2029554e 	eorcs	r5, r9, lr, asr #10
  54:	2e312e34 	mrccs	14, 1, r2, cr1, cr4, {1}
  58:	47000031 	smladxmi	r0, r1, r0, r0
  5c:	203a4343 	eorcss	r4, sl, r3, asr #6
  60:	554e4728 	strplb	r4, [lr, #-1832]
  64:	2e342029 	cdpcs	0, 3, cr2, cr4, cr9, {1}
  68:	00312e31 	eoreqs	r2, r1, r1, lsr lr
  6c:	43434700 	movtmi	r4, #14080	; 0x3700
  70:	4728203a 	undefined
  74:	2029554e 	eorcs	r5, r9, lr, asr #10
  78:	2e312e34 	mrccs	14, 1, r2, cr1, cr4, {1}
  7c:	47000031 	smladxmi	r0, r1, r0, r0
  80:	203a4343 	eorcss	r4, sl, r3, asr #6
  84:	554e4728 	strplb	r4, [lr, #-1832]
  88:	2e342029 	cdpcs	0, 3, cr2, cr4, cr9, {1}
  8c:	00312e31 	eoreqs	r2, r1, r1, lsr lr
  90:	43434700 	movtmi	r4, #14080	; 0x3700
  94:	4728203a 	undefined
  98:	2029554e 	eorcs	r5, r9, lr, asr #10
  9c:	2e312e34 	mrccs	14, 1, r2, cr1, cr4, {1}
  a0:	47000031 	smladxmi	r0, r1, r0, r0
  a4:	203a4343 	eorcss	r4, sl, r3, asr #6
  a8:	554e4728 	strplb	r4, [lr, #-1832]
  ac:	2e342029 	cdpcs	0, 3, cr2, cr4, cr9, {1}
  b0:	00312e31 	eoreqs	r2, r1, r1, lsr lr
  b4:	43434700 	movtmi	r4, #14080	; 0x3700
  b8:	4728203a 	undefined
  bc:	2029554e 	eorcs	r5, r9, lr, asr #10
  c0:	2e312e34 	mrccs	14, 1, r2, cr1, cr4, {1}
  c4:	47000031 	smladxmi	r0, r1, r0, r0
  c8:	203a4343 	eorcss	r4, sl, r3, asr #6
  cc:	554e4728 	strplb	r4, [lr, #-1832]
  d0:	2e342029 	cdpcs	0, 3, cr2, cr4, cr9, {1}
  d4:	00312e31 	eoreqs	r2, r1, r1, lsr lr
  d8:	43434700 	movtmi	r4, #14080	; 0x3700
  dc:	4728203a 	undefined
  e0:	2029554e 	eorcs	r5, r9, lr, asr #10
  e4:	2e312e34 	mrccs	14, 1, r2, cr1, cr4, {1}
  e8:	47000031 	smladxmi	r0, r1, r0, r0
  ec:	203a4343 	eorcss	r4, sl, r3, asr #6
  f0:	554e4728 	strplb	r4, [lr, #-1832]
  f4:	2e342029 	cdpcs	0, 3, cr2, cr4, cr9, {1}
  f8:	00312e31 	eoreqs	r2, r1, r1, lsr lr
  fc:	43434700 	movtmi	r4, #14080	; 0x3700
 100:	4728203a 	undefined
 104:	2029554e 	eorcs	r5, r9, lr, asr #10
 108:	2e312e34 	mrccs	14, 1, r2, cr1, cr4, {1}
 10c:	47000031 	smladxmi	r0, r1, r0, r0
 110:	203a4343 	eorcss	r4, sl, r3, asr #6
 114:	554e4728 	strplb	r4, [lr, #-1832]
 118:	2e342029 	cdpcs	0, 3, cr2, cr4, cr9, {1}
 11c:	00312e31 	eoreqs	r2, r1, r1, lsr lr
 120:	43434700 	movtmi	r4, #14080	; 0x3700
 124:	4728203a 	undefined
 128:	2029554e 	eorcs	r5, r9, lr, asr #10
 12c:	2e312e34 	mrccs	14, 1, r2, cr1, cr4, {1}
 130:	47000031 	smladxmi	r0, r1, r0, r0
 134:	203a4343 	eorcss	r4, sl, r3, asr #6
 138:	554e4728 	strplb	r4, [lr, #-1832]
 13c:	2e342029 	cdpcs	0, 3, cr2, cr4, cr9, {1}
 140:	00312e31 	eoreqs	r2, r1, r1, lsr lr
 144:	43434700 	movtmi	r4, #14080	; 0x3700
 148:	4728203a 	undefined
 14c:	2029554e 	eorcs	r5, r9, lr, asr #10
 150:	2e312e34 	mrccs	14, 1, r2, cr1, cr4, {1}
 154:	47000031 	smladxmi	r0, r1, r0, r0
 158:	203a4343 	eorcss	r4, sl, r3, asr #6
 15c:	554e4728 	strplb	r4, [lr, #-1832]
 160:	2e342029 	cdpcs	0, 3, cr2, cr4, cr9, {1}
 164:	00312e31 	eoreqs	r2, r1, r1, lsr lr
 168:	43434700 	movtmi	r4, #14080	; 0x3700
 16c:	4728203a 	undefined
 170:	2029554e 	eorcs	r5, r9, lr, asr #10
 174:	2e312e34 	mrccs	14, 1, r2, cr1, cr4, {1}
 178:	47000031 	smladxmi	r0, r1, r0, r0
 17c:	203a4343 	eorcss	r4, sl, r3, asr #6
 180:	554e4728 	strplb	r4, [lr, #-1832]
 184:	2e342029 	cdpcs	0, 3, cr2, cr4, cr9, {1}
 188:	00312e31 	eoreqs	r2, r1, r1, lsr lr
Disassembly of section .debug_aranges:

00000000 <.debug_aranges>:
   0:	0000001c 	andeq	r0, r0, ip, lsl r0
   4:	00000002 	andeq	r0, r0, r2
   8:	00040000 	andeq	r0, r4, r0
   c:	00000000 	andeq	r0, r0, r0
  10:	a3000008 	movwge	r0, #8	; 0x8
  14:	0000002c 	andeq	r0, r0, ip, lsr #32
	...
  20:	0000001c 	andeq	r0, r0, ip, lsl r0
  24:	00ff0002 	rsceqs	r0, pc, r2
  28:	00040000 	andeq	r0, r4, r0
  2c:	00000000 	andeq	r0, r0, r0
  30:	a3000034 	movwge	r0, #52	; 0x34
  34:	00000150 	andeq	r0, r0, r0, asr r1
	...
  40:	0000001c 	andeq	r0, r0, ip, lsl r0
  44:	042a0002 	streqt	r0, [sl], #-2
  48:	00040000 	andeq	r0, r4, r0
  4c:	00000000 	andeq	r0, r0, r0
  50:	a3000184 	movwge	r0, #388	; 0x184
  54:	00000044 	andeq	r0, r0, r4, asr #32
	...
  60:	0000001c 	andeq	r0, r0, ip, lsl r0
  64:	05230002 	streq	r0, [r3, #-2]!
  68:	00040000 	andeq	r0, r4, r0
  6c:	00000000 	andeq	r0, r0, r0
  70:	a30001c8 	movwge	r0, #456	; 0x1c8
  74:	00000044 	andeq	r0, r0, r4, asr #32
	...
  80:	0000001c 	andeq	r0, r0, ip, lsl r0
  84:	06210002 	streqt	r0, [r1], -r2
  88:	00040000 	andeq	r0, r4, r0
  8c:	00000000 	andeq	r0, r0, r0
  90:	a300020c 	movwge	r0, #524	; 0x20c
  94:	00000014 	andeq	r0, r0, r4, lsl r0
	...
  a0:	0000001c 	andeq	r0, r0, ip, lsl r0
  a4:	069e0002 	ldreq	r0, [lr], r2
  a8:	00040000 	andeq	r0, r4, r0
  ac:	00000000 	andeq	r0, r0, r0
  b0:	a3000220 	movwge	r0, #544	; 0x220
  b4:	0000018c 	andeq	r0, r0, ip, lsl #3
	...
  c0:	0000001c 	andeq	r0, r0, ip, lsl r0
  c4:	09450002 	stmeqdb	r5, {r1}^
  c8:	00040000 	andeq	r0, r4, r0
  cc:	00000000 	andeq	r0, r0, r0
  d0:	a30003ac 	movwge	r0, #940	; 0x3ac
  d4:	00000104 	andeq	r0, r0, r4, lsl #2
	...
  e0:	0000001c 	andeq	r0, r0, ip, lsl r0
  e4:	0a350002 	beq	d400f4 <_start-0xa22bff0c>
  e8:	00040000 	andeq	r0, r4, r0
  ec:	00000000 	andeq	r0, r0, r0
  f0:	a30004b0 	movwge	r0, #1200	; 0x4b0
  f4:	00000150 	andeq	r0, r0, r0, asr r1
	...
 100:	0000001c 	andeq	r0, r0, ip, lsl r0
 104:	0e1f0002 	wxoreq	wr0, wr15, wr2
 108:	00040000 	andeq	r0, r4, r0
 10c:	00000000 	andeq	r0, r0, r0
 110:	a3000600 	movwge	r0, #1536	; 0x600
 114:	00000040 	andeq	r0, r0, r0, asr #32
	...
 120:	0000001c 	andeq	r0, r0, ip, lsl r0
 124:	0f850002 	svceq	0x00850002
 128:	00040000 	andeq	r0, r4, r0
 12c:	00000000 	andeq	r0, r0, r0
 130:	a3000640 	movwge	r0, #1600	; 0x640
 134:	00000008 	andeq	r0, r0, r8
	...
 140:	0000001c 	andeq	r0, r0, ip, lsl r0
 144:	101f0002 	andnes	r0, pc, r2
 148:	00040000 	andeq	r0, r4, r0
 14c:	00000000 	andeq	r0, r0, r0
 150:	a30006a8 	movwge	r0, #1704	; 0x6a8
 154:	00000004 	andeq	r0, r0, r4
	...
 160:	0000001c 	andeq	r0, r0, ip, lsl r0
 164:	10a10002 	adcne	r0, r1, r2
 168:	00040000 	andeq	r0, r4, r0
 16c:	00000000 	andeq	r0, r0, r0
 170:	a30006ac 	movwge	r0, #1708	; 0x6ac
 174:	000000e8 	andeq	r0, r0, r8, ror #1
	...
 180:	0000001c 	andeq	r0, r0, ip, lsl r0
 184:	12330002 	eornes	r0, r3, #2	; 0x2
 188:	00040000 	andeq	r0, r4, r0
 18c:	00000000 	andeq	r0, r0, r0
 190:	a30007e4 	movwge	r0, #2020	; 0x7e4
 194:	0000007c 	andeq	r0, r0, ip, ror r0
	...
 1a0:	0000001c 	andeq	r0, r0, ip, lsl r0
 1a4:	14450002 	strneb	r0, [r5], #-2
 1a8:	00040000 	andeq	r0, r4, r0
 1ac:	00000000 	andeq	r0, r0, r0
 1b0:	a30008b0 	movwge	r0, #2224	; 0x8b0
 1b4:	0000014c 	andeq	r0, r0, ip, asr #2
	...
 1c0:	0000001c 	andeq	r0, r0, ip, lsl r0
 1c4:	15cd0002 	strneb	r0, [sp, #2]
 1c8:	00040000 	andeq	r0, r4, r0
 1cc:	00000000 	andeq	r0, r0, r0
 1d0:	a30009fc 	movwge	r0, #2556	; 0x9fc
 1d4:	00000184 	andeq	r0, r0, r4, lsl #3
	...
 1e0:	0000001c 	andeq	r0, r0, ip, lsl r0
 1e4:	19560002 	ldmnedb	r6, {r1}^
 1e8:	00040000 	andeq	r0, r4, r0
 1ec:	00000000 	andeq	r0, r0, r0
 1f0:	a3000b80 	movwge	r0, #2944	; 0xb80
 1f4:	00000048 	andeq	r0, r0, r8, asr #32
	...
 200:	0000001c 	andeq	r0, r0, ip, lsl r0
 204:	1a430002 	bne	10c0214 <_start-0xa1f3fdec>
 208:	00040000 	andeq	r0, r4, r0
 20c:	00000000 	andeq	r0, r0, r0
 210:	a3000bc8 	movwge	r0, #3016	; 0xbc8
 214:	00000268 	andeq	r0, r0, r8, ror #4
	...
 220:	0000001c 	andeq	r0, r0, ip, lsl r0
 224:	1e2c0002 	cdpne	0, 2, cr0, cr12, cr2, {0}
 228:	00040000 	andeq	r0, r4, r0
 22c:	00000000 	andeq	r0, r0, r0
 230:	a3000e30 	movwge	r0, #3632	; 0xe30
 234:	00000008 	andeq	r0, r0, r8
	...
 240:	0000001c 	andeq	r0, r0, ip, lsl r0
 244:	1f630002 	svcne	0x00630002
 248:	00040000 	andeq	r0, r4, r0
 24c:	00000000 	andeq	r0, r0, r0
 250:	a3000e38 	movwge	r0, #3640	; 0xe38
 254:	00000110 	andeq	r0, r0, r0, lsl r1
	...
 260:	0000001c 	andeq	r0, r0, ip, lsl r0
 264:	22470002 	subcs	r0, r7, #2	; 0x2
 268:	00040000 	andeq	r0, r4, r0
 26c:	00000000 	andeq	r0, r0, r0
 270:	a3000f8c 	movwge	r0, #3980	; 0xf8c
 274:	00000184 	andeq	r0, r0, r4, lsl #3
	...
 280:	0000001c 	andeq	r0, r0, ip, lsl r0
 284:	259b0002 	ldrcs	r0, [fp, #2]
 288:	00040000 	andeq	r0, r4, r0
 28c:	00000000 	andeq	r0, r0, r0
 290:	a3001110 	movwge	r1, #272	; 0x110
 294:	000001ec 	andeq	r0, r0, ip, ror #3
	...
 2a0:	0000001c 	andeq	r0, r0, ip, lsl r0
 2a4:	29470002 	stmcsdb	r7, {r1}^
 2a8:	00040000 	andeq	r0, r4, r0
 2ac:	00000000 	andeq	r0, r0, r0
 2b0:	a30012fc 	movwge	r1, #764	; 0x2fc
 2b4:	000000b0 	streqh	r0, [r0], -r0
	...
 2c0:	0000001c 	andeq	r0, r0, ip, lsl r0
 2c4:	2a050002 	bcs	1402d4 <_start-0xa2ebfd2c>
 2c8:	00040000 	andeq	r0, r4, r0
 2cc:	00000000 	andeq	r0, r0, r0
 2d0:	a30013ac 	movwge	r1, #940	; 0x3ac
 2d4:	000000c4 	andeq	r0, r0, r4, asr #1
	...
 2e0:	0000001c 	andeq	r0, r0, ip, lsl r0
 2e4:	2b210002 	blcs	8402f4 <_start-0xa27bfd0c>
 2e8:	00040000 	andeq	r0, r4, r0
 2ec:	00000000 	andeq	r0, r0, r0
 2f0:	a3001470 	movwge	r1, #1136	; 0x470
 2f4:	000000b0 	streqh	r0, [r0], -r0
	...
 300:	0000001c 	andeq	r0, r0, ip, lsl r0
 304:	2c3d0002 	ldccs	0, cr0, [sp], #-8
 308:	00040000 	andeq	r0, r4, r0
 30c:	00000000 	andeq	r0, r0, r0
 310:	a3001520 	movwge	r1, #1312	; 0x520
 314:	00000010 	andeq	r0, r0, r0, lsl r0
	...
Disassembly of section .debug_pubnames:

00000000 <.debug_pubnames>:
   0:	00000018 	andeq	r0, r0, r8, lsl r0
   4:	00000002 	andeq	r0, r0, r2
   8:	00ff0000 	rsceqs	r0, pc, r0
   c:	00990000 	addeqs	r0, r9, r0
  10:	61700000 	cmnvs	r0, r0
  14:	0063696e 	rsbeq	r6, r3, lr, ror #18
  18:	00000000 	andeq	r0, r0, r0
  1c:	000000ca 	andeq	r0, r0, sl, asr #1
  20:	00ff0002 	rsceqs	r0, pc, r2
  24:	032b0000 	teqeq	fp, #0	; 0x0
  28:	00fd0000 	rsceqs	r0, sp, r0
  2c:	6e690000 	cdpvs	0, 6, cr0, cr9, cr0, {0}
  30:	6c617473 	cfstrdvs	mvd7, [r1], #-460
  34:	61685f6c 	cmnvs	r8, ip, ror #30
  38:	656c646e 	strvsb	r6, [ip, #-1134]!
  3c:	01b70072 	moveqs	r0, r2, ror r0
  40:	6d6b0000 	stcvsl	0, cr0, [fp]
  44:	006e6961 	rsbeq	r6, lr, r1, ror #18
  48:	00000288 	andeq	r0, r0, r8, lsl #5
  4c:	626f6c67 	rsbvs	r6, pc, #26368	; 0x6700
  50:	645f6c61 	ldrvsb	r6, [pc], #3169	; 58 <_start-0xa2ffffa8>
  54:	00617461 	rsbeq	r7, r1, r1, ror #8
  58:	0000029a 	muleq	r0, sl, r2
  5c:	5f435653 	svcpl	0x00435653
  60:	ac003872 	stcge	8, cr3, [r0], {114}
  64:	55000002 	strpl	r0, [r0, #-2]
  68:	544f4f42 	strplb	r4, [pc], #3906	; 70 <_start-0xa2ffff90>
  6c:	0050535f 	subeqs	r5, r0, pc, asr r3
  70:	000002be 	streqh	r0, [r0], -lr
  74:	4f4f4255 	svcmi	0x004f4255
  78:	57535f54 	undefined
  7c:	4e495f49 	cdpmi	15, 4, cr5, cr9, cr9, {2}
  80:	00315453 	eoreqs	r5, r1, r3, asr r4
  84:	000002d0 	ldreqd	r0, [r0], -r0
  88:	4f4f4255 	svcmi	0x004f4255
  8c:	57535f54 	undefined
  90:	4e495f49 	cdpmi	15, 4, cr5, cr9, cr9, {2}
  94:	00325453 	eoreqs	r5, r2, r3, asr r4
  98:	000002e2 	andeq	r0, r0, r2, ror #5
  9c:	4f4f4255 	svcmi	0x004f4255
  a0:	52495f54 	subpl	r5, r9, #336	; 0x150
  a4:	4e495f51 	mcrmi	15, 2, r5, cr9, cr1, {2}
  a8:	00315453 	eoreqs	r5, r1, r3, asr r4
  ac:	000002f4 	streqd	r0, [r0], -r4
  b0:	4f4f4255 	svcmi	0x004f4255
  b4:	52495f54 	subpl	r5, r9, #336	; 0x150
  b8:	4e495f51 	mcrmi	15, 2, r5, cr9, cr1, {2}
  bc:	00325453 	eoreqs	r5, r2, r3, asr r4
  c0:	00000306 	andeq	r0, r0, r6, lsl #6
  c4:	4f4f4255 	svcmi	0x004f4255
  c8:	57535f54 	undefined
  cc:	44415f49 	strmib	r5, [r1], #-3913
  d0:	18005244 	stmneda	r0, {r2, r6, r9, ip, lr}
  d4:	55000003 	strpl	r0, [r0, #-3]
  d8:	544f4f42 	strplb	r4, [pc], #3906	; e0 <_start-0xa2ffff20>
  dc:	5152495f 	cmppl	r2, pc, asr r9
  e0:	4444415f 	strmib	r4, [r4], #-351
  e4:	00000052 	andeq	r0, r0, r2, asr r0
  e8:	00270000 	eoreq	r0, r7, r0
  ec:	00020000 	andeq	r0, r2, r0
  f0:	0000042a 	andeq	r0, r0, sl, lsr #8
  f4:	000000f9 	streqd	r0, [r0], -r9
  f8:	00000072 	andeq	r0, r0, r2, ror r0
  fc:	5f6d7573 	svcpl	0x006d7573
 100:	69676572 	stmvsdb	r7!, {r1, r4, r5, r6, r8, sl, sp, lr}^
 104:	c8006e6f 	stmgtda	r0, {r0, r1, r2, r3, r5, r6, r9, sl, fp, sp, lr}
 108:	69000000 	stmvsdb	r0, {}
 10c:	32676f6c 	rsbcc	r6, r7, #432	; 0x1b0
 110:	00000000 	andeq	r0, r0, r0
 114:	00001d00 	andeq	r1, r0, r0, lsl #26
 118:	23000200 	movwcs	r0, #512	; 0x200
 11c:	fe000005 	cdp2	0, 0, cr0, cr0, cr5, {0}
 120:	88000000 	stmhida	r0, {}
 124:	76000000 	strvc	r0, [r0], -r0
 128:	64696c61 	strvsbt	r6, [r9], #-3169
 12c:	6464615f 	strvsbt	r6, [r4], #-351
 130:	00000072 	andeq	r0, r0, r2, ror r0
 134:	00180000 	andeqs	r0, r8, r0
 138:	00020000 	andeq	r0, r2, r0
 13c:	00000621 	andeq	r0, r0, r1, lsr #12
 140:	0000007d 	andeq	r0, r0, sp, ror r0
 144:	00000067 	andeq	r0, r0, r7, rrx
 148:	73696172 	cmnvc	r9, #-2147483620	; 0x8000001c
 14c:	00000065 	andeq	r0, r0, r5, rrx
 150:	00b70000 	adceqs	r0, r7, r0
 154:	00020000 	andeq	r0, r2, r0
 158:	0000069e 	muleq	r0, lr, r6
 15c:	000002a7 	andeq	r0, r0, r7, lsr #5
 160:	0000007c 	andeq	r0, r0, ip, ror r0
 164:	73617369 	cmnvc	r1, #-1543503871	; 0xa4000001
 168:	00696963 	rsbeq	r6, r9, r3, ror #18
 16c:	000000a5 	andeq	r0, r0, r5, lsr #1
 170:	6e637369 	cdpvs	3, 6, cr7, cr3, cr9, {3}
 174:	006c7274 	rsbeq	r7, ip, r4, ror r2
 178:	000000ce 	andeq	r0, r0, lr, asr #1
 17c:	69647369 	stmvsdb	r4!, {r0, r3, r5, r6, r8, r9, ip, sp, lr}^
 180:	00746967 	rsbeqs	r6, r4, r7, ror #18
 184:	00000107 	andeq	r0, r0, r7, lsl #2
 188:	72677369 	rsbvc	r7, r7, #-1543503871	; 0xa4000001
 18c:	00687061 	rsbeq	r7, r8, r1, rrx
 190:	00000124 	andeq	r0, r0, r4, lsr #2
 194:	6f6c7369 	svcvs	0x006c7369
 198:	00726577 	rsbeqs	r6, r2, r7, ror r5
 19c:	00000141 	andeq	r0, r0, r1, asr #2
 1a0:	72707369 	rsbvcs	r7, r0, #-1543503871	; 0xa4000001
 1a4:	00746e69 	rsbeqs	r6, r4, r9, ror #28
 1a8:	0000016a 	andeq	r0, r0, sl, ror #2
 1ac:	70737369 	rsbvcs	r7, r3, r9, ror #6
 1b0:	00656361 	rsbeq	r6, r5, r1, ror #6
 1b4:	00000193 	muleq	r0, r3, r1
 1b8:	70757369 	rsbvcs	r7, r5, r9, ror #6
 1bc:	00726570 	rsbeqs	r6, r2, r0, ror r5
 1c0:	000001b0 	streqh	r0, [r0], -r0
 1c4:	6c617369 	stcvsl	3, cr7, [r1], #-420
 1c8:	00616870 	rsbeq	r6, r1, r0, ror r8
 1cc:	000001d9 	ldreqd	r0, [r0], -r9
 1d0:	6c617369 	stcvsl	3, cr7, [r1], #-420
 1d4:	006d756e 	rsbeq	r7, sp, lr, ror #10
 1d8:	00000204 	andeq	r0, r0, r4, lsl #4
 1dc:	6f6c6f74 	svcvs	0x006c6f74
 1e0:	00726577 	rsbeqs	r6, r2, r7, ror r5
 1e4:	0000022d 	andeq	r0, r0, sp, lsr #4
 1e8:	64787369 	ldrvsbt	r7, [r8], #-873
 1ec:	74696769 	strvcbt	r6, [r9], #-1897
 1f0:	00025600 	andeq	r5, r2, r0, lsl #12
 1f4:	70736900 	rsbvcs	r6, r3, r0, lsl #18
 1f8:	74636e75 	strvcbt	r6, [r3], #-3701
 1fc:	00028100 	andeq	r8, r2, r0, lsl #2
 200:	756f7400 	strvcb	r7, [pc, #-1024]!	; fffffe08 <__bss_end__+0x5cfbd240>
 204:	72657070 	rsbvc	r7, r5, #112	; 0x70
 208:	00000000 	andeq	r0, r0, r0
 20c:	00001a00 	andeq	r1, r0, r0, lsl #20
 210:	45000200 	strmi	r0, [r0, #-512]
 214:	f0000009 	undefined instruction 0xf0000009
 218:	90000000 	andls	r0, r0, r0
 21c:	68000000 	stmvsda	r0, {}
 220:	75647865 	strvcb	r7, [r4, #-2149]!
 224:	0000706d 	andeq	r7, r0, sp, rrx
 228:	58000000 	stmplda	r0, {}
 22c:	02000000 	andeq	r0, r0, #0	; 0x0
 230:	000a3500 	andeq	r3, sl, r0, lsl #10
 234:	0003ea00 	andeq	lr, r3, r0, lsl #20
 238:	0001ec00 	andeq	lr, r1, r0, lsl #24
 23c:	76656400 	strvcbt	r6, [r5], -r0, lsl #8
 240:	696e695f 	stmvsdb	lr!, {r0, r1, r2, r3, r4, r6, r8, fp, sp, lr}^
 244:	020d0074 	andeq	r0, sp, #116	; 0x74
 248:	6c730000 	ldcvsl	0, cr0, [r3]
 24c:	71706565 	cmnvc	r0, r5, ror #10
 250:	65756575 	ldrvsb	r6, [r5, #-1397]!
 254:	6b61775f 	blvs	185dfd8 <_start-0xa17a2028>
 258:	02840065 	addeq	r0, r4, #101	; 0x65
 25c:	65640000 	strvsb	r0, [r4]!
 260:	70755f76 	rsbvcs	r5, r5, r6, ror pc
 264:	65746164 	ldrvsb	r6, [r4, #-356]!
 268:	00032100 	andeq	r2, r3, r0, lsl #2
 26c:	76656400 	strvcbt	r6, [r5], -r0, lsl #8
 270:	6961775f 	stmvsdb	r1!, {r0, r1, r2, r3, r4, r6, r8, r9, sl, ip, sp, lr}^
 274:	03d20074 	biceqs	r0, r2, #116	; 0x74
 278:	65640000 	strvsb	r0, [r4]!
 27c:	72665f76 	rsbvc	r5, r6, #472	; 0x1d8
 280:	00007165 	andeq	r7, r0, r5, ror #2
 284:	43000000 	movwmi	r0, #0	; 0x0
 288:	02000000 	andeq	r0, r0, #0	; 0x0
 28c:	000e1f00 	andeq	r1, lr, r0, lsl #30
 290:	00016600 	andeq	r6, r1, r0, lsl #12
 294:	00007d00 	andeq	r7, r0, r0, lsl #26
 298:	67657200 	strvsb	r7, [r5, -r0, lsl #4]!
 29c:	6165725f 	cmnvs	r5, pc, asr r2
 2a0:	00a80064 	adceq	r0, r8, r4, rrx
 2a4:	65720000 	ldrvsb	r0, [r2]!
 2a8:	72775f67 	rsbvcs	r5, r7, #412	; 0x19c
 2ac:	00657469 	rsbeq	r7, r5, r9, ror #8
 2b0:	000000dc 	ldreqd	r0, [r0], -ip
 2b4:	5f676572 	svcpl	0x00676572
 2b8:	00746573 	rsbeqs	r6, r4, r3, ror r5
 2bc:	00000128 	andeq	r0, r0, r8, lsr #2
 2c0:	5f676572 	svcpl	0x00676572
 2c4:	61656c63 	cmnvs	r5, r3, ror #24
 2c8:	00000072 	andeq	r0, r0, r2, ror r0
 2cc:	001c0000 	andeqs	r0, ip, r0
 2d0:	00020000 	andeq	r0, r2, r0
 2d4:	00000f85 	andeq	r0, r0, r5, lsl #31
 2d8:	0000009a 	muleq	r0, sl, r0
 2dc:	00000072 	andeq	r0, r0, r2, ror r0
 2e0:	64616572 	strvsbt	r6, [r1], #-1394
 2e4:	7370635f 	cmnvc	r0, #2080374785	; 0x7c000001
 2e8:	00000072 	andeq	r0, r0, r2, ror r0
 2ec:	00200000 	eoreq	r0, r0, r0
 2f0:	00020000 	andeq	r0, r2, r0
 2f4:	0000101f 	andeq	r1, r0, pc, lsl r0
 2f8:	00000082 	andeq	r0, r0, r2, lsl #1
 2fc:	0000006e 	andeq	r0, r0, lr, rrx
 300:	52495f43 	subpl	r5, r9, #268	; 0x10c
 304:	61485f51 	cmpvs	r8, r1, asr pc
 308:	656c646e 	strvsb	r6, [ip, #-1134]!
 30c:	00000072 	andeq	r0, r0, r2, ror r0
 310:	00200000 	eoreq	r0, r0, r0
 314:	00020000 	andeq	r0, r2, r0
 318:	000010a1 	andeq	r1, r0, r1, lsr #1
 31c:	00000192 	muleq	r0, r2, r1
 320:	000000f2 	streqd	r0, [r0], -r2
 324:	57535f43 	ldrplb	r5, [r3, -r3, asr #30]
 328:	61485f49 	cmpvs	r8, r9, asr #30
 32c:	656c646e 	strvsb	r6, [ip, #-1134]!
 330:	00000072 	andeq	r0, r0, r2, ror r0
 334:	004d0000 	subeq	r0, sp, r0
 338:	00020000 	andeq	r0, r2, r0
 33c:	00001233 	andeq	r1, r0, r3, lsr r2
 340:	00000212 	andeq	r0, r0, r2, lsl r2
 344:	000000dd 	ldreqd	r0, [r0], -sp
 348:	656d6974 	strvsb	r6, [sp, #-2420]!
 34c:	6e695f72 	mcrvs	15, 3, r5, cr9, cr2, {3}
 350:	74007469 	strvc	r7, [r0], #-1129
 354:	74000001 	strvc	r0, [r0], #-1
 358:	72656d69 	rsbvc	r6, r5, #6720	; 0x1a40
 35c:	636e695f 	cmnvs	lr, #1556480	; 0x17c000
 360:	0001e800 	andeq	lr, r1, r0, lsl #16
 364:	6d756e00 	ldcvsl	14, cr6, [r5]
 368:	6d69745f 	cfstrdvs	mvd7, [r9, #-380]!
 36c:	745f7265 	ldrvcb	r7, [pc], #613	; 374 <_start-0xa2fffc8c>
 370:	006b6369 	rsbeq	r6, fp, r9, ror #6
 374:	000001ff 	streqd	r0, [r0], -pc
 378:	726d736f 	rsbvc	r7, sp, #-1140850687	; 0xbc000001
 37c:	756f635f 	strvcb	r6, [pc, #-863]!	; 25 <_start-0xa2ffffdb>
 380:	0000746e 	andeq	r7, r0, lr, ror #8
 384:	31000000 	tstcc	r0, r0
 388:	02000000 	andeq	r0, r0, #0	; 0x0
 38c:	00144500 	andeqs	r4, r4, r0, lsl #10
 390:	00018800 	andeq	r8, r1, r0, lsl #16
 394:	00008600 	andeq	r8, r0, r0, lsl #12
 398:	69727700 	ldmvsdb	r2!, {r8, r9, sl, ip, sp, lr}^
 39c:	735f6574 	cmpvc	pc, #486539264	; 0x1d000000
 3a0:	61637379 	smcvs	14137
 3a4:	fc006c6c 	stc2	12, cr6, [r0], {108}
 3a8:	72000000 	andvc	r0, r0, #0	; 0x0
 3ac:	5f646165 	svcpl	0x00646165
 3b0:	63737973 	cmnvs	r3, #1884160	; 0x1cc000
 3b4:	006c6c61 	rsbeq	r6, ip, r1, ror #24
 3b8:	00000000 	andeq	r0, r0, r0
 3bc:	00000053 	andeq	r0, r0, r3, asr r0
 3c0:	15cd0002 	strneb	r0, [sp, #2]
 3c4:	03890000 	orreq	r0, r9, #0	; 0x0
 3c8:	01170000 	tsteq	r7, r0
 3cc:	6e690000 	cdpvs	0, 6, cr0, cr9, cr0, {0}
 3d0:	696c6176 	stmvsdb	ip!, {r1, r2, r4, r5, r6, r8, sp, lr}^
 3d4:	79735f64 	ldmvcdb	r3!, {r2, r5, r6, r8, r9, sl, fp, ip, lr}^
 3d8:	6c616373 	stcvsl	3, cr6, [r1], #-460
 3dc:	0161006c 	cmneq	r1, ip, rrx
 3e0:	76650000 	strvcbt	r0, [r5], -r0
 3e4:	5f746e65 	svcpl	0x00746e65
 3e8:	74696177 	strvcbt	r6, [r9], #-375
 3ec:	00025a00 	andeq	r5, r2, r0, lsl #20
 3f0:	73617400 	cmnvc	r1, #0	; 0x0
 3f4:	72635f6b 	rsbvc	r5, r3, #428	; 0x1ac
 3f8:	65746165 	ldrvsb	r6, [r4, #-357]!
 3fc:	00037600 	andeq	r7, r3, r0, lsl #12
 400:	73797300 	cmnvc	r9, #0	; 0x0
 404:	5f6d6574 	svcpl	0x006d6574
 408:	73617470 	cmnvc	r1, #1879048192	; 0x70000000
 40c:	0000736b 	andeq	r7, r0, fp, ror #6
 410:	31000000 	tstcc	r0, r0
 414:	02000000 	andeq	r0, r0, #0	; 0x0
 418:	00195600 	andeqs	r5, r9, r0, lsl #12
 41c:	0000ed00 	andeq	lr, r0, r0, lsl #26
 420:	00006e00 	andeq	r6, r0, r0, lsl #28
 424:	6d697400 	cfstrdvs	mvd7, [r9]
 428:	79735f65 	ldmvcdb	r3!, {r0, r2, r5, r6, r8, r9, sl, fp, ip, lr}^
 42c:	6c616373 	stcvsl	3, cr6, [r1], #-460
 430:	0095006c 	addeqs	r0, r5, ip, rrx
 434:	6c730000 	ldcvsl	0, cr0, [r3]
 438:	5f706565 	svcpl	0x00706565
 43c:	63737973 	cmnvs	r3, #1884160	; 0x1cc000
 440:	006c6c61 	rsbeq	r6, ip, r1, ror #24
 444:	00000000 	andeq	r0, r0, r0
 448:	0000004d 	andeq	r0, r0, sp, asr #32
 44c:	1a430002 	bne	10c045c <_start-0xa1f3fba4>
 450:	03e90000 	mvneq	r0, #0	; 0x0
 454:	02eb0000 	rsceq	r0, fp, #0	; 0x0
 458:	63740000 	cmnvs	r4, #0	; 0x0
 45c:	65645f62 	strvsb	r5, [r4, #-3938]!
 460:	00677562 	rsbeq	r7, r7, r2, ror #10
 464:	0000032d 	andeq	r0, r0, sp, lsr #6
 468:	6f6c6c61 	svcvs	0x006c6c61
 46c:	65746163 	ldrvsb	r6, [r4, #-355]!
 470:	7361745f 	cmnvc	r1, #1593835520	; 0x5f000000
 474:	9800736b 	stmlsda	r0, {r0, r1, r3, r5, r6, r8, r9, ip, sp, lr}
 478:	73000003 	movwvc	r0, #3	; 0x3
 47c:	64656863 	strvsbt	r6, [r5], #-2147
 480:	696e695f 	stmvsdb	lr!, {r0, r1, r2, r3, r4, r6, r8, fp, sp, lr}^
 484:	03d10074 	biceqs	r0, r1, #116	; 0x74
 488:	79730000 	ldmvcdb	r3!, {}^
 48c:	6d657473 	cfstrdvs	mvd7, [r5, #-460]!
 490:	6263745f 	rsbvs	r7, r3, #1593835520	; 0x5f000000
 494:	00000000 	andeq	r0, r0, r0
 498:	00002200 	andeq	r2, r0, r0, lsl #4
 49c:	2c000200 	sfmcs	f0, 4, [r0], {0}
 4a0:	3700001e 	smladcc	r0, lr, r0, r0
 4a4:	f2000001 	vhadd.s8	d0, d0, d1
 4a8:	61000000 	tstvs	r0, r0
 4ac:	67697373 	undefined
 4b0:	63735f6e 	cmnvs	r3, #440	; 0x1b8
 4b4:	75646568 	strvcb	r6, [r4, #-1384]!
 4b8:	0000656c 	andeq	r6, r0, ip, ror #10
 4bc:	7a000000 	bvc	4c4 <_start-0xa2fffb3c>
 4c0:	02000000 	andeq	r0, r0, #0	; 0x0
 4c4:	001f6300 	andeqs	r6, pc, r0, lsl #6
 4c8:	0002e400 	andeq	lr, r2, r0, lsl #8
 4cc:	0001b800 	andeq	fp, r1, r0, lsl #16
 4d0:	73696400 	cmnvc	r9, #0	; 0x0
 4d4:	63746170 	cmnvs	r4, #28	; 0x1c
 4d8:	6e695f68 	cdpvs	15, 6, cr5, cr9, cr8, {3}
 4dc:	dd007469 	cfstrsle	mvf7, [r0, #-420]
 4e0:	67000001 	strvs	r0, [r0, -r1]
 4e4:	635f7465 	cmpvs	pc, #1694498816	; 0x65000000
 4e8:	705f7275 	subvcs	r7, pc, r5, ror r2
 4ec:	006f6972 	rsbeq	r6, pc, r2, ror r9
 4f0:	00000202 	andeq	r0, r0, r2, lsl #4
 4f4:	5f746567 	svcpl	0x00746567
 4f8:	5f727563 	svcpl	0x00727563
 4fc:	00626374 	rsbeq	r6, r2, r4, ror r3
 500:	00000211 	andeq	r0, r0, r1, lsl r2
 504:	70736964 	rsbvcs	r6, r3, r4, ror #18
 508:	68637461 	stmvsda	r3!, {r0, r5, r6, sl, ip, sp, lr}^
 50c:	736f6e5f 	cmnvc	pc, #1520	; 0x5f0
 510:	00657661 	rsbeq	r7, r5, r1, ror #12
 514:	00000245 	andeq	r0, r0, r5, asr #4
 518:	70736964 	rsbvcs	r6, r3, r4, ror #18
 51c:	68637461 	stmvsda	r3!, {r0, r5, r6, sl, ip, sp, lr}^
 520:	7661735f 	undefined
 524:	02840065 	addeq	r0, r4, #101	; 0x65
 528:	69640000 	stmvsdb	r4!, {}^
 52c:	74617073 	strvcbt	r7, [r1], #-115
 530:	735f6863 	cmpvc	pc, #6488064	; 0x630000
 534:	7065656c 	rsbvc	r6, r5, ip, ror #10
 538:	00000000 	andeq	r0, r0, r0
 53c:	00006200 	andeq	r6, r0, r0, lsl #4
 540:	47000200 	strmi	r0, [r0, -r0, lsl #4]
 544:	54000022 	strpl	r0, [r0], #-34
 548:	b8000003 	stmltda	r0, {r0, r1}
 54c:	72000001 	andvc	r0, r0, #1	; 0x1
 550:	75716e75 	ldrvcb	r6, [r1, #-3701]!
 554:	5f657565 	svcpl	0x00657565
 558:	74696e69 	strvcbt	r6, [r9], #-3689
 55c:	0001db00 	andeq	sp, r1, r0, lsl #22
 560:	6e757200 	cdpvs	2, 7, cr7, cr5, cr0, {0}
 564:	75657571 	strvcb	r7, [r5, #-1393]!
 568:	64615f65 	strvsbt	r5, [r1], #-3941
 56c:	02270064 	eoreq	r0, r7, #100	; 0x64
 570:	75720000 	ldrvcb	r0, [r2]!
 574:	6575716e 	ldrvsb	r7, [r5, #-366]!
 578:	725f6575 	subvcs	r6, pc, #490733568	; 0x1d400000
 57c:	766f6d65 	strvcbt	r6, [pc], -r5, ror #26
 580:	027b0065 	rsbeqs	r0, fp, #101	; 0x65
 584:	69680000 	stmvsdb	r8!, {}^
 588:	73656867 	cmnvc	r5, #6750208	; 0x670000
 58c:	72705f74 	rsbvcs	r5, r0, #464	; 0x1d0
 590:	b6006f69 	strlt	r6, [r0], -r9, ror #30
 594:	70000002 	andvc	r0, r0, r2
 598:	746e6972 	strvcbt	r6, [lr], #-2418
 59c:	00007469 	andeq	r7, r0, r9, ror #8
 5a0:	85000000 	strhi	r0, [r0]
 5a4:	02000000 	andeq	r0, r0, #0	; 0x0
 5a8:	00259b00 	eoreq	r9, r5, r0, lsl #22
 5ac:	0003ac00 	andeq	sl, r3, r0, lsl #24
 5b0:	00022c00 	andeq	r2, r2, r0, lsl #24
 5b4:	74756d00 	ldrvcbt	r6, [r5], #-3328
 5b8:	695f7865 	ldmvsdb	pc, {r0, r2, r5, r6, fp, ip, sp, lr}^
 5bc:	0074696e 	rsbeqs	r6, r4, lr, ror #18
 5c0:	0000024d 	andeq	r0, r0, sp, asr #4
 5c4:	6574756d 	ldrvsb	r7, [r4, #-1389]!
 5c8:	72635f78 	rsbvc	r5, r3, #480	; 0x1e0
 5cc:	65746165 	ldrvsb	r6, [r4, #-357]!
 5d0:	00027400 	andeq	r7, r2, r0, lsl #8
 5d4:	74756d00 	ldrvcbt	r6, [r5], #-3328
 5d8:	715f7865 	cmpvc	pc, r5, ror #16
 5dc:	65756575 	ldrvsb	r6, [r5, #-1397]!
 5e0:	6464615f 	strvsbt	r6, [r4], #-351
 5e4:	0002c700 	andeq	ip, r2, r0, lsl #14
 5e8:	74756d00 	ldrvcbt	r6, [r5], #-3328
 5ec:	6c5f7865 	mrrcvs	8, 6, r7, pc, cr5
 5f0:	006b636f 	rsbeq	r6, fp, pc, ror #6
 5f4:	00000303 	andeq	r0, r0, r3, lsl #6
 5f8:	6574756d 	ldrvsb	r7, [r4, #-1389]!
 5fc:	75715f78 	ldrvcb	r5, [r1, #-3960]!
 600:	5f657565 	svcpl	0x00657565
 604:	6f6d6572 	svcvs	0x006d6572
 608:	51006576 	tstpl	r0, r6, ror r5
 60c:	6d000003 	stcvs	0, cr0, [r0, #-12]
 610:	78657475 	stmvcda	r5!, {r0, r2, r4, r5, r6, sl, ip, sp, lr}^
 614:	6c6e755f 	cfstr64vs	mvdx7, [lr], #-380
 618:	006b636f 	rsbeq	r6, fp, pc, ror #6
 61c:	00000399 	muleq	r0, r9, r3
 620:	754d7467 	strvcb	r7, [sp, #-1127]
 624:	00786574 	rsbeqs	r6, r8, r4, ror r5
 628:	00000000 	andeq	r0, r0, r0
 62c:	0000001e 	andeq	r0, r0, lr, lsl r0
 630:	29470002 	stmcsdb	r7, {r1}^
 634:	00be0000 	adceqs	r0, lr, r0
 638:	00790000 	rsbeqs	r0, r9, r0
 63c:	70610000 	rsbvc	r0, r1, r0
 640:	74735f70 	ldrvcbt	r5, [r3], #-3952
 644:	75747261 	ldrvcb	r7, [r4, #-609]!
 648:	00000070 	andeq	r0, r0, r0, ror r0
	...
Disassembly of section .debug_info:

00000000 <.debug_info>:
       0:	000000fb 	streqd	r0, [r0], -fp
       4:	00000002 	andeq	r0, r0, r2
       8:	01040000 	tsteq	r4, r0
       c:	00000000 	andeq	r0, r0, r0
      10:	a3000034 	movwge	r0, #52	; 0x34
      14:	a3000008 	movwge	r0, #8	; 0x8
      18:	00000063 	andeq	r0, r0, r3, rrx
      1c:	00007d01 	andeq	r7, r0, r1, lsl #26
      20:	00510200 	subeqs	r0, r1, r0, lsl #4
      24:	07040000 	streq	r0, [r4, -r0]
      28:	00007402 	andeq	r7, r0, r2, lsl #8
      2c:	02050400 	andeq	r0, r5, #0	; 0x0
      30:	0000002a 	andeq	r0, r0, sl, lsr #32
      34:	42020801 	andmi	r0, r2, #65536	; 0x10000
      38:	02000000 	andeq	r0, r0, #0	; 0x0
      3c:	6e690305 	cdpvs	3, 6, cr0, cr9, cr5, {0}
      40:	05040074 	streq	r0, [r4, #-116]
      44:	00006f02 	andeq	r6, r0, r2, lsl #30
      48:	02050800 	andeq	r0, r5, #0	; 0x0
      4c:	00000021 	andeq	r0, r0, r1, lsr #32
      50:	2f020801 	svccs	0x00020801
      54:	02000000 	andeq	r0, r0, #0	; 0x0
      58:	00d90407 	sbceqs	r0, r9, r7, lsl #8
      5c:	2c030000 	stccs	0, cr0, [r3], {0}
      60:	00000064 	andeq	r0, r0, r4, rrx
      64:	00005602 	andeq	r5, r0, r2, lsl #12
      68:	02070400 	andeq	r0, r7, #0	; 0x0
      6c:	0000004c 	andeq	r0, r0, ip, asr #32
      70:	19040708 	stmnedb	r4, {r3, r8, r9, sl}
      74:	04000000 	streq	r0, [r0]
      78:	00007d10 	andeq	r7, r0, r0, lsl sp
      7c:	06040500 	streq	r0, [r4], -r0, lsl #10
      80:	00000099 	muleq	r0, r9, r0
      84:	00000601 	andeq	r0, r0, r1, lsl #12
      88:	013f0200 	teqeq	pc, r0, lsl #4
      8c:	07000703 	streq	r0, [r0, -r3, lsl #14]
      90:	40020000 	andmi	r0, r2, r0
      94:	00000059 	andeq	r0, r0, r9, asr r0
      98:	00f30800 	rsceqs	r0, r3, r0, lsl #16
      9c:	00010000 	andeq	r0, r1, r0
      a0:	01000000 	tsteq	r0, r0
      a4:	00080111 	andeq	r0, r8, r1, lsl r1
      a8:	0034a300 	eoreqs	sl, r4, r0, lsl #6
      ac:	0000a300 	andeq	sl, r0, r0, lsl #6
      b0:	66090000 	strvs	r0, [r9], -r0
      b4:	0100746d 	tsteq	r0, sp, ror #8
      b8:	0000f310 	andeq	pc, r0, r0, lsl r3
      bc:	00910200 	addeqs	r0, r1, r0, lsl #4
      c0:	001c0b0a 	andeqs	r0, ip, sl, lsl #22
      c4:	12010000 	andne	r0, r1, #0	; 0x0
      c8:	00000072 	andeq	r0, r0, r2, ror r0
      cc:	0c749102 	ldfeqp	f1, [r4], #-8
      d0:	0000007f 	andeq	r0, r0, pc, ror r0
      d4:	a3000020 	movwge	r0, #32	; 0x20
      d8:	a3000034 	movwge	r0, #52	; 0x34
      dc:	200d1a01 	andcs	r1, sp, r1, lsl #20
      e0:	34a30000 	strcct	r0, [r3]
      e4:	0ea30000 	cdpeq	0, 10, cr0, cr3, cr0, {0}
      e8:	0000008d 	andeq	r0, r0, sp, lsl #1
      ec:	0000002b 	andeq	r0, r0, fp, lsr #32
      f0:	0f000000 	svceq	0x00000000
      f4:	0000f904 	andeq	pc, r0, r4, lsl #18
      f8:	002f1000 	eoreq	r1, pc, r0
      fc:	27000000 	strcs	r0, [r0, -r0]
     100:	02000003 	andeq	r0, r0, #3	; 0x3
     104:	0000c700 	andeq	ip, r0, r0, lsl #14
     108:	75010400 	strvc	r0, [r1, #-1024]
     10c:	84000001 	strhi	r0, [r0], #-1
     110:	34a30001 	strcct	r0, [r3], #1
     114:	63a30000 	movvs	r0, #0	; 0x0
     118:	01000000 	tsteq	r0, r0
     11c:	0000018a 	andeq	r0, r0, sl, lsl #3
     120:	0008b202 	andeq	fp, r8, r2, lsl #4
     124:	2c200400 	cfstrscs	mvf0, [r0]
     128:	03000000 	movweq	r0, #0	; 0x0
     12c:	00000051 	andeq	r0, r0, r1, asr r0
     130:	74030704 	strvc	r0, [r3], #-1796
     134:	04000000 	streq	r0, [r0]
     138:	002a0305 	eoreq	r0, sl, r5, lsl #6
     13c:	08010000 	stmeqda	r1, {}
     140:	00004203 	andeq	r4, r0, r3, lsl #4
     144:	04050200 	streq	r0, [r5], #-512
     148:	00746e69 	rsbeqs	r6, r4, r9, ror #28
     14c:	6f030504 	svcvs	0x00030504
     150:	08000000 	stmeqda	r0, {}
     154:	00210305 	eoreq	r0, r1, r5, lsl #6
     158:	08010000 	stmeqda	r1, {}
     15c:	00002f03 	andeq	r2, r0, r3, lsl #30
     160:	02070200 	andeq	r0, r7, #0	; 0x0
     164:	000000d9 	ldreqd	r0, [r0], -r9
     168:	006f2c04 	rsbeq	r2, pc, r4, lsl #24
     16c:	56030000 	strpl	r0, [r3], -r0
     170:	04000000 	streq	r0, [r0]
     174:	004c0307 	subeq	r0, ip, r7, lsl #6
     178:	07080000 	streq	r0, [r8, -r0]
     17c:	00015a02 	andeq	r5, r1, r2, lsl #20
     180:	88130500 	ldmhida	r3, {r8, sl}
     184:	05000000 	streq	r0, [r0]
     188:	00008e04 	andeq	r8, r0, r4, lsl #28
     18c:	009a0600 	addeqs	r0, sl, r0, lsl #12
     190:	07010000 	streq	r0, [r1, -r0]
     194:	0000009a 	muleq	r0, sl, r0
     198:	09040800 	stmeqdb	r4, {fp}
     19c:	000000eb 	andeq	r0, r0, fp, ror #1
     1a0:	00000aed 	andeq	r0, r0, sp, ror #21
     1a4:	0a160514 	beq	5815fc <_start-0xa2a7ea04>
     1a8:	000001fb 	streqd	r0, [r0], -fp
     1ac:	007d1705 	rsbeqs	r1, sp, r5, lsl #14
     1b0:	23020000 	movwcs	r0, #8192	; 0x2000
     1b4:	01800a00 	orreq	r0, r0, r0, lsl #20
     1b8:	18050000 	stmneda	r5, {}
     1bc:	0000009a 	muleq	r0, sl, r0
     1c0:	0a042302 	beq	108dd0 <_start-0xa2ef7230>
     1c4:	00000142 	andeq	r0, r0, r2, asr #2
     1c8:	009a1905 	addeqs	r1, sl, r5, lsl #18
     1cc:	23020000 	movwcs	r0, #8192	; 0x2000
     1d0:	00430b08 	subeq	r0, r3, r8, lsl #22
     1d4:	002c1a05 	eoreq	r1, ip, r5, lsl #20
     1d8:	23020000 	movwcs	r0, #8192	; 0x2000
     1dc:	00540b0c 	subeqs	r0, r4, ip, lsl #22
     1e0:	002c1b05 	eoreq	r1, ip, r5, lsl #22
     1e4:	23020000 	movwcs	r0, #8192	; 0x2000
     1e8:	0f020010 	svceq	0x00020010
     1ec:	05000001 	streq	r0, [r0, #-1]
     1f0:	00009c1d 	andeq	r9, r0, sp, lsl ip
     1f4:	00560300 	subeqs	r0, r6, r0, lsl #6
     1f8:	07040000 	streq	r0, [r4, -r0]
     1fc:	0001720c 	andeq	r7, r1, ip, lsl #4
     200:	02420100 	subeq	r0, r2, #0	; 0x0
     204:	57010000 	strpl	r0, [r1, -r0]
     208:	00004801 	andeq	r4, r0, r1, lsl #16
     20c:	00003400 	andeq	r3, r0, r0, lsl #8
     210:	0000f4a3 	andeq	pc, r0, r3, lsr #9
     214:	00003ea3 	andeq	r3, r0, r3, lsr #29
     218:	020b0d00 	andeq	r0, fp, #0	; 0x0
     21c:	57010000 	strpl	r0, [r1, -r0]
     220:	00000048 	andeq	r0, r0, r8, asr #32
     224:	0000005d 	andeq	r0, r0, sp, asr r0
     228:	0001650e 	andeq	r6, r1, lr, lsl #10
     22c:	48570100 	ldmmida	r7, {r8}^
     230:	01000000 	tsteq	r0, r0
     234:	00f60f51 	rsceqs	r0, r6, r1, asr pc
     238:	58010000 	stmplda	r1, {}
     23c:	00000172 	andeq	r0, r0, r2, ror r1
     240:	0000e80f 	andeq	lr, r0, pc, lsl #16
     244:	72580100 	subvcs	r0, r8, #0	; 0x0
     248:	10000001 	andne	r0, r0, r1
     24c:	00000116 	andeq	r0, r0, r6, lsl r1
     250:	01725801 	cmneq	r2, r1, lsl #16
     254:	007b0000 	rsbeqs	r0, fp, r0
     258:	4c0f0000 	stcmi	0, cr0, [pc], {0}
     25c:	01000001 	tsteq	r0, r1
     260:	00004859 	andeq	r4, r0, r9, asr r8
     264:	01080f00 	tsteq	r8, r0, lsl #30
     268:	5a010000 	bpl	40270 <_start-0xa2fbfd90>
     26c:	0000006f 	andeq	r0, r0, pc, rrx
     270:	48040500 	stmmida	r4, {r8, sl}
     274:	11000000 	tstne	r0, r0
     278:	0000019d 	muleq	r0, sp, r1
     27c:	0000fe01 	andeq	pc, r0, r1, lsl #28
     280:	01180200 	tsteq	r8, r0, lsl #4
     284:	03511203 	cmpeq	r1, #805306368	; 0x30000000
     288:	17020000 	strne	r0, [r2, -r0]
     28c:	00000021 	andeq	r0, r0, r1, lsr #32
     290:	00018012 	andeq	r8, r1, r2, lsl r0
     294:	64170200 	ldrvs	r0, [r7], #-512
     298:	00000000 	andeq	r0, r0, r0
     29c:	0001b711 	andeq	fp, r1, r1, lsl r7
     2a0:	00060100 	andeq	r0, r6, r0, lsl #2
     2a4:	3f030000 	svccc	0x00030000
     2a8:	000f0301 	andeq	r0, pc, r1, lsl #6
     2ac:	03000007 	movweq	r0, #7	; 0x7
     2b0:	00006440 	andeq	r6, r0, r0, asr #8
     2b4:	7c0c0000 	stcvc	0, cr0, [ip], {0}
     2b8:	01000002 	tsteq	r0, r2
     2bc:	000000e2 	andeq	r0, r0, r2, ror #1
     2c0:	48013101 	stmmida	r1, {r0, r8, ip, sp}
     2c4:	f4000000 	vst4.8	{d0-d3}, [r0], r0
     2c8:	84a30000 	strhit	r0, [r3]
     2cc:	8ea30001 	cdphi	0, 10, cr0, cr3, cr1, {0}
     2d0:	0d000000 	stceq	0, cr0, [r0]
     2d4:	00000185 	andeq	r0, r0, r5, lsl #3
     2d8:	00483001 	subeq	r3, r8, r1
     2dc:	00b90000 	adceqs	r0, r9, r0
     2e0:	740d0000 	strvc	r0, [sp]
     2e4:	01000001 	tsteq	r0, r1
     2e8:	00027c30 	andeq	r7, r2, r0, lsr ip
     2ec:	0000cc00 	andeq	ip, r0, r0, lsl #24
     2f0:	0ce80d00 	stceql	13, cr0, [r8]
     2f4:	30010000 	andcc	r0, r1, r0
     2f8:	00000064 	andeq	r0, r0, r4, rrx
     2fc:	000000df 	ldreqd	r0, [r0], -pc
     300:	0001f413 	andeq	pc, r1, r3, lsl r4
     304:	48360100 	ldmmida	r6!, {r8}
     308:	01000000 	tsteq	r0, r0
     30c:	01291354 	teqeq	r9, r4, asr r3
     310:	47010000 	strmi	r0, [r1, -r0]
     314:	000000eb 	andeq	r0, r0, fp, ror #1
     318:	14649102 	strnebt	r9, [r4], #-258
     31c:	0000023a 	andeq	r0, r0, sl, lsr r2
     320:	00000178 	andeq	r0, r0, r8, ror r1
     324:	a3000138 	movwge	r0, #312	; 0x138
     328:	a3000144 	movwge	r0, #324	; 0x144
     32c:	91154001 	tstls	r5, r1
     330:	15000001 	strne	r0, [r0, #-1]
     334:	00000186 	andeq	r0, r0, r6, lsl #3
     338:	02581400 	subeqs	r1, r8, #0	; 0x0
     33c:	01780000 	cmneq	r8, r0
     340:	01440000 	cmpeq	r4, r0
     344:	0148a300 	cmpeq	r8, r0, lsl #6
     348:	4101a300 	tstmi	r1, r0, lsl #6
     34c:	00019115 	andeq	r9, r1, r5, lsl r1
     350:	01861500 	orreq	r1, r6, r0, lsl #10
     354:	16000000 	strne	r0, [r0], -r0
     358:	0000019d 	muleq	r0, sp, r1
     35c:	a3000158 	movwge	r0, #344	; 0x158
     360:	a3000164 	movwge	r0, #356	; 0x164
     364:	58174901 	ldmplda	r7, {r0, r8, fp, lr}
     368:	64a30001 	strvst	r0, [r3], #1
     36c:	18a30001 	stmneia	r3!, {r0}
     370:	000001ab 	andeq	r0, r0, fp, lsr #3
     374:	000000fd 	streqd	r0, [r0], -sp
     378:	05000000 	streq	r0, [r0]
     37c:	00028204 	andeq	r8, r2, r4, lsl #4
     380:	3a040500 	bcc	101788 <_start-0xa2efe878>
     384:	19000000 	stmnedb	r0, {}
     388:	00000179 	andeq	r0, r0, r9, ror r1
     38c:	00642e01 	rsbeq	r2, r4, r1, lsl #28
     390:	05010000 	streq	r0, [r1]
     394:	001aa403 	andeqs	sl, sl, r3, lsl #8
     398:	015319a3 	cmpeq	r3, r3, lsr #19
     39c:	19060000 	stmnedb	r6, {}
     3a0:	0000006f 	andeq	r0, r0, pc, rrx
     3a4:	60030501 	andvs	r0, r3, r1, lsl #10
     3a8:	19a30019 	stmneib	r3!, {r0, r3, r4}
     3ac:	00000202 	andeq	r0, r0, r2, lsl #4
     3b0:	006f1a06 	rsbeq	r1, pc, r6, lsl #20
     3b4:	05010000 	streq	r0, [r1]
     3b8:	00196403 	andeqs	r6, r9, r3, lsl #8
     3bc:	021319a3 	andeqs	r1, r3, #2670592	; 0x28c000
     3c0:	1b060000 	blne	1803c8 <_start-0xa2e7fc38>
     3c4:	0000006f 	andeq	r0, r0, pc, rrx
     3c8:	ac030501 	cfstr32ge	mvfx0, [r3], {1}
     3cc:	19a3001a 	stmneib	r3!, {r1, r3, r4}
     3d0:	00000223 	andeq	r0, r0, r3, lsr #4
     3d4:	006f1c06 	rsbeq	r1, pc, r6, lsl #24
     3d8:	05010000 	streq	r0, [r1]
     3dc:	001ab003 	andeqs	fp, sl, r3
     3e0:	01e419a3 	mvneq	r1, r3, lsr #19
     3e4:	1d060000 	stcne	0, cr0, [r6]
     3e8:	0000006f 	andeq	r0, r0, pc, rrx
     3ec:	a8030501 	stmgeda	r3, {r0, r8, sl}
     3f0:	19a3001a 	stmneib	r3!, {r1, r3, r4}
     3f4:	00000252 	andeq	r0, r0, r2, asr r2
     3f8:	006f1e06 	rsbeq	r1, pc, r6, lsl #28
     3fc:	05010000 	streq	r0, [r1]
     400:	001ab403 	andeqs	fp, sl, r3, lsl #8
     404:	013319a3 	teqeq	r3, r3, lsr #19
     408:	1f060000 	svcne	0x00060000
     40c:	00000172 	andeq	r0, r0, r2, ror r1
     410:	b8030501 	stmltda	r3, {r0, r8, sl}
     414:	19a3001a 	stmneib	r3!, {r1, r3, r4}
     418:	00000233 	andeq	r0, r0, r3, lsr r2
     41c:	01722006 	cmneq	r2, r6
     420:	05010000 	streq	r0, [r1]
     424:	001aa003 	andeqs	sl, sl, r3
     428:	00f500a3 	rsceqs	r0, r5, r3, lsr #1
     42c:	00020000 	andeq	r0, r2, r0
     430:	00000215 	andeq	r0, r0, r5, lsl r2
     434:	03470104 	movteq	r0, #28932	; 0x7104
     438:	01c80000 	biceq	r0, r8, r0
     43c:	0184a300 	orreq	sl, r4, r0, lsl #6
     440:	0063a300 	rsbeq	sl, r3, r0, lsl #6
     444:	73010000 	movwvc	r0, #4096	; 0x1000
     448:	02000002 	andeq	r0, r0, #2	; 0x2
     44c:	000008b2 	streqh	r0, [r0], -r2
     450:	002c2002 	eoreq	r2, ip, r2
     454:	51030000 	tstpl	r3, r0
     458:	04000000 	streq	r0, [r0]
     45c:	00740307 	rsbeqs	r0, r4, r7, lsl #6
     460:	05040000 	streq	r0, [r4]
     464:	00002a03 	andeq	r2, r0, r3, lsl #20
     468:	03080100 	movweq	r0, #33024	; 0x8100
     46c:	00000042 	andeq	r0, r0, r2, asr #32
     470:	69040502 	stmvsdb	r4, {r1, r8, sl}
     474:	0400746e 	streq	r7, [r0], #-1134
     478:	006f0305 	rsbeq	r0, pc, r5, lsl #6
     47c:	05080000 	streq	r0, [r8]
     480:	00002103 	andeq	r2, r0, r3, lsl #2
     484:	03080100 	movweq	r0, #33024	; 0x8100
     488:	0000002f 	andeq	r0, r0, pc, lsr #32
     48c:	56030702 	strpl	r0, [r3], -r2, lsl #14
     490:	04000000 	streq	r0, [r0]
     494:	004c0307 	subeq	r0, ip, r7, lsl #6
     498:	07080000 	streq	r0, [r8, -r0]
     49c:	0000c205 	andeq	ip, r0, r5, lsl #4
     4a0:	02680100 	rsbeq	r0, r8, #0	; 0x0
     4a4:	1a010000 	bne	404ac <_start-0xa2fbfb54>
     4a8:	00006401 	andeq	r6, r0, r1, lsl #8
     4ac:	00018400 	andeq	r8, r1, r0, lsl #8
     4b0:	0001aca3 	andeq	sl, r1, r3, lsr #25
     4b4:	065d01a3 	ldreqb	r0, [sp], -r3, lsr #3
     4b8:	00667562 	rsbeq	r7, r6, r2, ror #10
     4bc:	00c21901 	sbceq	r1, r2, r1, lsl #18
     4c0:	01100000 	tsteq	r0, r0
     4c4:	d4070000 	strle	r0, [r7]
     4c8:	01000002 	tsteq	r0, r2
     4cc:	00002119 	andeq	r2, r0, r9, lsl r1
     4d0:	08510100 	ldmeqda	r1, {r8}^
     4d4:	1b010069 	blne	40680 <_start-0xa2fbf980>
     4d8:	00000021 	andeq	r0, r0, r1, lsr #32
     4dc:	cd095201 	sfmgt	f5, 4, [r9, #-4]
     4e0:	01000002 	tsteq	r0, r2
     4e4:	0000641c 	andeq	r6, r0, ip, lsl r4
     4e8:	005c0100 	subeqs	r0, ip, r0, lsl #2
     4ec:	0064040a 	rsbeq	r0, r4, sl, lsl #8
     4f0:	010b0000 	tsteq	fp, r0
     4f4:	00000262 	andeq	r0, r0, r2, ror #4
     4f8:	64013501 	strvs	r3, [r1], #-1281
     4fc:	ac000000 	stcge	0, cr0, [r0], {0}
     500:	c8a30001 	stmgtia	r3!, {r0}
     504:	01a30001 	moveq	r0, r1
     508:	0078065d 	rsbeqs	r0, r8, sp, asr r6
     50c:	00643401 	rsbeq	r3, r4, r1, lsl #8
     510:	01230000 	teqeq	r3, r0
     514:	72080000 	andvc	r0, r8, #0	; 0x0
     518:	64360100 	ldrvst	r0, [r6], #-256
     51c:	01000000 	tsteq	r0, r0
     520:	fa000053 	blx	674 <_start-0xa2fff98c>
     524:	02000000 	andeq	r0, r0, #0	; 0x0
     528:	0002bf00 	andeq	fp, r2, r0, lsl #30
     52c:	41010400 	tstmi	r1, r0, lsl #8
     530:	0c000004 	stceq	0, cr0, [r0], {4}
     534:	c8a30002 	stmgtia	r3!, {r1}
     538:	63a30001 	movvs	r0, #1	; 0x1
     53c:	01000000 	tsteq	r0, r0
     540:	000002de 	ldreqd	r0, [r0], -lr
     544:	0008b202 	andeq	fp, r8, r2, lsl #4
     548:	2c200200 	sfmcs	f0, 4, [r0]
     54c:	03000000 	movweq	r0, #0	; 0x0
     550:	00000051 	andeq	r0, r0, r1, asr r0
     554:	74030704 	strvc	r0, [r3], #-1796
     558:	04000000 	streq	r0, [r0]
     55c:	002a0305 	eoreq	r0, sl, r5, lsl #6
     560:	08010000 	stmeqda	r1, {}
     564:	00004203 	andeq	r4, r0, r3, lsl #4
     568:	04050200 	streq	r0, [r5], #-512
     56c:	00746e69 	rsbeqs	r6, r4, r9, ror #28
     570:	6f030504 	svcvs	0x00030504
     574:	08000000 	stmeqda	r0, {}
     578:	00210305 	eoreq	r0, r1, r5, lsl #6
     57c:	08010000 	stmeqda	r1, {}
     580:	00002f03 	andeq	r2, r0, r3, lsl #30
     584:	02070200 	andeq	r0, r7, #0	; 0x0
     588:	000000d9 	ldreqd	r0, [r0], -r9
     58c:	006f2c02 	rsbeq	r2, pc, r2, lsl #24
     590:	56030000 	strpl	r0, [r3], -r0
     594:	04000000 	streq	r0, [r0]
     598:	004c0307 	subeq	r0, ip, r7, lsl #6
     59c:	07080000 	streq	r0, [r8, -r0]
     5a0:	00036402 	andeq	r6, r3, r2, lsl #8
     5a4:	64320200 	ldrvst	r0, [r2], #-512
     5a8:	05000000 	streq	r0, [r0]
     5ac:	000000f6 	streqd	r0, [r0], -r6
     5b0:	00034b01 	andeq	r4, r3, r1, lsl #22
     5b4:	01190100 	tsteq	r9, r0, lsl #2
     5b8:	00000048 	andeq	r0, r0, r8, asr #32
     5bc:	a30001c8 	movwge	r0, #456	; 0x1c8
     5c0:	a300020c 	movwge	r0, #524	; 0x20c
     5c4:	40065d01 	andmi	r5, r6, r1, lsl #26
     5c8:	01000003 	tsteq	r0, r3
     5cc:	0000f618 	andeq	pc, r0, r8, lsl r6
     5d0:	00013600 	andeq	r3, r1, r0, lsl #12
     5d4:	088a0700 	stmeqia	sl, {r8, r9, sl}
     5d8:	18010000 	stmneda	r1, {}
     5dc:	00000021 	andeq	r0, r0, r1, lsr #32
     5e0:	46065101 	strmi	r5, [r6], -r1, lsl #2
     5e4:	01000003 	tsteq	r0, r3
     5e8:	00007d18 	andeq	r7, r0, r8, lsl sp
     5ec:	00014900 	andeq	r4, r1, r0, lsl #18
     5f0:	03560600 	cmpeq	r6, #0	; 0x0
     5f4:	18010000 	stmneda	r1, {}
     5f8:	0000007d 	andeq	r0, r0, sp, ror r0
     5fc:	00000167 	andeq	r0, r0, r7, ror #2
     600:	00033c08 	andeq	r3, r3, r8, lsl #24
     604:	7d1a0100 	ldfvcs	f0, [sl]
     608:	09000000 	stmeqdb	r0, {}
     60c:	0000035c 	andeq	r0, r0, ip, asr r3
     610:	007d1b01 	rsbeqs	r1, sp, r1, lsl #22
     614:	52010000 	andpl	r0, r1, #0	; 0x0
     618:	fc040a00 	stc2	10, cr0, [r4], {0}
     61c:	0b000000 	bleq	624 <_start-0xa2fff9dc>
     620:	00007900 	andeq	r7, r0, r0, lsl #18
     624:	55000200 	strpl	r0, [r0, #-512]
     628:	04000003 	streq	r0, [r0], #-3
     62c:	00053801 	andeq	r3, r5, r1, lsl #16
     630:	00022000 	andeq	r2, r2, r0
     634:	00020ca3 	andeq	r0, r2, r3, lsr #25
     638:	000063a3 	andeq	r6, r0, r3, lsr #7
     63c:	03740100 	cmneq	r4, #0	; 0x0
     640:	51020000 	tstpl	r2, r0
     644:	04000000 	streq	r0, [r0]
     648:	00740207 	rsbeqs	r0, r4, r7, lsl #4
     64c:	05040000 	streq	r0, [r4]
     650:	00002a02 	andeq	r2, r0, r2, lsl #20
     654:	02080100 	andeq	r0, r8, #0	; 0x0
     658:	00000042 	andeq	r0, r0, r2, asr #32
     65c:	69030502 	stmvsdb	r3, {r1, r8, sl}
     660:	0400746e 	streq	r7, [r0], #-1134
     664:	006f0205 	rsbeq	r0, pc, r5, lsl #4
     668:	05080000 	streq	r0, [r8]
     66c:	00002102 	andeq	r2, r0, r2, lsl #2
     670:	02080100 	andeq	r0, r8, #0	; 0x0
     674:	0000002f 	andeq	r0, r0, pc, lsr #32
     678:	56020702 	strpl	r0, [r2], -r2, lsl #14
     67c:	04000000 	streq	r0, [r0]
     680:	004c0207 	subeq	r0, ip, r7, lsl #4
     684:	07080000 	streq	r0, [r8, -r0]
     688:	036e0104 	cmneq	lr, #1	; 0x1
     68c:	0c010000 	stceq	0, cr0, [r1], {0}
     690:	00020c01 	andeq	r0, r2, r1, lsl #24
     694:	000220a3 	andeq	r2, r2, r3, lsr #1
     698:	000185a3 	andeq	r8, r1, r3, lsr #11
     69c:	02a30000 	adceq	r0, r3, #0	; 0x0
     6a0:	00020000 	andeq	r0, r2, r0
     6a4:	00000392 	muleq	r0, r2, r3
     6a8:	05c30104 	streqb	r0, [r3, #260]
     6ac:	03ac0000 	moveq	r0, #0	; 0x0
     6b0:	0220a300 	eoreq	sl, r0, #0	; 0x0
     6b4:	0063a300 	rsbeq	sl, r3, r0, lsl #6
     6b8:	df010000 	svcle	0x00010000
     6bc:	02000003 	andeq	r0, r0, #3	; 0x3
     6c0:	0000003d 	andeq	r0, r0, sp, lsr r0
     6c4:	00044201 	andeq	r4, r4, r1, lsl #4
     6c8:	01230100 	teqeq	r3, r0, lsl #2
     6cc:	0000003d 	andeq	r0, r0, sp, lsr r0
     6d0:	00630301 	rsbeq	r0, r3, r1, lsl #6
     6d4:	003d2201 	eoreqs	r2, sp, r1, lsl #4
     6d8:	04000000 	streq	r0, [r0]
     6dc:	00746e69 	rsbeqs	r6, r4, r9, ror #28
     6e0:	60020504 	andvs	r0, r2, r4, lsl #10
     6e4:	01000000 	tsteq	r0, r0
     6e8:	0000048a 	andeq	r0, r0, sl, lsl #9
     6ec:	3d013301 	stccc	3, cr3, [r1, #-4]
     6f0:	01000000 	tsteq	r0, r0
     6f4:	01006303 	tsteq	r0, r3, lsl #6
     6f8:	00003d32 	andeq	r3, r0, r2, lsr sp
     6fc:	7c020000 	stcvc	0, cr0, [r2], {0}
     700:	01000000 	tsteq	r0, r0
     704:	00000452 	andeq	r0, r0, r2, asr r4
     708:	3d011901 	stccc	9, cr1, [r1, #-4]
     70c:	01000000 	tsteq	r0, r0
     710:	01006303 	tsteq	r0, r3, lsl #6
     714:	00003d18 	andeq	r3, r0, r8, lsl sp
     718:	a5050000 	strge	r0, [r5]
     71c:	01000000 	tsteq	r0, r0
     720:	0000046a 	andeq	r0, r0, sl, ror #8
     724:	3d010f01 	stccc	15, cr0, [r1, #-4]
     728:	20000000 	andcs	r0, r0, r0
     72c:	30a30002 	adccc	r0, r3, r2
     730:	01a30002 	moveq	r0, r2
     734:	0063065d 	rsbeq	r0, r3, sp, asr r6
     738:	003d0e01 	eoreqs	r0, sp, r1, lsl #28
     73c:	01a40000 	moveq	r0, r0
     740:	05000000 	streq	r0, [r0]
     744:	000000ce 	andeq	r0, r0, lr, asr #1
     748:	0003d701 	andeq	sp, r3, r1, lsl #14
     74c:	01140100 	tsteq	r4, r0, lsl #2
     750:	0000003d 	andeq	r0, r0, sp, lsr r0
     754:	a3000230 	movwge	r0, #560	; 0x230
     758:	a3000244 	movwge	r0, #580	; 0x244
     75c:	63065d01 	movwvs	r5, #27905	; 0x6d01
     760:	3d130100 	ldfccs	f0, [r3]
     764:	b7000000 	strlt	r0, [r0, -r0]
     768:	00000001 	andeq	r0, r0, r1
     76c:	0000eb07 	andeq	lr, r0, r7, lsl #22
     770:	00006000 	andeq	r6, r0, r0
     774:	00024400 	andeq	r4, r2, r0, lsl #8
     778:	000258a3 	andeq	r5, r2, r3, lsr #17
     77c:	085d01a3 	ldmeqda	sp, {r0, r1, r5, r7, r8}^
     780:	00000072 	andeq	r0, r0, r2, ror r0
     784:	000001ca 	andeq	r0, r0, sl, asr #3
     788:	01070200 	tsteq	r7, r0, lsl #4
     78c:	3a010000 	bcc	40794 <_start-0xa2fbf86c>
     790:	01000004 	tsteq	r0, r4
     794:	003d011e 	eoreqs	r0, sp, lr, lsl r1
     798:	03010000 	movweq	r0, #4096	; 0x1000
     79c:	1d010063 	stcne	0, cr0, [r1, #-396]
     7a0:	0000003d 	andeq	r0, r0, sp, lsr r0
     7a4:	01240700 	teqeq	r4, r0, lsl #14
     7a8:	00eb0000 	rsceq	r0, fp, r0
     7ac:	02580000 	subeqs	r0, r8, #0	; 0x0
     7b0:	026ca300 	rsbeq	sl, ip, #0	; 0x0
     7b4:	5d01a300 	stcpl	3, cr10, [r1]
     7b8:	0000fd08 	andeq	pc, r0, r8, lsl #26
     7bc:	0001dd00 	andeq	sp, r1, r0, lsl #26
     7c0:	41070000 	tstmi	r7, r0
     7c4:	21000001 	tstcs	r0, r1
     7c8:	6c000000 	stcvs	0, cr0, [r0], {0}
     7cc:	80a30002 	adchi	r0, r3, r2
     7d0:	01a30002 	moveq	r0, r2
     7d4:	0033085d 	eoreqs	r0, r3, sp, asr r8
     7d8:	01f00000 	mvneqs	r0, r0
     7dc:	05000000 	streq	r0, [r0]
     7e0:	0000016a 	andeq	r0, r0, sl, ror #2
     7e4:	0003cf01 	andeq	ip, r3, r1, lsl #30
     7e8:	01280100 	teqeq	r8, r0, lsl #2
     7ec:	0000003d 	andeq	r0, r0, sp, lsr r0
     7f0:	a3000280 	movwge	r0, #640	; 0x280
     7f4:	a3000294 	movwge	r0, #660	; 0x294
     7f8:	63065d01 	movwvs	r5, #27905	; 0x6d01
     7fc:	3d270100 	stfccs	f0, [r7]
     800:	03000000 	movweq	r0, #0	; 0x0
     804:	00000002 	andeq	r0, r0, r2
     808:	00019305 	andeq	r9, r1, r5, lsl #6
     80c:	047a0100 	ldreqbt	r0, [sl], #-256
     810:	2d010000 	stccs	0, cr0, [r1]
     814:	00003d01 	andeq	r3, r0, r1, lsl #26
     818:	00029400 	andeq	r9, r2, r0, lsl #8
     81c:	0002c8a3 	andeq	ip, r2, r3, lsr #17
     820:	065d01a3 	ldreqb	r0, [sp], -r3, lsr #3
     824:	2c010063 	stccs	0, cr0, [r1], {99}
     828:	0000003d 	andeq	r0, r0, sp, lsr r0
     82c:	00000216 	andeq	r0, r0, r6, lsl r2
     830:	01b00700 	moveqs	r0, r0, lsl #14
     834:	00440000 	subeq	r0, r4, r0
     838:	02c80000 	sbceq	r0, r8, #0	; 0x0
     83c:	02dca300 	sbceqs	sl, ip, #0	; 0x0
     840:	5d01a300 	stcpl	3, cr10, [r1]
     844:	00005608 	andeq	r5, r0, r8, lsl #12
     848:	00023400 	andeq	r3, r2, r0, lsl #8
     84c:	d9050000 	stmledb	r5, {}
     850:	01000001 	tsteq	r0, r1
     854:	0000045a 	andeq	r0, r0, sl, asr r4
     858:	3d013f01 	stccc	15, cr3, [r1, #-4]
     85c:	dc000000 	stcle	0, cr0, [r0], {0}
     860:	04a30002 	streqt	r0, [r3], #2
     864:	01a30003 	moveq	r0, r3
     868:	0063065d 	rsbeq	r0, r3, sp, asr r6
     86c:	003d3e01 	eoreqs	r3, sp, r1, lsl #28
     870:	02470000 	subeq	r0, r7, #0	; 0x0
     874:	09000000 	stmeqdb	r0, {}
     878:	00000204 	andeq	r0, r0, r4, lsl #4
     87c:	00044a01 	andeq	r4, r4, r1, lsl #20
     880:	01440100 	cmpeq	r4, r0, lsl #2
     884:	0000003d 	andeq	r0, r0, sp, lsr r0
     888:	a3000304 	movwge	r0, #772	; 0x304
     88c:	a3000330 	movwge	r0, #816	; 0x330
     890:	0000025a 	andeq	r0, r0, sl, asr r2
     894:	01006306 	tsteq	r0, r6, lsl #6
     898:	00003d43 	andeq	r3, r0, r3, asr #26
     89c:	00027900 	andeq	r7, r2, r0, lsl #18
     8a0:	2d050000 	stccs	0, cr0, [r5]
     8a4:	01000002 	tsteq	r0, r2
     8a8:	00000462 	andeq	r0, r0, r2, ror #8
     8ac:	3d015301 	stccc	3, cr5, [r1, #-4]
     8b0:	30000000 	andcc	r0, r0, r0
     8b4:	40a30003 	adcmi	r0, r3, r3
     8b8:	01a30003 	moveq	r0, r3
     8bc:	0063065d 	rsbeq	r0, r3, sp, asr r6
     8c0:	003d5201 	eoreqs	r5, sp, r1, lsl #4
     8c4:	02970000 	addeqs	r0, r7, #0	; 0x0
     8c8:	05000000 	streq	r0, [r0]
     8cc:	00000256 	andeq	r0, r0, r6, asr r2
     8d0:	00049201 	andeq	r9, r4, r1, lsl #4
     8d4:	01380100 	teqeq	r8, r0, lsl #2
     8d8:	0000003d 	andeq	r0, r0, sp, lsr r0
     8dc:	a3000340 	movwge	r0, #832	; 0x340
     8e0:	a3000374 	movwge	r0, #884	; 0x374
     8e4:	63065d01 	movwvs	r5, #27905	; 0x6d01
     8e8:	3d370100 	ldfccs	f0, [r7]
     8ec:	aa000000 	bge	8f4 <_start-0xa2fff70c>
     8f0:	00000002 	andeq	r0, r0, r2
     8f4:	00028109 	andeq	r8, r2, r9, lsl #2
     8f8:	04720100 	ldreqbt	r0, [r2], #-256
     8fc:	49010000 	stmmidb	r1, {}
     900:	00003d01 	andeq	r3, r0, r1, lsl #26
     904:	00037400 	andeq	r7, r3, r0, lsl #8
     908:	00039ca3 	andeq	r9, r3, r3, lsr #25
     90c:	0002c8a3 	andeq	ip, r2, r3, lsr #17
     910:	00630600 	rsbeq	r0, r3, r0, lsl #12
     914:	003d4801 	eoreqs	r4, sp, r1, lsl #16
     918:	02e70000 	rsceq	r0, r7, #0	; 0x0
     91c:	0a000000 	beq	924 <_start-0xa2fff6dc>
     920:	00048201 	andeq	r8, r4, r1, lsl #4
     924:	014e0100 	cmpeq	lr, r0, lsl #2
     928:	0000003d 	andeq	r0, r0, sp, lsr r0
     92c:	a300039c 	movwge	r0, #924	; 0x39c
     930:	a30003ac 	movwge	r0, #940	; 0x3ac
     934:	63065d01 	movwvs	r5, #27905	; 0x6d01
     938:	3d4d0100 	stfcce	f0, [sp]
     93c:	05000000 	streq	r0, [r0]
     940:	00000003 	andeq	r0, r0, r3
     944:	0000ec00 	andeq	lr, r0, r0, lsl #24
     948:	41000200 	tstmi	r0, r0, lsl #4
     94c:	04000004 	streq	r0, [r0], #-4
     950:	00068701 	andeq	r8, r6, r1, lsl #14
     954:	0004b000 	andeq	fp, r4, r0
     958:	0003aca3 	andeq	sl, r3, r3, lsr #25
     95c:	000063a3 	andeq	r6, r0, r3, lsr #7
     960:	04a30100 	streqt	r0, [r3], #256
     964:	b2020000 	andlt	r0, r2, #0	; 0x0
     968:	03000008 	movweq	r0, #8	; 0x8
     96c:	00002c20 	andeq	r2, r0, r0, lsr #24
     970:	00510300 	subeqs	r0, r1, r0, lsl #6
     974:	07040000 	streq	r0, [r4, -r0]
     978:	00007403 	andeq	r7, r0, r3, lsl #8
     97c:	03050400 	movweq	r0, #21504	; 0x5400
     980:	0000002a 	andeq	r0, r0, sl, lsr #32
     984:	42030801 	andmi	r0, r3, #65536	; 0x10000
     988:	02000000 	andeq	r0, r0, #0	; 0x0
     98c:	6e690405 	cdpvs	4, 6, cr0, cr9, cr5, {0}
     990:	05040074 	streq	r0, [r4, #-116]
     994:	00006f03 	andeq	r6, r0, r3, lsl #30
     998:	03050800 	movweq	r0, #22528	; 0x5800
     99c:	00000021 	andeq	r0, r0, r1, lsr #32
     9a0:	2f030801 	svccs	0x00030801
     9a4:	02000000 	andeq	r0, r0, #0	; 0x0
     9a8:	00560307 	subeqs	r0, r6, r7, lsl #6
     9ac:	07040000 	streq	r0, [r4, -r0]
     9b0:	00004c03 	andeq	r4, r0, r3, lsl #24
     9b4:	05070800 	streq	r0, [r7, #-2048]
     9b8:	00900604 	addeqs	r0, r0, r4, lsl #12
     9bc:	3a010000 	bcc	409c4 <_start-0xa2fbf63c>
     9c0:	02000004 	andeq	r0, r0, #4	; 0x4
     9c4:	0048011e 	subeq	r0, r8, lr, lsl r1
     9c8:	07030000 	streq	r0, [r3, -r0]
     9cc:	1d020063 	stcne	0, cr0, [r2, #-396]
     9d0:	00000048 	andeq	r0, r0, r8, asr #32
     9d4:	00e90800 	rsceq	r0, r9, r0, lsl #16
     9d8:	9b010000 	blls	409e0 <_start-0xa2fbf620>
     9dc:	01000004 	tsteq	r0, r4
     9e0:	03ac012d 	moveq	r0, #1073741835	; 0x4000000b
     9e4:	04b0a300 	ldreqt	sl, [r0], #768
     9e8:	0318a300 	tsteq	r8, #0	; 0x0
     9ec:	62090000 	andvs	r0, r9, #0	; 0x0
     9f0:	01006675 	tsteq	r0, r5, ror r6
     9f4:	0000722c 	andeq	r7, r0, ip, lsr #4
     9f8:	00033700 	andeq	r3, r3, r0, lsl #14
     9fc:	656c0900 	strvsb	r0, [ip, #-2304]!
     a00:	2c01006e 	stccs	0, cr0, [r1], {110}
     a04:	00000021 	andeq	r0, r0, r1, lsr #32
     a08:	00000355 	andeq	r0, r0, r5, asr r3
     a0c:	0100690a 	tsteq	r0, sl, lsl #18
     a10:	0000212e 	andeq	r2, r0, lr, lsr #2
     a14:	0b560100 	bleq	1580e1c <_start-0xa1a7f1e4>
     a18:	2e01006a 	cdpcs	0, 0, cr0, cr1, cr10, {3}
     a1c:	00000021 	andeq	r0, r0, r1, lsr #32
     a20:	00000373 	andeq	r0, r0, r3, ror r3
     a24:	0100620c 	tsteq	r0, ip, lsl #4
     a28:	0000e92f 	andeq	lr, r0, pc, lsr #18
     a2c:	040d0000 	streq	r0, [sp]
     a30:	0000003a 	andeq	r0, r0, sl, lsr r0
     a34:	0003e600 	andeq	lr, r3, r0, lsl #12
     a38:	f9000200 	undefined instruction 0xf9000200
     a3c:	04000004 	streq	r0, [r0], #-4
     a40:	0007a701 	andeq	sl, r7, r1, lsl #14
     a44:	00060000 	andeq	r0, r6, r0
     a48:	0004b0a3 	andeq	fp, r4, r3, lsr #1
     a4c:	000063a3 	andeq	r6, r0, r3, lsr #7
     a50:	05460100 	streqb	r0, [r6, #-256]
     a54:	51020000 	tstpl	r2, r0
     a58:	04000000 	streq	r0, [r0]
     a5c:	00740207 	rsbeqs	r0, r4, r7, lsl #4
     a60:	05040000 	streq	r0, [r4]
     a64:	00002a02 	andeq	r2, r0, r2, lsl #20
     a68:	02080100 	andeq	r0, r8, #0	; 0x0
     a6c:	00000042 	andeq	r0, r0, r2, asr #32
     a70:	69030502 	stmvsdb	r3, {r1, r8, sl}
     a74:	0400746e 	streq	r7, [r0], #-1134
     a78:	006f0205 	rsbeq	r0, pc, r5, lsl #4
     a7c:	05080000 	streq	r0, [r8]
     a80:	00050b04 	andeq	r0, r5, r4, lsl #22
     a84:	562a0400 	strplt	r0, [sl], -r0, lsl #8
     a88:	02000000 	andeq	r0, r0, #0	; 0x0
     a8c:	00000021 	andeq	r0, r0, r1, lsr #32
     a90:	2f020801 	svccs	0x00020801
     a94:	02000000 	andeq	r0, r0, #0	; 0x0
     a98:	00d90407 	sbceqs	r0, r9, r7, lsl #8
     a9c:	2c040000 	stccs	0, cr0, [r4], {0}
     aa0:	0000006f 	andeq	r0, r0, pc, rrx
     aa4:	00005602 	andeq	r5, r0, r2, lsl #12
     aa8:	02070400 	andeq	r0, r7, #0	; 0x0
     aac:	0000004c 	andeq	r0, r0, ip, asr #32
     ab0:	04050708 	streq	r0, [r5], #-1800
     ab4:	00011006 	andeq	r1, r1, r6
     ab8:	00060400 	andeq	r0, r6, r0, lsl #8
     abc:	26032800 	strcs	r2, [r3], -r0, lsl #16
     ac0:	00347207 	eoreqs	r7, r4, r7, lsl #4
     ac4:	00642703 	rsbeq	r2, r4, r3, lsl #14
     ac8:	23020000 	movwcs	r0, #8192	; 0x2000
     acc:	35720700 	ldrccb	r0, [r2, #-1792]!
     ad0:	64280300 	strvst	r0, [r8], #-768
     ad4:	02000000 	andeq	r0, r0, #0	; 0x0
     ad8:	72070423 	andvc	r0, r7, #587202560	; 0x23000000
     adc:	29030036 	stmcsdb	r3, {r1, r2, r4, r5}
     ae0:	00000064 	andeq	r0, r0, r4, rrx
     ae4:	07082302 	streq	r2, [r8, -r2, lsl #6]
     ae8:	03003772 	movweq	r3, #1906	; 0x772
     aec:	0000642a 	andeq	r6, r0, sl, lsr #8
     af0:	0c230200 	sfmeq	f0, 4, [r3]
     af4:	00387207 	eoreqs	r7, r8, r7, lsl #4
     af8:	00642b03 	rsbeq	r2, r4, r3, lsl #22
     afc:	23020000 	movwcs	r0, #8192	; 0x2000
     b00:	39720710 	ldmccdb	r2!, {r4, r8, r9, sl}^
     b04:	642c0300 	strvst	r0, [ip], #-768
     b08:	02000000 	andeq	r0, r0, #0	; 0x0
     b0c:	72071423 	andvc	r1, r7, #587202560	; 0x23000000
     b10:	03003031 	movweq	r3, #49	; 0x31
     b14:	0000642d 	andeq	r6, r0, sp, lsr #8
     b18:	18230200 	stmneda	r3!, {r9}
     b1c:	31317207 	teqcc	r1, r7, lsl #4
     b20:	642e0300 	strvst	r0, [lr], #-768
     b24:	02000000 	andeq	r0, r0, #0	; 0x0
     b28:	73071c23 	movwvc	r1, #31779	; 0x7c23
     b2c:	2f030070 	svccs	0x00030070
     b30:	0000007d 	andeq	r0, r0, sp, ror r0
     b34:	07202302 	streq	r2, [r0, -r2, lsl #6]!
     b38:	0300726c 	movweq	r7, #620	; 0x26c
     b3c:	00007d30 	andeq	r7, r0, r0, lsr sp
     b40:	24230200 	strcst	r0, [r3], #-512
     b44:	007f0800 	rsbeqs	r0, pc, r0, lsl #16
     b48:	86090000 	strhi	r0, [r9], -r0
     b4c:	74000001 	strvc	r0, [r0], #-1
     b50:	38006263 	stmccda	r0, {r0, r1, r5, r6, r9, sp, lr}
     b54:	0a360310 	beq	d8179c <_start-0xa227e864>
     b58:	000005dd 	ldreqd	r0, [r0], -sp
     b5c:	004b3703 	subeq	r3, fp, r3, lsl #14
     b60:	23020000 	movwcs	r0, #8192	; 0x2000
     b64:	0cbb0a00 	fldmiaseq	fp!, {s0-s-1}
     b68:	38030000 	stmccda	r3, {}
     b6c:	0000004b 	andeq	r0, r0, fp, asr #32
     b70:	0a012302 	beq	49780 <_start-0xa2fb6880>
     b74:	0000060a 	andeq	r0, r0, sl, lsl #12
     b78:	01103903 	tsteq	r0, r3, lsl #18
     b7c:	23020000 	movwcs	r0, #8192	; 0x2000
     b80:	05000a04 	streq	r0, [r0, #-2564]
     b84:	3a030000 	bcc	c0b8c <_start-0xa2f3f474>
     b88:	0000003d 	andeq	r0, r0, sp, lsr r0
     b8c:	0a2c2302 	beq	b0979c <_start-0xa24f6864>
     b90:	000005e9 	andeq	r0, r0, r9, ror #11
     b94:	01863b03 	orreq	r3, r6, r3, lsl #22
     b98:	23020000 	movwcs	r0, #8192	; 0x2000
     b9c:	05b70a30 	ldreq	r0, [r7, #2608]!
     ba0:	3e030000 	cdpcc	0, 0, cr0, cr3, cr0, {0}
     ba4:	00000191 	muleq	r0, r1, r1
     ba8:	0a382302 	beq	e097b8 <_start-0xa21f6848>
     bac:	000005ab 	andeq	r0, r0, fp, lsr #11
     bb0:	01a93f03 	moveq	r3, r3, lsl #30
     bb4:	23030000 	movwcs	r0, #12288	; 0x3000
     bb8:	0b0020b8 	bleq	8ea0 <_start-0xa2ff7160>
     bbc:	00018c04 	andeq	r8, r1, r4, lsl #24
     bc0:	01150800 	tsteq	r5, r0, lsl #16
     bc4:	a20c0000 	andge	r0, ip, #0	; 0x0
     bc8:	64000001 	strvs	r0, [r0], #-1
     bcc:	0d000000 	stceq	0, cr0, [r0]
     bd0:	000001a2 	andeq	r0, r0, r2, lsr #3
     bd4:	020003ff 	andeq	r0, r0, #-67108861	; 0xfc000003
     bd8:	00000056 	andeq	r0, r0, r6, asr r0
     bdc:	b80c0704 	stmltda	ip, {r2, r8, r9, sl}
     be0:	64000001 	strvs	r0, [r0], #-1
     be4:	0e000000 	cdpeq	0, 0, cr0, cr0, cr0, {0}
     be8:	000001a2 	andeq	r0, r0, r2, lsr #3
     bec:	01e10f00 	mvneq	r0, r0, lsl #30
     bf0:	65640000 	strvsb	r0, [r4]!
     bf4:	01080076 	tsteq	r8, r6, ror r0
     bf8:	05e90a2a 	streqb	r0, [r9, #2602]!
     bfc:	2b010000 	blcs	40c04 <_start-0xa2fbf3fc>
     c00:	00000186 	andeq	r0, r0, r6, lsl #3
     c04:	0a002302 	beq	9814 <_start-0xa2ff67ec>
     c08:	00000519 	andeq	r0, r0, r9, lsl r5
     c0c:	00212c01 	eoreq	r2, r1, r1, lsl #24
     c10:	23020000 	movwcs	r0, #8192	; 0x2000
     c14:	13040004 	movwne	r0, #16388	; 0x4004
     c18:	01000005 	tsteq	r0, r5
     c1c:	0001b82e 	andeq	fp, r1, lr, lsr #16
     c20:	020d1000 	andeq	r1, sp, #0	; 0x0
     c24:	f5010000 	undefined instruction 0xf5010000
     c28:	01000005 	tsteq	r0, r5
     c2c:	04b0013a 	ldreqt	r0, [r0], #314
     c30:	04eca300 	streqbt	sl, [ip], #768
     c34:	5d01a300 	stcpl	3, cr10, [r1]
     c38:	01006911 	tsteq	r0, r1, lsl r9
     c3c:	00003d3b 	andeq	r3, r0, fp, lsr sp
     c40:	50120000 	andpls	r0, r2, r0
     c44:	01000002 	tsteq	r0, r2
     c48:	00000524 	andeq	r0, r0, r4, lsr #10
     c4c:	ec017c01 	stc	12, cr7, [r1], {1}
     c50:	40a30004 	adcmi	r0, r3, r4
     c54:	91a30005 	movls	r0, r5
     c58:	13000003 	movwne	r0, #3	; 0x3
     c5c:	00766564 	rsbeqs	r6, r6, r4, ror #10
     c60:	006f7c01 	rsbeq	r7, pc, r1, lsl #24
     c64:	03b00000 	moveqs	r0, #0	; 0x0
     c68:	d8140000 	ldmleda	r4, {}
     c6c:	01000005 	tsteq	r0, r5
     c70:	0001867d 	andeq	r8, r1, sp, ror r6
     c74:	14540100 	ldrneb	r0, [r4], #-256
     c78:	0000061b 	andeq	r0, r0, fp, lsl r6
     c7c:	01867e01 	orreq	r7, r6, r1, lsl #28
     c80:	55010000 	strpl	r0, [r1]
     c84:	026a1500 	rsbeq	r1, sl, #0	; 0x0
     c88:	06010000 	streq	r0, [r1], -r0
     c8c:	02000000 	andeq	r0, r0, #0	; 0x0
     c90:	1603013f 	undefined
     c94:	00000700 	andeq	r0, r0, r0, lsl #14
     c98:	00644002 	rsbeq	r4, r4, r2
     c9c:	15000000 	strne	r0, [r0]
     ca0:	00000284 	andeq	r0, r0, r4, lsl #5
     ca4:	00053401 	andeq	r3, r5, r1, lsl #8
     ca8:	01370200 	teqeq	r7, r0, lsl #4
     cac:	07001603 	streq	r1, [r0, -r3, lsl #12]
     cb0:	38020000 	stmccda	r2, {}
     cb4:	00000064 	andeq	r0, r0, r4, rrx
     cb8:	031b1200 	tsteq	fp, #0	; 0x0
     cbc:	cd010000 	stcgt	0, cr0, [r1]
     cc0:	01000005 	tsteq	r0, r5
     cc4:	05400168 	streqb	r0, [r0, #-360]
     cc8:	05b4a300 	ldreq	sl, [r4, #768]!
     ccc:	03cea300 	biceq	sl, lr, #0	; 0x0
     cd0:	c6170000 	ldrgt	r0, [r7], -r0
     cd4:	01000005 	tsteq	r0, r5
     cd8:	00002167 	andeq	r2, r0, r7, ror #2
     cdc:	0003ed00 	andeq	lr, r3, r0, lsl #26
     ce0:	00691800 	rsbeq	r1, r9, r0, lsl #16
     ce4:	003d6a01 	eoreqs	r6, sp, r1, lsl #20
     ce8:	54010000 	strpl	r0, [r1]
     cec:	0002de19 	andeq	sp, r2, r9, lsl lr
     cf0:	00025000 	andeq	r5, r2, r0
     cf4:	00054800 	andeq	r4, r5, r0, lsl #16
     cf8:	00055ca3 	andeq	r5, r5, r3, lsr #25
     cfc:	1a6901a3 	bne	1a41390 <_start-0xa15bec70>
     d00:	a3000548 	movwge	r0, #1352	; 0x548
     d04:	a300055c 	movwge	r0, #1372	; 0x55c
     d08:	00025e1b 	andeq	r5, r2, fp, lsl lr
     d0c:	00042100 	andeq	r2, r4, r0, lsl #2
     d10:	1c000000 	stcne	0, cr0, [r0], {0}
     d14:	000002f7 	streqd	r0, [r0], -r7
     d18:	a300055c 	movwge	r0, #1372	; 0x55c
     d1c:	a300058c 	movwge	r0, #1420	; 0x58c
     d20:	76656411 	undefined
     d24:	1b6c0100 	blne	1b0112c <_start-0xa14feed4>
     d28:	00000003 	andeq	r0, r0, r3
     d2c:	00026a1d 	andeq	r6, r2, sp, lsl sl
     d30:	0005a000 	andeq	sl, r5, r0
     d34:	0005aca3 	andeq	sl, r5, r3, lsr #25
     d38:	1a7501a3 	bne	1d413cc <_start-0xa12bec34>
     d3c:	a30005a0 	movwge	r0, #1440	; 0x5a0
     d40:	a30005ac 	movwge	r0, #1452	; 0x5ac
     d44:	0002781b 	andeq	r7, r2, fp, lsl r8
     d48:	00043400 	andeq	r3, r4, r0, lsl #8
     d4c:	00000000 	andeq	r0, r0, r0
     d50:	01e1040b 	mvneq	r0, fp, lsl #8
     d54:	a1120000 	tstge	r2, r0
     d58:	01000003 	tsteq	r0, r3
     d5c:	00000612 	andeq	r0, r0, r2, lsl r6
     d60:	b4014a01 	strlt	r4, [r1], #-2561
     d64:	00a30005 	adceq	r0, r3, r5
     d68:	47a30006 	strmi	r0, [r3, r6]!
     d6c:	13000004 	movwne	r0, #4	; 0x4
     d70:	00766564 	rsbeqs	r6, r6, r4, ror #10
     d74:	006f4901 	rsbeq	r4, pc, r1, lsl #18
     d78:	04660000 	streqbt	r0, [r6]
     d7c:	fe140000 	cdp2	0, 1, cr0, cr4, cr0, {0}
     d80:	01000005 	tsteq	r0, r5
     d84:	0001864d 	andeq	r8, r1, sp, asr #12
     d88:	19550100 	ldmnedb	r5, {r8}^
     d8c:	0000037d 	andeq	r0, r0, sp, ror r3
     d90:	00000250 	andeq	r0, r0, r0, asr r2
     d94:	a30005bc 	movwge	r0, #1468	; 0x5bc
     d98:	a30005c8 	movwge	r0, #1480	; 0x5c8
     d9c:	bc1a4b01 	ldclt	11, cr4, [sl], {1}
     da0:	c8a30005 	stmgtia	r3!, {r0, r2}
     da4:	1ba30005 	blne	fe8c0dc0 <__bss_end__+0x5b87e1f8>
     da8:	0000025e 	andeq	r0, r0, lr, asr r2
     dac:	00000484 	andeq	r0, r0, r4, lsl #9
     db0:	6a1d0000 	bvs	740db8 <_start-0xa28bf248>
     db4:	ec000002 	stc	0, cr0, [r0], {2}
     db8:	f8a30005 	undefined instruction 0xf8a30005
     dbc:	01a30005 	moveq	r0, r5
     dc0:	05ec1a5c 	streqb	r1, [ip, #2652]!
     dc4:	05f8a300 	ldreqb	sl, [r8, #768]!
     dc8:	781ba300 	ldmvcda	fp, {r8, r9, sp, pc}
     dcc:	a2000002 	andge	r0, r0, #2	; 0x2
     dd0:	00000004 	andeq	r0, r0, r4
     dd4:	b10c0000 	tstlt	ip, r0
     dd8:	e1000003 	tst	r0, r3
     ddc:	1e000001 	cdpne	0, 0, cr0, cr0, cr1, {0}
     de0:	000001a2 	andeq	r0, r0, r2, lsr #3
     de4:	be140003 	wxorlt	wr0, wr4, wr3
     de8:	01000005 	tsteq	r0, r5
     dec:	0003a132 	andeq	sl, r3, r2, lsr r1
     df0:	68030500 	stmvsda	r3, {r8, sl}
     df4:	0ca30019 	stceq	0, cr0, [r3], #100
     df8:	000003d2 	ldreqd	r0, [r0], -r2
     dfc:	00000021 	andeq	r0, r0, r1, lsr #32
     e00:	0001a21e 	andeq	sl, r1, lr, lsl r2
     e04:	1f000300 	svcne	0x00000300
     e08:	000005a2 	andeq	r0, r0, r2, lsr #11
     e0c:	03e43101 	mvneq	r3, #1073741824	; 0x40000000
     e10:	05010000 	streq	r0, [r1]
     e14:	00164c03 	andeqs	r4, r6, r3, lsl #24
     e18:	03c220a3 	biceq	r2, r2, #163	; 0xa3
     e1c:	62000000 	andvs	r0, r0, #0	; 0x0
     e20:	02000001 	andeq	r0, r0, #1	; 0x1
     e24:	00069e00 	andeq	r9, r6, r0, lsl #28
     e28:	6a010400 	bvs	41e30 <_start-0xa2fbe1d0>
     e2c:	40000009 	andmi	r0, r0, r9
     e30:	00a30006 	adceq	r0, r3, r6
     e34:	63a30006 	movvs	r0, #6	; 0x6
     e38:	01000000 	tsteq	r0, r0
     e3c:	0000062f 	andeq	r0, r0, pc, lsr #12
     e40:	0008b202 	andeq	fp, r8, r2, lsl #4
     e44:	2c200200 	sfmcs	f0, 4, [r0]
     e48:	03000000 	movweq	r0, #0	; 0x0
     e4c:	00000051 	andeq	r0, r0, r1, asr r0
     e50:	74030704 	strvc	r0, [r3], #-1796
     e54:	04000000 	streq	r0, [r0]
     e58:	002a0305 	eoreq	r0, sl, r5, lsl #6
     e5c:	08010000 	stmeqda	r1, {}
     e60:	00004203 	andeq	r4, r0, r3, lsl #4
     e64:	04050200 	streq	r0, [r5], #-512
     e68:	00746e69 	rsbeqs	r6, r4, r9, ror #28
     e6c:	6f030504 	svcvs	0x00030504
     e70:	08000000 	stmeqda	r0, {}
     e74:	00210305 	eoreq	r0, r1, r5, lsl #6
     e78:	08010000 	stmeqda	r1, {}
     e7c:	00002f03 	andeq	r2, r0, r3, lsl #30
     e80:	02070200 	andeq	r0, r7, #0	; 0x0
     e84:	000000d9 	ldreqd	r0, [r0], -r9
     e88:	006f2c02 	rsbeq	r2, pc, r2, lsl #24
     e8c:	56030000 	strpl	r0, [r3], -r0
     e90:	04000000 	streq	r0, [r0]
     e94:	004c0307 	subeq	r0, ip, r7, lsl #6
     e98:	07080000 	streq	r0, [r8, -r0]
     e9c:	0000a805 	andeq	sl, r0, r5, lsl #16
     ea0:	06200100 	streqt	r0, [r0], -r0, lsl #2
     ea4:	13010000 	movwne	r0, #4096	; 0x1000
     ea8:	00006401 	andeq	r6, r0, r1, lsl #8
     eac:	00060000 	andeq	r0, r6, r0
     eb0:	00060ca3 	andeq	r0, r6, r3, lsr #25
     eb4:	065d01a3 	ldreqb	r0, [sp], -r3, lsr #3
     eb8:	00000351 	andeq	r0, r0, r1, asr r3
     ebc:	00211201 	eoreq	r1, r1, r1, lsl #4
     ec0:	04b50000 	ldreqt	r0, [r5]
     ec4:	07000000 	streq	r0, [r0, -r0]
     ec8:	000000dc 	ldreqd	r0, [r0], -ip
     ecc:	0000fe01 	andeq	pc, r0, r1, lsl #28
     ed0:	01180100 	tsteq	r8, r0, lsl #2
     ed4:	a300060c 	movwge	r0, #1548	; 0x60c
     ed8:	a3000618 	movwge	r0, #1560	; 0x618
     edc:	51065d01 	tstpl	r6, r1, lsl #26
     ee0:	01000003 	tsteq	r0, r3
     ee4:	00002117 	andeq	r2, r0, r7, lsl r1
     ee8:	0004c800 	andeq	ip, r4, r0, lsl #16
     eec:	01800800 	orreq	r0, r0, r0, lsl #16
     ef0:	17010000 	strne	r0, [r1, -r0]
     ef4:	00000064 	andeq	r0, r0, r4, rrx
     ef8:	07005101 	streq	r5, [r0, -r1, lsl #2]
     efc:	0000011d 	andeq	r0, r0, sp, lsl r1
     f00:	00069601 	andeq	r9, r6, r1, lsl #12
     f04:	011d0100 	tsteq	sp, r0, lsl #2
     f08:	a3000618 	movwge	r0, #1560	; 0x618
     f0c:	a300062c 	movwge	r0, #1580	; 0x62c
     f10:	51065d01 	tstpl	r6, r1, lsl #26
     f14:	01000003 	tsteq	r0, r3
     f18:	0000211c 	andeq	r2, r0, ip, lsl r1
     f1c:	0004db00 	andeq	sp, r4, r0, lsl #22
     f20:	06290800 	streqt	r0, [r9], -r0, lsl #16
     f24:	1c010000 	stcne	0, cr0, [r1], {0}
     f28:	00000064 	andeq	r0, r0, r4, rrx
     f2c:	72095101 	andvc	r5, r9, #1073741824	; 0x40000000
     f30:	01006765 	tsteq	r0, r5, ror #14
     f34:	00011d1e 	andeq	r1, r1, lr, lsl sp
     f38:	00500100 	subeqs	r0, r0, r0, lsl #2
     f3c:	0123040a 	teqeq	r3, sl, lsl #8
     f40:	640b0000 	strvs	r0, [fp]
     f44:	0c000000 	stceq	0, cr0, [r0], {0}
     f48:	00068c01 	andeq	r8, r6, r1, lsl #24
     f4c:	01230100 	teqeq	r3, r0, lsl #2
     f50:	a300062c 	movwge	r0, #1580	; 0x62c
     f54:	a3000640 	movwge	r0, #1600	; 0x640
     f58:	51065d01 	tstpl	r6, r1, lsl #26
     f5c:	01000003 	tsteq	r0, r3
     f60:	00002122 	andeq	r2, r0, r2, lsr #2
     f64:	0004ee00 	andeq	lr, r4, r0, lsl #28
     f68:	06290800 	streqt	r0, [r9], -r0, lsl #16
     f6c:	22010000 	andcs	r0, r1, #0	; 0x0
     f70:	00000064 	andeq	r0, r0, r4, rrx
     f74:	72095101 	andvc	r5, r9, #1073741824	; 0x40000000
     f78:	01006765 	tsteq	r0, r5, ror #14
     f7c:	00011d24 	andeq	r1, r1, r4, lsr #26
     f80:	00500100 	subeqs	r0, r0, r0, lsl #2
     f84:	00009600 	andeq	r9, r0, r0, lsl #12
     f88:	55000200 	strpl	r0, [r0, #-512]
     f8c:	04000007 	streq	r0, [r0], #-7
     f90:	000a7001 	andeq	r7, sl, r1
     f94:	00064800 	andeq	r4, r6, r0, lsl #16
     f98:	000640a3 	andeq	r4, r6, r3, lsr #1
     f9c:	000063a3 	andeq	r6, r0, r3, lsr #7
     fa0:	069e0100 	ldreq	r0, [lr], r0, lsl #2
     fa4:	51020000 	tstpl	r2, r0
     fa8:	04000000 	streq	r0, [r0]
     fac:	00740207 	rsbeqs	r0, r4, r7, lsl #4
     fb0:	05040000 	streq	r0, [r4]
     fb4:	00002a02 	andeq	r2, r0, r2, lsl #20
     fb8:	02080100 	andeq	r0, r8, #0	; 0x0
     fbc:	00000042 	andeq	r0, r0, r2, asr #32
     fc0:	69030502 	stmvsdb	r3, {r1, r8, sl}
     fc4:	0400746e 	streq	r7, [r0], #-1134
     fc8:	006f0205 	rsbeq	r0, pc, r5, lsl #4
     fcc:	05080000 	streq	r0, [r8]
     fd0:	00002102 	andeq	r2, r0, r2, lsl #2
     fd4:	02080100 	andeq	r0, r8, #0	; 0x0
     fd8:	0000002f 	andeq	r0, r0, pc, lsr #32
     fdc:	d9040702 	stmledb	r4, {r1, r8, r9, sl}
     fe0:	02000000 	andeq	r0, r0, #0	; 0x0
     fe4:	0000642c 	andeq	r6, r0, ip, lsr #8
     fe8:	00560200 	subeqs	r0, r6, r0, lsl #4
     fec:	07040000 	streq	r0, [r4, -r0]
     ff0:	00004c02 	andeq	r4, r0, r2, lsl #24
     ff4:	05070800 	streq	r0, [r7, #-2048]
     ff8:	0006fb01 	andeq	pc, r6, r1, lsl #22
     ffc:	01230100 	teqeq	r3, r0, lsl #2
    1000:	00000059 	andeq	r0, r0, r9, asr r0
    1004:	a3000640 	movwge	r0, #1600	; 0x640
    1008:	a3000648 	movwge	r0, #1608	; 0x648
    100c:	00065d01 	andeq	r5, r6, r1, lsl #26
    1010:	01000007 	tsteq	r0, r7
    1014:	00005924 	andeq	r5, r0, r4, lsr #18
    1018:	00050100 	andeq	r0, r5, r0, lsl #2
    101c:	7e000000 	cdpvc	0, 0, cr0, cr0, cr0, {0}
    1020:	02000000 	andeq	r0, r0, #0	; 0x0
    1024:	0007b000 	andeq	fp, r7, r0
    1028:	6b010400 	blvs	42030 <_start-0xa2fbdfd0>
    102c:	ac00000b 	stcge	0, cr0, [r0], {11}
    1030:	a8a30006 	stmgeia	r3!, {r1, r2}
    1034:	63a30006 	movvs	r0, #6	; 0x6
    1038:	01000000 	tsteq	r0, r0
    103c:	00000713 	andeq	r0, r0, r3, lsl r7
    1040:	00005102 	andeq	r5, r0, r2, lsl #2
    1044:	02070400 	andeq	r0, r7, #0	; 0x0
    1048:	00000074 	andeq	r0, r0, r4, ror r0
    104c:	2a020504 	bcs	82464 <_start-0xa2f7db9c>
    1050:	01000000 	tsteq	r0, r0
    1054:	00420208 	subeq	r0, r2, r8, lsl #4
    1058:	05020000 	streq	r0, [r2]
    105c:	746e6903 	strvcbt	r6, [lr], #-2307
    1060:	02050400 	andeq	r0, r5, #0	; 0x0
    1064:	0000006f 	andeq	r0, r0, pc, rrx
    1068:	21020508 	tstcs	r2, r8, lsl #10
    106c:	01000000 	tsteq	r0, r0
    1070:	002f0208 	eoreq	r0, pc, r8, lsl #4
    1074:	07020000 	streq	r0, [r2, -r0]
    1078:	00005602 	andeq	r5, r0, r2, lsl #12
    107c:	02070400 	andeq	r0, r7, #0	; 0x0
    1080:	0000004c 	andeq	r0, r0, ip, asr #32
    1084:	56020708 	strpl	r0, [r2], -r8, lsl #14
    1088:	04000000 	streq	r0, [r0]
    108c:	05010407 	streq	r0, [r1, #-1031]
    1090:	01000007 	tsteq	r0, r7
    1094:	06a80110 	ssateq	r0, #9, r0, LSL #2
    1098:	06aca300 	streqt	sl, [ip], r0, lsl #6
    109c:	5d01a300 	stcpl	3, cr10, [r1]
    10a0:	00018e00 	andeq	r8, r1, r0, lsl #28
    10a4:	ed000200 	sfm	f0, 4, [r0]
    10a8:	04000007 	streq	r0, [r0], #-7
    10ac:	000c0101 	andeq	r0, ip, r1, lsl #2
    10b0:	00079400 	andeq	r9, r7, r0, lsl #8
    10b4:	0006aca3 	andeq	sl, r6, r3, lsr #25
    10b8:	000063a3 	andeq	r6, r0, r3, lsr #7
    10bc:	079b0100 	ldreq	r0, [fp, r0, lsl #2]
    10c0:	b2020000 	andlt	r0, r2, #0	; 0x0
    10c4:	02000008 	andeq	r0, r0, #8	; 0x8
    10c8:	00002c20 	andeq	r2, r0, r0, lsr #24
    10cc:	00510300 	subeqs	r0, r1, r0, lsl #6
    10d0:	07040000 	streq	r0, [r4, -r0]
    10d4:	00007403 	andeq	r7, r0, r3, lsl #8
    10d8:	03050400 	movweq	r0, #21504	; 0x5400
    10dc:	0000002a 	andeq	r0, r0, sl, lsr #32
    10e0:	42030801 	andmi	r0, r3, #65536	; 0x10000
    10e4:	02000000 	andeq	r0, r0, #0	; 0x0
    10e8:	6e690405 	cdpvs	4, 6, cr0, cr9, cr5, {0}
    10ec:	05040074 	streq	r0, [r4, #-116]
    10f0:	00006f03 	andeq	r6, r0, r3, lsl #30
    10f4:	03050800 	movweq	r0, #22528	; 0x5800
    10f8:	00000021 	andeq	r0, r0, r1, lsr #32
    10fc:	2f030801 	svccs	0x00030801
    1100:	02000000 	andeq	r0, r0, #0	; 0x0
    1104:	00560307 	subeqs	r0, r6, r7, lsl #6
    1108:	07040000 	streq	r0, [r4, -r0]
    110c:	00004c03 	andeq	r4, r0, r3, lsl #24
    1110:	05070800 	streq	r0, [r7, #-2048]
    1114:	0000007e 	andeq	r0, r0, lr, ror r0
    1118:	007e0601 	rsbeqs	r0, lr, r1, lsl #12
    111c:	07000000 	streq	r0, [r0, -r0]
    1120:	015a0204 	cmpeq	sl, r4, lsl #4
    1124:	13030000 	movwne	r0, #12288	; 0x3000
    1128:	0000008b 	andeq	r0, r0, fp, lsl #1
    112c:	00720408 	rsbeqs	r0, r2, r8, lsl #8
    1130:	e0090000 	and	r0, r9, r0
    1134:	ed000000 	stc	0, cr0, [r0]
    1138:	1400000a 	strne	r0, [r0], #-10
    113c:	fb0a1603 	blx	286952 <_start-0xa2d796ae>
    1140:	03000001 	movweq	r0, #1	; 0x1
    1144:	00008017 	andeq	r8, r0, r7, lsl r0
    1148:	00230200 	eoreq	r0, r3, r0, lsl #4
    114c:	0001800a 	andeq	r8, r1, sl
    1150:	7e180300 	cdpvc	3, 1, cr0, cr8, cr0, {0}
    1154:	02000000 	andeq	r0, r0, #0	; 0x0
    1158:	420a0423 	andmi	r0, sl, #587202560	; 0x23000000
    115c:	03000001 	movweq	r0, #1	; 0x1
    1160:	00007e19 	andeq	r7, r0, r9, lsl lr
    1164:	08230200 	stmeqda	r3!, {r9}
    1168:	0300430b 	movweq	r4, #779	; 0x30b
    116c:	00002c1a 	andeq	r2, r0, sl, lsl ip
    1170:	0c230200 	sfmeq	f0, 4, [r3]
    1174:	0300540b 	movweq	r5, #1035	; 0x40b
    1178:	00002c1b 	andeq	r2, r0, fp, lsl ip
    117c:	10230200 	eorne	r0, r3, r0, lsl #4
    1180:	010f0200 	tsteq	pc, r0, lsl #4
    1184:	1d030000 	stcne	0, cr0, [r3]
    1188:	00000091 	muleq	r0, r1, r0
    118c:	00005603 	andeq	r5, r0, r3, lsl #12
    1190:	0c070400 	cfstrseq	mvf0, [r7], {0}
    1194:	00000185 	andeq	r0, r0, r5, lsl #3
    1198:	00078001 	andeq	r8, r7, r1
    119c:	010f0100 	tsteq	pc, r0, lsl #2
    11a0:	00000048 	andeq	r0, r0, r8, asr #32
    11a4:	a30006ac 	movwge	r0, #1708	; 0x6ac
    11a8:	a3000794 	movwge	r0, #1940	; 0x794
    11ac:	00000514 	andeq	r0, r0, r4, lsl r5
    11b0:	0007930d 	andeq	r9, r7, sp, lsl #6
    11b4:	640f0100 	strvs	r0, [pc], #256	; 11bc <_start-0xa2ffee44>
    11b8:	33000000 	movwcc	r0, #0	; 0x0
    11bc:	0d000005 	stceq	0, cr0, [r0, #-20]
    11c0:	0000078e 	andeq	r0, r0, lr, lsl #15
    11c4:	01850f01 	orreq	r0, r5, r1, lsl #30
    11c8:	05460000 	streqb	r0, [r6]
    11cc:	660e0000 	strvs	r0, [lr], -r0
    11d0:	12010064 	andne	r0, r1, #100	; 0x64
    11d4:	00000048 	andeq	r0, r0, r8, asr #32
    11d8:	6675620e 	ldrvsbt	r6, [r5], -lr, lsl #4
    11dc:	7e130100 	mufvcs	f0, f3, f0
    11e0:	0f000000 	svceq	0x00000000
    11e4:	0000080c 	andeq	r0, r0, ip, lsl #16
    11e8:	00211401 	eoreq	r1, r1, r1, lsl #8
    11ec:	c60f0000 	strgt	r0, [pc], -r0
    11f0:	01000005 	tsteq	r0, r5
    11f4:	00006417 	andeq	r6, r0, r7, lsl r4
    11f8:	0ac70f00 	beq	ff1c4e00 <__bss_end__+0x5c182238>
    11fc:	1a010000 	bne	41204 <_start-0xa2fbedfc>
    1200:	0000018b 	andeq	r0, r0, fp, lsl #3
    1204:	0008020f 	andeq	r0, r8, pc, lsl #4
    1208:	211b0100 	tstcs	fp, r0, lsl #2
    120c:	0e000000 	cdpeq	0, 0, cr0, cr0, cr0, {0}
    1210:	00766564 	rsbeqs	r6, r6, r4, ror #10
    1214:	00641e01 	rsbeq	r1, r4, r1, lsl #28
    1218:	7a0f0000 	bvc	3c1220 <_start-0xa2c3ede0>
    121c:	01000007 	tsteq	r0, r7
    1220:	00004821 	andeq	r4, r0, r1, lsr #16
    1224:	04080000 	streq	r0, [r8]
    1228:	00000064 	andeq	r0, r0, r4, rrx
    122c:	00e00408 	rsceq	r0, r0, r8, lsl #8
    1230:	0e000000 	cdpeq	0, 0, cr0, cr0, cr0, {0}
    1234:	02000002 	andeq	r0, r0, #2	; 0x2
    1238:	0008b100 	andeq	fp, r8, r0, lsl #2
    123c:	47010400 	strmi	r0, [r1, -r0, lsl #8]
    1240:	6000000d 	andvs	r0, r0, sp
    1244:	e4a30008 	strt	r0, [r3], #8
    1248:	63a30007 	movvs	r0, #7	; 0x7
    124c:	01000000 	tsteq	r0, r0
    1250:	00000811 	andeq	r0, r0, r1, lsl r8
    1254:	0008b202 	andeq	fp, r8, r2, lsl #4
    1258:	2c200300 	stccs	3, cr0, [r0]
    125c:	03000000 	movweq	r0, #0	; 0x0
    1260:	00000051 	andeq	r0, r0, r1, asr r0
    1264:	74030704 	strvc	r0, [r3], #-1796
    1268:	04000000 	streq	r0, [r0]
    126c:	002a0305 	eoreq	r0, sl, r5, lsl #6
    1270:	08010000 	stmeqda	r1, {}
    1274:	00004203 	andeq	r4, r0, r3, lsl #4
    1278:	04050200 	streq	r0, [r5], #-512
    127c:	00746e69 	rsbeqs	r6, r4, r9, ror #28
    1280:	6f030504 	svcvs	0x00030504
    1284:	08000000 	stmeqda	r0, {}
    1288:	00210305 	eoreq	r0, r1, r5, lsl #6
    128c:	08010000 	stmeqda	r1, {}
    1290:	00002f03 	andeq	r2, r0, r3, lsl #30
    1294:	02070200 	andeq	r0, r7, #0	; 0x0
    1298:	000000d9 	ldreqd	r0, [r0], -r9
    129c:	006f2c03 	rsbeq	r2, pc, r3, lsl #24
    12a0:	56030000 	strpl	r0, [r3], -r0
    12a4:	04000000 	streq	r0, [r0]
    12a8:	004c0307 	subeq	r0, ip, r7, lsl #6
    12ac:	07080000 	streq	r0, [r8, -r0]
    12b0:	0000a205 	andeq	sl, r0, r5, lsl #4
    12b4:	00fe0100 	rsceqs	r0, lr, r0, lsl #2
    12b8:	18020000 	stmneda	r2, {}
    12bc:	51060301 	tstpl	r6, r1, lsl #6
    12c0:	02000003 	andeq	r0, r0, #3	; 0x3
    12c4:	00002117 	andeq	r2, r0, r7, lsl r1
    12c8:	01800600 	orreq	r0, r0, r0, lsl #12
    12cc:	17020000 	strne	r0, [r2, -r0]
    12d0:	00000064 	andeq	r0, r0, r4, rrx
    12d4:	00d20500 	sbceqs	r0, r2, r0, lsl #10
    12d8:	96010000 	strls	r0, [r1], -r0
    12dc:	02000006 	andeq	r0, r0, #6	; 0x6
    12e0:	0603011d 	undefined
    12e4:	00000351 	andeq	r0, r0, r1, asr r3
    12e8:	00211c02 	eoreq	r1, r1, r2, lsl #24
    12ec:	29060000 	stmcsdb	r6, {}
    12f0:	02000006 	andeq	r0, r0, #6	; 0x6
    12f4:	0000641c 	andeq	r6, r0, ip, lsl r4
    12f8:	65720700 	ldrvsb	r0, [r2, #-1792]!
    12fc:	1e020067 	cdpne	0, 0, cr0, cr2, cr7, {3}
    1300:	000000d2 	ldreqd	r0, [r0], -r2
    1304:	d8040800 	stmleda	r4, {fp}
    1308:	09000000 	stmeqdb	r0, {}
    130c:	00000064 	andeq	r0, r0, r4, rrx
    1310:	0001560a 	andeq	r5, r1, sl, lsl #12
    1314:	087a0100 	ldmeqda	sl!, {r8}^
    1318:	1c010000 	stcne	0, cr0, [r1], {0}
    131c:	0007e401 	andeq	lr, r7, r1, lsl #8
    1320:	000820a3 	andeq	r2, r8, r3, lsr #1
    1324:	0b5d01a3 	bleq	17419b8 <_start-0xa18be648>
    1328:	0000010e 	andeq	r0, r0, lr, lsl #2
    132c:	0000007d 	andeq	r0, r0, sp, ror r0
    1330:	00000000 	andeq	r0, r0, r0
    1334:	960c2601 	strls	r2, [ip], -r1, lsl #12
    1338:	0c000000 	stceq	0, cr0, [r0], {0}
    133c:	0000008b 	andeq	r0, r0, fp, lsl #1
    1340:	012c0d00 	teqeq	ip, r0, lsl #26
    1344:	007d0000 	rsbeqs	r0, sp, r0
    1348:	08000000 	stmeqda	r0, {}
    134c:	0804a300 	stmeqda	r4, {r8, r9, sp, pc}
    1350:	2901a300 	stmcsdb	r1, {r8, r9, sp, pc}
    1354:	0000960c 	andeq	r9, r0, ip, lsl #12
    1358:	008b0c00 	addeq	r0, fp, r0, lsl #24
    135c:	0e000000 	cdpeq	0, 0, cr0, cr0, cr0, {0}
    1360:	000000a2 	andeq	r0, r0, r2, lsr #1
    1364:	a3000804 	movwge	r0, #2052	; 0x804
    1368:	a3000810 	movwge	r0, #2064	; 0x810
    136c:	bb0c2f01 	bllt	30cf78 <_start-0xa2cf3088>
    1370:	0c000000 	stceq	0, cr0, [r0], {0}
    1374:	000000b0 	streqh	r0, [r0], -r0
    1378:	0008040f 	andeq	r0, r8, pc, lsl #8
    137c:	000810a3 	andeq	r1, r8, r3, lsr #1
    1380:	00c610a3 	sbceq	r1, r6, r3, lsr #1
    1384:	00000000 	andeq	r0, r0, r0
    1388:	01741100 	cmneq	r4, r0, lsl #2
    138c:	20010000 	andcs	r0, r1, r0
    1390:	02000006 	andeq	r0, r0, #6	; 0x6
    1394:	00640113 	rsbeq	r0, r4, r3, lsl r1
    1398:	06030000 	streq	r0, [r3], -r0
    139c:	00000351 	andeq	r0, r0, r1, asr r3
    13a0:	00211202 	eoreq	r1, r1, r2, lsl #4
    13a4:	0a000000 	beq	13ac <_start-0xa2ffec54>
    13a8:	000001e8 	andeq	r0, r0, r8, ror #3
    13ac:	00087001 	andeq	r7, r8, r1
    13b0:	01340100 	teqeq	r4, r0, lsl #2
    13b4:	a3000820 	movwge	r0, #2080	; 0x820
    13b8:	a3000860 	movwge	r0, #2144	; 0x860
    13bc:	90125d01 	andlss	r5, r2, r1, lsl #26
    13c0:	01000008 	tsteq	r0, r8
    13c4:	00006440 	andeq	r6, r0, r0, asr #8
    13c8:	0005c700 	andeq	ip, r5, r0, lsl #14
    13cc:	01b40b00 	moveqs	r0, r0, lsl #22
    13d0:	007d0000 	rsbeqs	r0, sp, r0
    13d4:	00180000 	andeqs	r0, r8, r0
    13d8:	41010000 	tstmi	r1, r0
    13dc:	0000960c 	andeq	r9, r0, ip, lsl #12
    13e0:	008b0c00 	addeq	r0, fp, r0, lsl #24
    13e4:	0d000000 	stceq	0, cr0, [r0]
    13e8:	000001cd 	andeq	r0, r0, sp, asr #3
    13ec:	00000156 	andeq	r0, r0, r6, asr r1
    13f0:	a300083c 	movwge	r0, #2108	; 0x83c
    13f4:	a3000840 	movwge	r0, #2112	; 0x840
    13f8:	680c4201 	stmvsda	ip, {r0, r9, lr}
    13fc:	00000001 	andeq	r0, r0, r1
    1400:	00007d0e 	andeq	r7, r0, lr, lsl #26
    1404:	00084400 	andeq	r4, r8, r0, lsl #8
    1408:	000848a3 	andeq	r4, r8, r3, lsr #17
    140c:	0c4401a3 	stfeqe	f0, [r4], {163}
    1410:	00000096 	muleq	r0, r6, r0
    1414:	00008b0c 	andeq	r8, r0, ip, lsl #22
    1418:	13000000 	movwne	r0, #0	; 0x0
    141c:	00000895 	muleq	r0, r5, r8
    1420:	01fa1301 	mvneqs	r1, r1, lsl #6
    1424:	05010000 	streq	r0, [r1]
    1428:	001ac003 	andeqs	ip, sl, r3
    142c:	006f09a3 	rsbeq	r0, pc, r3, lsr #19
    1430:	85130000 	ldrhi	r0, [r3]
    1434:	01000008 	tsteq	r0, r8
    1438:	0001fa14 	andeq	pc, r1, r4, lsl sl
    143c:	03050100 	movweq	r0, #20736	; 0x5100
    1440:	a3001abc 	movwge	r1, #2748	; 0xabc
    1444:	00018400 	andeq	r8, r1, r0, lsl #8
    1448:	b5000200 	strlt	r0, [r0, #-512]
    144c:	04000009 	streq	r0, [r0], #-9
    1450:	000ee301 	andeq	lr, lr, r1, lsl #6
    1454:	0009fc00 	andeq	pc, r9, r0, lsl #24
    1458:	0008b0a3 	andeq	fp, r8, r3, lsr #1
    145c:	000063a3 	andeq	r6, r0, r3, lsr #7
    1460:	08db0100 	ldmeqia	fp, {r8}^
    1464:	b2020000 	andlt	r0, r2, #0	; 0x0
    1468:	02000008 	andeq	r0, r0, #8	; 0x8
    146c:	00002c20 	andeq	r2, r0, r0, lsr #24
    1470:	00510300 	subeqs	r0, r1, r0, lsl #6
    1474:	07040000 	streq	r0, [r4, -r0]
    1478:	0008b102 	andeq	fp, r8, r2, lsl #2
    147c:	3e210200 	cdpcc	2, 2, cr0, cr1, cr0, {0}
    1480:	03000000 	movweq	r0, #0	; 0x0
    1484:	00000074 	andeq	r0, r0, r4, ror r0
    1488:	2a030504 	bcs	c28a0 <_start-0xa2f3d760>
    148c:	01000000 	tsteq	r0, r0
    1490:	00420308 	subeq	r0, r2, r8, lsl #6
    1494:	05020000 	streq	r0, [r2]
    1498:	746e6904 	strvcbt	r6, [lr], #-2308
    149c:	03050400 	movweq	r0, #21504	; 0x5400
    14a0:	0000006f 	andeq	r0, r0, pc, rrx
    14a4:	21030508 	tstcs	r3, r8, lsl #10
    14a8:	01000000 	tsteq	r0, r0
    14ac:	002f0308 	eoreq	r0, pc, r8, lsl #6
    14b0:	07020000 	streq	r0, [r2, -r0]
    14b4:	00005603 	andeq	r5, r0, r3, lsl #12
    14b8:	03070400 	movweq	r0, #29696	; 0x7400
    14bc:	0000004c 	andeq	r0, r0, ip, asr #32
    14c0:	04050708 	streq	r0, [r5], #-1800
    14c4:	00005603 	andeq	r5, r0, r3, lsl #12
    14c8:	06070400 	streq	r0, [r7], -r0, lsl #8
    14cc:	000000f5 	streqd	r0, [r0], -r5
    14d0:	0008cd01 	andeq	ip, r8, r1, lsl #26
    14d4:	015d0100 	cmpeq	sp, r0, lsl #2
    14d8:	00000033 	andeq	r0, r0, r3, lsr r0
    14dc:	a30008b0 	movwge	r0, #2224	; 0x8b0
    14e0:	a300092c 	movwge	r0, #2348	; 0x92c
    14e4:	000005e5 	andeq	r0, r0, r5, ror #11
    14e8:	00646607 	rsbeq	r6, r4, r7, lsl #12
    14ec:	00535c01 	subeqs	r5, r3, r1, lsl #24
    14f0:	06040000 	streq	r0, [r4], -r0
    14f4:	62070000 	andvs	r0, r7, #0	; 0x0
    14f8:	01006675 	tsteq	r0, r5, ror r6
    14fc:	0000f55c 	andeq	pc, r0, ip, asr r5
    1500:	00063800 	andeq	r3, r6, r0, lsl #16
    1504:	088a0800 	stmeqia	sl, {fp}
    1508:	5c010000 	stcpl	0, cr0, [r1], {0}
    150c:	00000021 	andeq	r0, r0, r1, lsr #32
    1510:	00000677 	andeq	r0, r0, r7, ror r6
    1514:	01006909 	tsteq	r0, r9, lsl #18
    1518:	0000215e 	andeq	r2, r0, lr, asr r1
    151c:	0a540100 	beq	1501924 <_start-0xa1afe6dc>
    1520:	0000093b 	andeq	r0, r0, fp, lsr r9
    1524:	00215f01 	eoreq	r5, r1, r1, lsl #30
    1528:	be0b0000 	cdplt	0, 0, cr0, cr11, cr0, {0}
    152c:	01000008 	tsteq	r0, r8
    1530:	00002160 	andeq	r2, r0, r0, ror #2
    1534:	0006ab00 	andeq	sl, r6, r0, lsl #22
    1538:	040c0000 	streq	r0, [ip]
    153c:	000000fb 	streqd	r0, [r0], -fp
    1540:	0181060d 	orreq	r0, r1, sp, lsl #12
    1544:	a4010000 	strge	r0, [r1]
    1548:	01000008 	tsteq	r0, r8
    154c:	00330121 	eoreqs	r0, r3, r1, lsr #2
    1550:	092c0000 	stmeqdb	ip!, {}
    1554:	09fca300 	ldmeqib	ip!, {r8, r9, sp, pc}^
    1558:	06c9a300 	streqb	sl, [r9], r0, lsl #6
    155c:	66070000 	strvs	r0, [r7], -r0
    1560:	20010064 	andcs	r0, r1, r4, rrx
    1564:	00000053 	andeq	r0, r0, r3, asr r0
    1568:	000006e8 	andeq	r0, r0, r8, ror #13
    156c:	66756207 	ldrvsbt	r6, [r5], -r7, lsl #4
    1570:	7d200100 	stfvcs	f0, [r0]
    1574:	11000000 	tstne	r0, r0
    1578:	08000007 	stmeqda	r0, {r0, r1, r2}
    157c:	0000088a 	andeq	r0, r0, sl, lsl #17
    1580:	00212001 	eoreq	r2, r1, r1
    1584:	072f0000 	streq	r0, [pc, -r0]!
    1588:	630e0000 	movwvs	r0, #57344	; 0xe000
    158c:	45220100 	strmi	r0, [r2, #-256]!
    1590:	4d000000 	stcmi	0, cr0, [r0]
    1594:	0f000007 	svceq	0x00000007
    1598:	000008c6 	andeq	r0, r0, r6, asr #17
    159c:	00332301 	eoreqs	r2, r3, r1, lsl #6
    15a0:	55010000 	strpl	r0, [r1]
    15a4:	0008b90a 	andeq	fp, r8, sl, lsl #18
    15a8:	81240100 	teqhi	r4, r0, lsl #2
    15ac:	0a000001 	beq	15b8 <_start-0xa2ffea48>
    15b0:	0000093b 	andeq	r0, r0, fp, lsr r9
    15b4:	006f2501 	rsbeq	r2, pc, r1, lsl #10
    15b8:	be0a0000 	cdplt	0, 0, cr0, cr10, cr0, {0}
    15bc:	01000008 	tsteq	r0, r8
    15c0:	00006f26 	andeq	r6, r0, r6, lsr #30
    15c4:	040c0000 	streq	r0, [ip]
    15c8:	00000045 	andeq	r0, r0, r5, asr #32
    15cc:	00038500 	andeq	r8, r3, r0, lsl #10
    15d0:	7f000200 	svcvc	0x00000200
    15d4:	0400000a 	streq	r0, [r0], #-10
    15d8:	00101e01 	andeqs	r1, r0, r1, lsl #28
    15dc:	000b8000 	andeq	r8, fp, r0
    15e0:	0009fca3 	andeq	pc, r9, r3, lsr #25
    15e4:	000063a3 	andeq	r6, r0, r3, lsr #7
    15e8:	09af0100 	stmeqib	pc!, {r8}
    15ec:	b2020000 	andlt	r0, r2, #0	; 0x0
    15f0:	03000008 	movweq	r0, #8	; 0x8
    15f4:	00002c20 	andeq	r2, r0, r0, lsr #24
    15f8:	00510300 	subeqs	r0, r1, r0, lsl #6
    15fc:	07040000 	streq	r0, [r4, -r0]
    1600:	00007403 	andeq	r7, r0, r3, lsl #8
    1604:	03050400 	movweq	r0, #21504	; 0x5400
    1608:	0000002a 	andeq	r0, r0, sl, lsr #32
    160c:	42030801 	andmi	r0, r3, #65536	; 0x10000
    1610:	02000000 	andeq	r0, r0, #0	; 0x0
    1614:	6e690405 	cdpvs	4, 6, cr0, cr9, cr5, {0}
    1618:	05040074 	streq	r0, [r4, #-116]
    161c:	00006f03 	andeq	r6, r0, r3, lsl #30
    1620:	03050800 	movweq	r0, #22528	; 0x5800
    1624:	00000021 	andeq	r0, r0, r1, lsr #32
    1628:	2f030801 	svccs	0x00030801
    162c:	02000000 	andeq	r0, r0, #0	; 0x0
    1630:	00d90207 	sbceqs	r0, r9, r7, lsl #4
    1634:	2c030000 	stccs	0, cr0, [r3], {0}
    1638:	0000006f 	andeq	r0, r0, pc, rrx
    163c:	00005603 	andeq	r5, r0, r3, lsl #12
    1640:	03070400 	movweq	r0, #29696	; 0x7400
    1644:	0000004c 	andeq	r0, r0, ip, asr #32
    1648:	89050708 	stmhidb	r5, {r3, r8, r9, sl}
    164c:	01000000 	tsteq	r0, r0
    1650:	00008906 	andeq	r8, r0, r6, lsl #18
    1654:	04070000 	streq	r0, [r7]
    1658:	00015a02 	andeq	r5, r1, r2, lsl #20
    165c:	96130400 	ldrls	r0, [r3], -r0, lsl #8
    1660:	08000000 	stmeqda	r0, {}
    1664:	00007d04 	andeq	r7, r0, r4, lsl #26
    1668:	00eb0900 	rsceq	r0, fp, r0, lsl #18
    166c:	0aed0000 	beq	ffb41674 <__bss_end__+0x5cafeaac>
    1670:	04140000 	ldreq	r0, [r4]
    1674:	01fb0a16 	mvneqs	r0, r6, lsl sl
    1678:	17040000 	strne	r0, [r4, -r0]
    167c:	0000008b 	andeq	r0, r0, fp, lsl #1
    1680:	0a002302 	beq	a290 <_start-0xa2ff5d70>
    1684:	00000180 	andeq	r0, r0, r0, lsl #3
    1688:	00891804 	addeq	r1, r9, r4, lsl #16
    168c:	23020000 	movwcs	r0, #8192	; 0x2000
    1690:	01420a04 	cmpeq	r2, r4, lsl #20
    1694:	19040000 	stmnedb	r4, {}
    1698:	00000089 	andeq	r0, r0, r9, lsl #1
    169c:	0b082302 	bleq	20a2ac <_start-0xa2df5d54>
    16a0:	1a040043 	bne	1017b4 <_start-0xa2efe84c>
    16a4:	0000002c 	andeq	r0, r0, ip, lsr #32
    16a8:	0b0c2302 	bleq	30a2b8 <_start-0xa2cf5d48>
    16ac:	1b040054 	blne	101804 <_start-0xa2efe7fc>
    16b0:	0000002c 	andeq	r0, r0, ip, lsr #32
    16b4:	00102302 	andeqs	r2, r0, r2, lsl #6
    16b8:	00010f02 	andeq	r0, r1, r2, lsl #30
    16bc:	9c1d0400 	cfldrsls	mvf0, [sp], {0}
    16c0:	03000000 	movweq	r0, #0	; 0x0
    16c4:	00000056 	andeq	r0, r0, r6, asr r0
    16c8:	170c0704 	strne	r0, [ip, -r4, lsl #14]
    16cc:	01000001 	tsteq	r0, r1
    16d0:	00000006 	andeq	r0, r0, r6
    16d4:	03013f02 	movweq	r3, #7938	; 0x1f02
    16d8:	0007000d 	andeq	r0, r7, sp
    16dc:	64400200 	strvsb	r0, [r0], #-512
    16e0:	00000000 	andeq	r0, r0, r0
    16e4:	0001610e 	andeq	r6, r1, lr, lsl #2
    16e8:	09760100 	ldmeqdb	r6!, {r8}^
    16ec:	80010000 	andhi	r0, r1, r0
    16f0:	0009fc01 	andeq	pc, r9, r1, lsl #24
    16f4:	000a1ca3 	andeq	r1, sl, r3, lsr #25
    16f8:	0f5d01a3 	svceq	0x005d01a3
    16fc:	00000a1c 	andeq	r0, r0, ip, lsl sl
    1700:	006f7f01 	rsbeq	r7, pc, r1, lsl #30
    1704:	078c0000 	streq	r0, [ip, r0]
    1708:	fd100000 	ldc2	0, cr0, [r0]
    170c:	08000000 	stmeqda	r0, {}
    1710:	1ca3000a 	stcne	0, cr0, [r3], #40
    1714:	01a3000a 	moveq	r0, sl
    1718:	0a081183 	beq	205d2c <_start-0xa2dfa2d4>
    171c:	0a1ca300 	beq	72a324 <_start-0xa28d5cdc>
    1720:	0b12a300 	bleq	4aa328 <_start-0xa2b55cd8>
    1724:	aa000001 	bge	1730 <_start-0xa2ffe8d0>
    1728:	00000007 	andeq	r0, r0, r7
    172c:	8e130000 	wxorhi	wr0, wr3, wr0
    1730:	01000001 	tsteq	r0, r1
    1734:	00000945 	andeq	r0, r0, r5, asr #18
    1738:	48017601 	stmmida	r1, {r0, r9, sl, ip, sp, lr}
    173c:	1c000000 	stcne	0, cr0, [r0], {0}
    1740:	3ca3000a 	stccc	0, cr0, [r3], #40
    1744:	bda3000a 	stclt	0, cr0, [r3, #40]!
    1748:	14000007 	strne	r0, [r0], #-7
    174c:	00766564 	rsbeqs	r6, r6, r4, ror #10
    1750:	006f7501 	rsbeq	r7, pc, r1, lsl #10
    1754:	07dc0000 	ldreqb	r0, [ip, r0]
    1758:	15000000 	strne	r0, [r0]
    175c:	000001bf 	streqh	r0, [r0], -pc
    1760:	00000950 	andeq	r0, r0, r0, asr r9
    1764:	48012f01 	stmmida	r1, {r0, r8, r9, sl, fp, sp}
    1768:	01000000 	tsteq	r0, r0
    176c:	000ac716 	andeq	ip, sl, r6, lsl r7
    1770:	bf2f0100 	svclt	0x002f0100
    1774:	16000001 	strne	r0, [r0], -r1
    1778:	00000802 	andeq	r0, r0, r2, lsl #16
    177c:	00212f01 	eoreq	r2, r1, r1, lsl #30
    1780:	69170000 	ldmvsdb	r7, {}
    1784:	6f300100 	svcvs	0x00300100
    1788:	00000000 	andeq	r0, r0, r0
    178c:	00eb0408 	rsceq	r0, fp, r8, lsl #8
    1790:	db180000 	blle	601798 <_start-0xa29fe868>
    1794:	5c000001 	stcpl	0, cr0, [r0], {1}
    1798:	01000009 	tsteq	r0, r9
    179c:	69170128 	ldmvsdb	r7, {r3, r5, r8}
    17a0:	48290100 	stmmida	r9!, {r8}
    17a4:	00000000 	andeq	r0, r0, r0
    17a8:	00020819 	andeq	r0, r2, r9, lsl r8
    17ac:	000a1100 	andeq	r1, sl, r0, lsl #2
    17b0:	01490100 	cmpeq	r9, r0, lsl #2
    17b4:	0ac71601 	beq	ff1c6fc0 <__bss_end__+0x5c1843f8>
    17b8:	49010000 	stmmidb	r1, {}
    17bc:	000001bf 	streqh	r0, [r0], -pc
    17c0:	00080216 	andeq	r0, r8, r6, lsl r2
    17c4:	21490100 	cmpcs	r9, r0, lsl #2
    17c8:	17000000 	strne	r0, [r0, -r0]
    17cc:	4b010069 	blmi	41978 <_start-0xa2fbe688>
    17d0:	00000048 	andeq	r0, r0, r8, asr #32
    17d4:	02541900 	subeqs	r1, r4, #0	; 0x0
    17d8:	099a0000 	ldmeqib	sl, {}
    17dc:	53010000 	movwpl	r0, #4096	; 0x1000
    17e0:	6f160101 	svcvs	0x00160101
    17e4:	01000009 	tsteq	r0, r9
    17e8:	00025453 	andeq	r5, r2, r3, asr r4
    17ec:	08021600 	stmeqda	r2, {r9, sl, ip}
    17f0:	53010000 	movwpl	r0, #4096	; 0x1000
    17f4:	00000021 	andeq	r0, r0, r1, lsr #32
    17f8:	01006917 	tsteq	r0, r7, lsl r9
    17fc:	00004854 	andeq	r4, r0, r4, asr r8
    1800:	006a1700 	rsbeq	r1, sl, r0, lsl #14
    1804:	00485401 	subeq	r5, r8, r1, lsl #8
    1808:	920d0000 	andls	r0, sp, #0	; 0x0
    180c:	01000009 	tsteq	r0, r9
    1810:	00002c55 	andeq	r2, r0, r5, asr ip
    1814:	05d80d00 	ldreqb	r0, [r8, #3328]
    1818:	56010000 	strpl	r0, [r1], -r0
    181c:	00000254 	andeq	r0, r0, r4, asr r2
    1820:	bf040800 	svclt	0x00040800
    1824:	13000001 	movwne	r0, #1	; 0x1
    1828:	00000366 	andeq	r0, r0, r6, ror #6
    182c:	00098601 	andeq	r8, r9, r1, lsl #12
    1830:	01640100 	cmneq	r4, r0, lsl #2
    1834:	00000048 	andeq	r0, r0, r8, asr #32
    1838:	a3000a3c 	movwge	r0, #2620	; 0xa3c
    183c:	a3000b80 	movwge	r0, #2944	; 0xb80
    1840:	000007fa 	streqd	r0, [r0], -sl
    1844:	000ac70f 	andeq	ip, sl, pc, lsl #14
    1848:	bf630100 	svclt	0x00630100
    184c:	19000001 	stmnedb	r0, {r0}
    1850:	0f000008 	svceq	0x00000008
    1854:	00000802 	andeq	r0, r0, r2, lsl #16
    1858:	00216301 	eoreq	r6, r1, r1, lsl #6
    185c:	08420000 	stmeqda	r2, {}^
    1860:	a91a0000 	ldmgedb	sl, {}
    1864:	01000009 	tsteq	r0, r9
    1868:	00004866 	andeq	r4, r0, r6, ror #16
    186c:	00086000 	andeq	r6, r8, r0
    1870:	02d51b00 	sbceqs	r1, r5, #0	; 0x0
    1874:	018e0000 	orreq	r0, lr, r0
    1878:	0a5c0000 	beq	1701880 <_start-0xa18fe780>
    187c:	0abca300 	beq	fef2a484 <__bss_end__+0x5bee78bc>
    1880:	6701a300 	strvs	sl, [r1, -r0, lsl #6]
    1884:	0001aa1c 	andeq	sl, r1, ip, lsl sl
    1888:	019f1c00 	orreqs	r1, pc, r0, lsl #24
    188c:	5c110000 	ldcpl	0, cr0, [r1], {0}
    1890:	bca3000a 	stclt	0, cr0, [r3], #40
    1894:	12a3000a 	adcne	r0, r3, #10	; 0xa
    1898:	000001b5 	streqh	r0, [r0], -r5
    189c:	00000889 	andeq	r0, r0, r9, lsl #17
    18a0:	f81b0000 	undefined instruction 0xf81b0000
    18a4:	c5000002 	strgt	r0, [r0, #-2]
    18a8:	bc000001 	stclt	0, cr0, [r0], {1}
    18ac:	e0a3000a 	adc	r0, r3, sl
    18b0:	01a3000a 	moveq	r0, sl
    18b4:	0abc116c 	beq	fef05e6c <__bss_end__+0x5bec32a4>
    18b8:	0ae0a300 	beq	ff82a4c0 <__bss_end__+0x5c7e78f8>
    18bc:	d11da300 	tstle	sp, r0, lsl #6
    18c0:	00000001 	andeq	r0, r0, r1
    18c4:	01db1000 	biceqs	r1, fp, r0
    18c8:	0ae00000 	beq	ff8018d0 <__bss_end__+0x5c7bed08>
    18cc:	0b50a300 	bleq	142a4d4 <_start-0xa1bd5b2c>
    18d0:	6d01a300 	stcvs	3, cr10, [r1]
    18d4:	0001f31c 	andeq	pc, r1, ip, lsl r3
    18d8:	01e81c00 	mvneq	r1, r0, lsl #24
    18dc:	e0110000 	ands	r0, r1, r0
    18e0:	50a3000a 	adcpl	r0, r3, sl
    18e4:	1ea3000b 	cdpne	0, 10, cr0, cr3, cr11, {0}
    18e8:	000001fe 	streqd	r0, [r0], -lr
    18ec:	08105601 	ldmeqda	r0, {r0, r9, sl, ip, lr}
    18f0:	04000002 	streq	r0, [r0], #-2
    18f4:	50a3000b 	adcpl	r0, r3, fp
    18f8:	01a3000b 	moveq	r0, fp
    18fc:	02201c50 	eoreq	r1, r0, #20480	; 0x5000
    1900:	151c0000 	ldrne	r0, [ip]
    1904:	11000002 	tstne	r0, r2
    1908:	a3000b04 	movwge	r0, #2820	; 0xb04
    190c:	a3000b50 	movwge	r0, #2896	; 0xb50
    1910:	00022b12 	andeq	r2, r2, r2, lsl fp
    1914:	0008c800 	andeq	ip, r8, r0, lsl #16
    1918:	02341200 	eoreqs	r1, r4, #0	; 0x0
    191c:	08db0000 	ldmeqia	fp, {}^
    1920:	3d1e0000 	ldccc	0, cr0, [lr]
    1924:	01000002 	tsteq	r0, r2
    1928:	02481d54 	subeq	r1, r8, #5376	; 0x1500
    192c:	00000000 	andeq	r0, r0, r0
    1930:	1f000000 	svcne	0x00000000
    1934:	00000376 	andeq	r0, r0, r6, ror r3
    1938:	000001bf 	streqh	r0, [r0], -pc
    193c:	0000f620 	andeq	pc, r0, r0, lsr #12
    1940:	21003f00 	tstcs	r0, r0, lsl #30
    1944:	00000968 	andeq	r0, r0, r8, ror #18
    1948:	03662001 	cmneq	r6, #1	; 0x1
    194c:	05010000 	streq	r0, [r1]
    1950:	001ac403 	andeqs	ip, sl, r3, lsl #8
    1954:	00e900a3 	rsceq	r0, r9, r3, lsr #1
    1958:	00020000 	andeq	r0, r2, r0
    195c:	00000c37 	andeq	r0, r0, r7, lsr ip
    1960:	11d40104 	bicnes	r0, r4, r4, lsl #2
    1964:	0bc80000 	bleq	ff20196c <__bss_end__+0x5c1beda4>
    1968:	0b80a300 	bleq	fe02a570 <__bss_end__+0x5afe79a8>
    196c:	0063a300 	rsbeq	sl, r3, r0, lsl #6
    1970:	40010000 	andmi	r0, r1, r0
    1974:	0200000a 	andeq	r0, r0, #10	; 0xa
    1978:	00000051 	andeq	r0, r0, r1, asr r0
    197c:	74020704 	strvc	r0, [r2], #-1796
    1980:	04000000 	streq	r0, [r0]
    1984:	002a0205 	eoreq	r0, sl, r5, lsl #4
    1988:	08010000 	stmeqda	r1, {}
    198c:	00004202 	andeq	r4, r0, r2, lsl #4
    1990:	03050200 	movweq	r0, #20992	; 0x5200
    1994:	00746e69 	rsbeqs	r6, r4, r9, ror #28
    1998:	6f020504 	svcvs	0x00020504
    199c:	08000000 	stmeqda	r0, {}
    19a0:	00210205 	eoreq	r0, r1, r5, lsl #4
    19a4:	08010000 	stmeqda	r1, {}
    19a8:	00002f02 	andeq	r2, r0, r2, lsl #30
    19ac:	02070200 	andeq	r0, r7, #0	; 0x0
    19b0:	00000056 	andeq	r0, r0, r6, asr r0
    19b4:	4c020704 	stcmi	7, cr0, [r2], {4}
    19b8:	08000000 	stmeqda	r0, {}
    19bc:	00560207 	subeqs	r0, r6, r7, lsl #4
    19c0:	07040000 	streq	r0, [r4, -r0]
    19c4:	00009504 	andeq	r9, r0, r4, lsl #10
    19c8:	0a330100 	beq	cc1dd0 <_start-0xa233e230>
    19cc:	16010000 	strne	r0, [r1], -r0
    19d0:	00002101 	andeq	r2, r0, r1, lsl #2
    19d4:	000b8000 	andeq	r8, fp, r0
    19d8:	000b98a3 	andeq	r9, fp, r3, lsr #17
    19dc:	055d01a3 	ldreqb	r0, [sp, #-419]
    19e0:	00000ab9 	streqh	r0, [r0], -r9
    19e4:	00211701 	eoreq	r1, r1, r1, lsl #14
    19e8:	06000000 	streq	r0, [r0], -r0
    19ec:	000000da 	ldreqd	r0, [r0], -sl
    19f0:	000a2501 	andeq	r2, sl, r1, lsl #10
    19f4:	01230100 	teqeq	r3, r0, lsl #2
    19f8:	a3000b98 	movwge	r0, #2968	; 0xb98
    19fc:	a3000bc8 	movwge	r0, #3016	; 0xbc8
    1a00:	000008ee 	andeq	r0, r0, lr, ror #17
    1a04:	0005c607 	andeq	ip, r5, r7, lsl #12
    1a08:	21220100 	teqcs	r2, r0, lsl #2
    1a0c:	0d000000 	stceq	0, cr0, [r0]
    1a10:	08000009 	stmeqda	r0, {r0, r3}
    1a14:	00000aa2 	andeq	r0, r0, r2, lsr #21
    1a18:	00212401 	eoreq	r2, r1, r1, lsl #8
    1a1c:	54010000 	strpl	r0, [r1]
    1a20:	000aae09 	andeq	sl, sl, r9, lsl #28
    1a24:	21250100 	teqcs	r5, r0, lsl #2
    1a28:	20000000 	andcs	r0, r0, r0
    1a2c:	00000009 	andeq	r0, r0, r9
    1a30:	0008950a 	andeq	r9, r8, sl, lsl #10
    1a34:	e7130100 	ldr	r0, [r3, -r0, lsl #2]
    1a38:	01000000 	tsteq	r0, r0
    1a3c:	00210b01 	eoreq	r0, r1, r1, lsl #22
    1a40:	e5000000 	str	r0, [r0]
    1a44:	02000003 	andeq	r0, r0, #3	; 0x3
    1a48:	000ce100 	andeq	lr, ip, r0, lsl #2
    1a4c:	70010400 	andvc	r0, r1, r0, lsl #8
    1a50:	30000012 	andcc	r0, r0, r2, lsl r0
    1a54:	c8a3000e 	stmgtia	r3!, {r1, r2, r3}
    1a58:	63a3000b 	movvs	r0, #11	; 0xb
    1a5c:	01000000 	tsteq	r0, r0
    1a60:	00000afc 	streqd	r0, [r0], -ip
    1a64:	0008b202 	andeq	fp, r8, r2, lsl #4
    1a68:	2c200300 	stccs	3, cr0, [r0]
    1a6c:	03000000 	movweq	r0, #0	; 0x0
    1a70:	00000051 	andeq	r0, r0, r1, asr r0
    1a74:	74030704 	strvc	r0, [r3], #-1796
    1a78:	04000000 	streq	r0, [r0]
    1a7c:	002a0305 	eoreq	r0, sl, r5, lsl #6
    1a80:	08010000 	stmeqda	r1, {}
    1a84:	00004203 	andeq	r4, r0, r3, lsl #4
    1a88:	04050200 	streq	r0, [r5], #-512
    1a8c:	00746e69 	rsbeqs	r6, r4, r9, ror #28
    1a90:	6f030504 	svcvs	0x00030504
    1a94:	08000000 	stmeqda	r0, {}
    1a98:	050b0205 	streq	r0, [fp, #-517]
    1a9c:	2a030000 	bcs	c1aa4 <_start-0xa2f3e55c>
    1aa0:	00000061 	andeq	r0, r0, r1, rrx
    1aa4:	00002103 	andeq	r2, r0, r3, lsl #2
    1aa8:	03080100 	movweq	r0, #33024	; 0x8100
    1aac:	0000002f 	andeq	r0, r0, pc, lsr #32
    1ab0:	d9020702 	stmledb	r2, {r1, r8, r9, sl}
    1ab4:	03000000 	movweq	r0, #0	; 0x0
    1ab8:	00007a2c 	andeq	r7, r0, ip, lsr #20
    1abc:	00560300 	subeqs	r0, r6, r0, lsl #6
    1ac0:	07040000 	streq	r0, [r4, -r0]
    1ac4:	00004c03 	andeq	r4, r0, r3, lsl #24
    1ac8:	05070800 	streq	r0, [r7, #-2048]
    1acc:	00000094 	muleq	r0, r4, r0
    1ad0:	00940601 	addeqs	r0, r4, r1, lsl #12
    1ad4:	07000000 	streq	r0, [r0, -r0]
    1ad8:	015a0204 	cmpeq	sl, r4, lsl #4
    1adc:	13040000 	movwne	r0, #16384	; 0x4000
    1ae0:	000000a1 	andeq	r0, r0, r1, lsr #1
    1ae4:	00880408 	addeq	r0, r8, r8, lsl #8
    1ae8:	f6090000 	undefined instruction 0xf6090000
    1aec:	ed000000 	stc	0, cr0, [r0]
    1af0:	1400000a 	strne	r0, [r0], #-10
    1af4:	fb0a1604 	blx	28730e <_start-0xa2d78cf2>
    1af8:	04000001 	streq	r0, [r0], #-1
    1afc:	00009617 	andeq	r9, r0, r7, lsl r6
    1b00:	00230200 	eoreq	r0, r3, r0, lsl #4
    1b04:	0001800a 	andeq	r8, r1, sl
    1b08:	94180400 	ldrls	r0, [r8], #-1024
    1b0c:	02000000 	andeq	r0, r0, #0	; 0x0
    1b10:	420a0423 	andmi	r0, sl, #587202560	; 0x23000000
    1b14:	04000001 	streq	r0, [r0], #-1
    1b18:	00009419 	andeq	r9, r0, r9, lsl r4
    1b1c:	08230200 	stmeqda	r3!, {r9}
    1b20:	0400430b 	streq	r4, [r0], #-779
    1b24:	00002c1a 	andeq	r2, r0, sl, lsl ip
    1b28:	0c230200 	sfmeq	f0, 4, [r3]
    1b2c:	0400540b 	streq	r5, [r0], #-1035
    1b30:	00002c1b 	andeq	r2, r0, fp, lsl ip
    1b34:	10230200 	eorne	r0, r3, r0, lsl #4
    1b38:	010f0200 	tsteq	pc, r0, lsl #4
    1b3c:	1d040000 	stcne	0, cr0, [r4]
    1b40:	000000a7 	andeq	r0, r0, r7, lsr #1
    1b44:	00019209 	andeq	r9, r1, r9, lsl #4
    1b48:	00060400 	andeq	r0, r6, r0, lsl #8
    1b4c:	26042800 	strcs	r2, [r4], -r0, lsl #16
    1b50:	0034720b 	eoreqs	r7, r4, fp, lsl #4
    1b54:	006f2704 	rsbeq	r2, pc, r4, lsl #14
    1b58:	23020000 	movwcs	r0, #8192	; 0x2000
    1b5c:	35720b00 	ldrccb	r0, [r2, #-2816]!
    1b60:	6f280400 	svcvs	0x00280400
    1b64:	02000000 	andeq	r0, r0, #0	; 0x0
    1b68:	720b0423 	andvc	r0, fp, #587202560	; 0x23000000
    1b6c:	29040036 	stmcsdb	r4, {r1, r2, r4, r5}
    1b70:	0000006f 	andeq	r0, r0, pc, rrx
    1b74:	0b082302 	bleq	20a784 <_start-0xa2df587c>
    1b78:	04003772 	streq	r3, [r0], #-1906
    1b7c:	00006f2a 	andeq	r6, r0, sl, lsr #30
    1b80:	0c230200 	sfmeq	f0, 4, [r3]
    1b84:	0038720b 	eoreqs	r7, r8, fp, lsl #4
    1b88:	006f2b04 	rsbeq	r2, pc, r4, lsl #22
    1b8c:	23020000 	movwcs	r0, #8192	; 0x2000
    1b90:	39720b10 	ldmccdb	r2!, {r4, r8, r9, fp}^
    1b94:	6f2c0400 	svcvs	0x002c0400
    1b98:	02000000 	andeq	r0, r0, #0	; 0x0
    1b9c:	720b1423 	andvc	r1, fp, #587202560	; 0x23000000
    1ba0:	04003031 	streq	r3, [r0], #-49
    1ba4:	00006f2d 	andeq	r6, r0, sp, lsr #30
    1ba8:	18230200 	stmneda	r3!, {r9}
    1bac:	3131720b 	teqcc	r1, fp, lsl #4
    1bb0:	6f2e0400 	svcvs	0x002e0400
    1bb4:	02000000 	andeq	r0, r0, #0	; 0x0
    1bb8:	730b1c23 	movwvc	r1, #48163	; 0xbc23
    1bbc:	2f040070 	svccs	0x00040070
    1bc0:	00000094 	muleq	r0, r4, r0
    1bc4:	0b202302 	bleq	80a7d4 <_start-0xa27f582c>
    1bc8:	0400726c 	streq	r7, [r0], #-620
    1bcc:	00009430 	andeq	r9, r0, r0, lsr r4
    1bd0:	24230200 	strcst	r0, [r3], #-512
    1bd4:	01010c00 	tsteq	r1, r0, lsl #24
    1bd8:	080d0000 	stmeqda	sp, {}
    1bdc:	74000002 	strvc	r0, [r0], #-2
    1be0:	38006263 	stmccda	r0, {r0, r1, r5, r6, r9, sp, lr}
    1be4:	0a360410 	beq	d82c2c <_start-0xa227d3d4>
    1be8:	000005dd 	ldreqd	r0, [r0], -sp
    1bec:	00563704 	subeqs	r3, r6, r4, lsl #14
    1bf0:	23020000 	movwcs	r0, #8192	; 0x2000
    1bf4:	0cbb0a00 	fldmiaseq	fp!, {s0-s-1}
    1bf8:	38040000 	stmccda	r4, {}
    1bfc:	00000056 	andeq	r0, r0, r6, asr r0
    1c00:	0a012302 	beq	4a810 <_start-0xa2fb57f0>
    1c04:	0000060a 	andeq	r0, r0, sl, lsl #12
    1c08:	01923904 	orreqs	r3, r2, r4, lsl #18
    1c0c:	23020000 	movwcs	r0, #8192	; 0x2000
    1c10:	05000a04 	streq	r0, [r0, #-2564]
    1c14:	3a040000 	bcc	101c1c <_start-0xa2efe3e4>
    1c18:	00000048 	andeq	r0, r0, r8, asr #32
    1c1c:	0a2c2302 	beq	b0a82c <_start-0xa24f57d4>
    1c20:	000005e9 	andeq	r0, r0, r9, ror #11
    1c24:	02083b04 	andeq	r3, r8, #4096	; 0x1000
    1c28:	23020000 	movwcs	r0, #8192	; 0x2000
    1c2c:	05b70a30 	ldreq	r0, [r7, #2608]!
    1c30:	3e040000 	cdpcc	0, 0, cr0, cr4, cr0, {0}
    1c34:	00000213 	andeq	r0, r0, r3, lsl r2
    1c38:	0a382302 	beq	e0a848 <_start-0xa21f57b8>
    1c3c:	000005ab 	andeq	r0, r0, fp, lsr #11
    1c40:	022b3f04 	eoreq	r3, fp, #16	; 0x10
    1c44:	23030000 	movwcs	r0, #12288	; 0x3000
    1c48:	080020b8 	stmeqda	r0, {r3, r4, r5, r7, sp}
    1c4c:	00020e04 	andeq	r0, r2, r4, lsl #28
    1c50:	01970c00 	orreqs	r0, r7, r0, lsl #24
    1c54:	240e0000 	strcs	r0, [lr]
    1c58:	6f000002 	svcvs	0x00000002
    1c5c:	0f000000 	svceq	0x00000000
    1c60:	00000224 	andeq	r0, r0, r4, lsr #4
    1c64:	030003ff 	movweq	r0, #1023	; 0x3ff
    1c68:	00000056 	andeq	r0, r0, r6, asr r0
    1c6c:	3a0e0704 	bcc	383884 <_start-0xa2c7c77c>
    1c70:	6f000002 	svcvs	0x00000002
    1c74:	10000000 	andne	r0, r0, r0
    1c78:	00000224 	andeq	r0, r0, r4, lsr #4
    1c7c:	02541100 	subeqs	r1, r4, #0	; 0x0
    1c80:	34010000 	strcc	r0, [r1]
    1c84:	02000005 	andeq	r0, r0, #5	; 0x5
    1c88:	12030137 	andne	r0, r3, #-1073741811	; 0xc000000d
    1c8c:	00000700 	andeq	r0, r0, r0, lsl #14
    1c90:	006f3802 	rsbeq	r3, pc, r2, lsl #16
    1c94:	13000000 	movwne	r0, #0	; 0x0
    1c98:	0000028e 	andeq	r0, r0, lr, lsl #5
    1c9c:	00000ad8 	ldreqd	r0, [r0], -r8
    1ca0:	c8012b01 	stmgtda	r1, {r0, r8, r9, fp, sp}
    1ca4:	d8a3000b 	stmleia	r3!, {r0, r1, r3}
    1ca8:	01a3000b 	moveq	r0, fp
    1cac:	023a145d 	eoreqs	r1, sl, #1560281088	; 0x5d000000
    1cb0:	0bc80000 	bleq	ff201cb8 <__bss_end__+0x5c1bf0f0>
    1cb4:	0bd8a300 	bleq	ff62a8bc <__bss_end__+0x5c5e7cf4>
    1cb8:	2c01a300 	stccs	3, cr10, [r1], {0}
    1cbc:	000bc815 	andeq	ip, fp, r5, lsl r8
    1cc0:	000bd8a3 	andeq	sp, fp, r3, lsr #17
    1cc4:	024816a3 	subeq	r1, r8, #170917888	; 0xa300000
    1cc8:	09330000 	ldmeqdb	r3!, {}
    1ccc:	00000000 	andeq	r0, r0, r0
    1cd0:	02df1700 	sbceqs	r1, pc, #0	; 0x0
    1cd4:	0b720000 	bleq	1c81cdc <_start-0xa137e324>
    1cd8:	43010000 	movwmi	r0, #4096	; 0x1000
    1cdc:	000bd801 	andeq	sp, fp, r1, lsl #16
    1ce0:	000c38a3 	andeq	r3, ip, r3, lsr #17
    1ce4:	000946a3 	andeq	r4, r9, r3, lsr #13
    1ce8:	0aed1800 	beq	ffb47cf0 <__bss_end__+0x5cb05128>
    1cec:	42010000 	andmi	r0, r1, #0	; 0x0
    1cf0:	000002df 	ldreqd	r0, [r0], -pc
    1cf4:	00000965 	andeq	r0, r0, r5, ror #18
    1cf8:	62637419 	rsbvs	r7, r3, #419430400	; 0x19000000
    1cfc:	08420100 	stmeqda	r2, {r8}^
    1d00:	01000002 	tsteq	r0, r2
    1d04:	05e41851 	streqb	r1, [r4, #2129]!
    1d08:	42010000 	andmi	r0, r1, #0	; 0x0
    1d0c:	00000056 	andeq	r0, r0, r6, asr r0
    1d10:	00000978 	andeq	r0, r0, r8, ror r9
    1d14:	7874631a 	ldmvcda	r4!, {r1, r3, r4, r8, r9, sp, lr}^
    1d18:	e5440100 	strb	r0, [r4, #-256]
    1d1c:	01000002 	tsteq	r0, r2
    1d20:	04080052 	streq	r0, [r8], #-82
    1d24:	000000f6 	streqd	r0, [r0], -r6
    1d28:	01920408 	orreqs	r0, r2, r8, lsl #8
    1d2c:	141b0000 	ldrne	r0, [fp]
    1d30:	01000003 	tsteq	r0, r3
    1d34:	00000b68 	andeq	r0, r0, r8, ror #22
    1d38:	38018b01 	stmccda	r1, {r0, r8, r9, fp, pc}
    1d3c:	30a3000c 	adccc	r0, r3, ip
    1d40:	8ba3000d 	blhi	fe8c1d7c <__bss_end__+0x5b87f1b4>
    1d44:	18000009 	stmneda	r0, {r0, r3}
    1d48:	00000add 	ldreqd	r0, [r0], -sp
    1d4c:	02088b01 	andeq	r8, r8, #1024	; 0x400
    1d50:	09aa0000 	stmeqib	sl!, {}
    1d54:	1c000000 	stcne	0, cr0, [r0], {0}
    1d58:	0000032d 	andeq	r0, r0, sp, lsr #6
    1d5c:	00000af2 	streqd	r0, [r0], -r2
    1d60:	01013101 	tsteq	r1, r1, lsl #2
    1d64:	000ae812 	andeq	lr, sl, r2, lsl r8
    1d68:	f6320100 	undefined instruction 0xf6320100
    1d6c:	00000000 	andeq	r0, r0, r0
    1d70:	0003921b 	andeq	r9, r3, fp, lsl r2
    1d74:	0abe0100 	beq	fef8217c <__bss_end__+0x5bf3f5b4>
    1d78:	7b010000 	blvc	41d80 <_start-0xa2fbe280>
    1d7c:	000d3001 	andeq	r3, sp, r1
    1d80:	000ddca3 	andeq	sp, sp, r3, lsr #25
    1d84:	0009c8a3 	andeq	ip, r9, r3, lsr #17
    1d88:	0ac71800 	beq	ff1c7d90 <__bss_end__+0x5c1851c8>
    1d8c:	7a010000 	bvc	41d94 <_start-0xa2fbe26c>
    1d90:	00000392 	muleq	r0, r2, r3
    1d94:	000009f3 	streqd	r0, [r0], -r3
    1d98:	00080218 	andeq	r0, r8, r8, lsl r2
    1d9c:	217a0100 	cmncs	sl, r0, lsl #2
    1da0:	11000000 	tstne	r0, r0
    1da4:	1a00000a 	bne	1dd4 <_start-0xa2ffe22c>
    1da8:	7d010069 	stcvc	0, cr0, [r1, #-420]
    1dac:	00000056 	andeq	r0, r0, r6, asr r0
    1db0:	14145401 	ldrne	r5, [r4], #-1025
    1db4:	88000003 	stmhida	r0, {r0, r1}
    1db8:	c0a3000d 	adcgt	r0, r3, sp
    1dbc:	01a3000d 	moveq	r0, sp
    1dc0:	0d881588 	cfstr32eq	mvfx1, [r8, #544]
    1dc4:	0dc0a300 	stceql	3, cr10, [r0]
    1dc8:	211da300 	tstcs	sp, r0, lsl #6
    1dcc:	02000003 	andeq	r0, r0, #3	; 0x3
    1dd0:	00005491 	muleq	r0, r1, r4
    1dd4:	df040800 	svcle	0x00040800
    1dd8:	1b000002 	blne	1de8 <_start-0xa2ffe218>
    1ddc:	000003c1 	andeq	r0, r0, r1, asr #7
    1de0:	000b5d01 	andeq	r5, fp, r1, lsl #26
    1de4:	01600100 	cmneq	r0, r0, lsl #2
    1de8:	a3000ddc 	movwge	r0, #3548	; 0xddc
    1dec:	a3000e30 	movwge	r0, #3632	; 0xe30
    1df0:	00000a2f 	andeq	r0, r0, pc, lsr #20
    1df4:	00012918 	andeq	r2, r1, r8, lsl r9
    1df8:	df5f0100 	svcle	0x005f0100
    1dfc:	4e000002 	cdpmi	0, 0, cr0, cr0, cr2, {0}
    1e00:	0000000a 	andeq	r0, r0, sl
    1e04:	0003d10e 	andeq	sp, r3, lr, lsl #2
    1e08:	00019700 	andeq	r9, r1, r0, lsl #14
    1e0c:	02241e00 	eoreq	r1, r4, #0	; 0x0
    1e10:	003f0000 	eoreqs	r0, pc, r0
    1e14:	000acd1f 	andeq	ip, sl, pc, lsl sp
    1e18:	e31f0100 	tst	pc, #0	; 0x0
    1e1c:	01000003 	tsteq	r0, r3
    1e20:	1bc80305 	blne	ff202a3c <__bss_end__+0x5c1bfe74>
    1e24:	c10ca300 	tstgt	ip, r0, lsl #6
    1e28:	00000003 	andeq	r0, r0, r3
    1e2c:	00000133 	andeq	r0, r0, r3, lsr r1
    1e30:	0e750002 	cdpeq	0, 7, cr0, cr5, cr2, {0}
    1e34:	01040000 	tsteq	r4, r0
    1e38:	00001447 	andeq	r1, r0, r7, asr #8
    1e3c:	a3000e38 	movwge	r0, #3640	; 0xe38
    1e40:	a3000e30 	movwge	r0, #3632	; 0xe30
    1e44:	00000063 	andeq	r0, r0, r3, rrx
    1e48:	000b7b01 	andeq	r7, fp, r1, lsl #22
    1e4c:	08b20200 	ldmeqia	r2!, {r9}
    1e50:	20030000 	andcs	r0, r3, r0
    1e54:	0000002c 	andeq	r0, r0, ip, lsr #32
    1e58:	00005103 	andeq	r5, r0, r3, lsl #2
    1e5c:	03070400 	movweq	r0, #29696	; 0x7400
    1e60:	00000074 	andeq	r0, r0, r4, ror r0
    1e64:	2a030504 	bcs	c327c <_start-0xa2f3cd84>
    1e68:	01000000 	tsteq	r0, r0
    1e6c:	00420308 	subeq	r0, r2, r8, lsl #6
    1e70:	05020000 	streq	r0, [r2]
    1e74:	746e6904 	strvcbt	r6, [lr], #-2308
    1e78:	03050400 	movweq	r0, #21504	; 0x5400
    1e7c:	0000006f 	andeq	r0, r0, pc, rrx
    1e80:	21030508 	tstcs	r3, r8, lsl #10
    1e84:	01000000 	tsteq	r0, r0
    1e88:	002f0308 	eoreq	r0, pc, r8, lsl #6
    1e8c:	07020000 	streq	r0, [r2, -r0]
    1e90:	00005603 	andeq	r5, r0, r3, lsl #12
    1e94:	03070400 	movweq	r0, #29696	; 0x7400
    1e98:	0000004c 	andeq	r0, r0, ip, asr #32
    1e9c:	5a020708 	bpl	83ac4 <_start-0xa2f7c53c>
    1ea0:	02000001 	andeq	r0, r0, #1	; 0x1
    1ea4:	00007d13 	andeq	r7, r0, r3, lsl sp
    1ea8:	83040500 	movwhi	r0, #17664	; 0x4500
    1eac:	06000000 	streq	r0, [r0], -r0
    1eb0:	0000008f 	andeq	r0, r0, pc, lsl #1
    1eb4:	008f0701 	addeq	r0, pc, r1, lsl #14
    1eb8:	08000000 	stmeqda	r0, {}
    1ebc:	00e00904 	rsceq	r0, r0, r4, lsl #18
    1ec0:	0aed0000 	beq	ffb41ec8 <__bss_end__+0x5caff300>
    1ec4:	02140000 	andeqs	r0, r4, #0	; 0x0
    1ec8:	01fb0a16 	mvneqs	r0, r6, lsl sl
    1ecc:	17020000 	strne	r0, [r2, -r0]
    1ed0:	00000072 	andeq	r0, r0, r2, ror r0
    1ed4:	0a002302 	beq	aae4 <_start-0xa2ff551c>
    1ed8:	00000180 	andeq	r0, r0, r0, lsl #3
    1edc:	008f1802 	addeq	r1, pc, r2, lsl #16
    1ee0:	23020000 	movwcs	r0, #8192	; 0x2000
    1ee4:	01420a04 	cmpeq	r2, r4, lsl #20
    1ee8:	19020000 	stmnedb	r2, {}
    1eec:	0000008f 	andeq	r0, r0, pc, lsl #1
    1ef0:	0b082302 	bleq	20ab00 <_start-0xa2df5500>
    1ef4:	1a020043 	bne	82008 <_start-0xa2f7dff8>
    1ef8:	0000002c 	andeq	r0, r0, ip, lsr #32
    1efc:	0b0c2302 	bleq	30ab0c <_start-0xa2cf54f4>
    1f00:	1b020054 	blne	82058 <_start-0xa2f7dfa8>
    1f04:	0000002c 	andeq	r0, r0, ip, lsr #32
    1f08:	00102302 	andeqs	r2, r0, r2, lsl #6
    1f0c:	00010f02 	andeq	r0, r1, r2, lsl #30
    1f10:	911d0200 	tstls	sp, r0, lsl #4
    1f14:	03000000 	movweq	r0, #0	; 0x0
    1f18:	00000056 	andeq	r0, r0, r6, asr r0
    1f1c:	2a0c0704 	bcs	303b34 <_start-0xa2cfc4cc>
    1f20:	01000001 	tsteq	r0, r1
    1f24:	00000bde 	ldreqd	r0, [r0], -lr
    1f28:	48012601 	stmmida	r1, {r0, r9, sl, sp}
    1f2c:	30000000 	andcc	r0, r0, r0
    1f30:	38a3000e 	stmccia	r3!, {r1, r2, r3}
    1f34:	01a3000e 	moveq	r0, lr
    1f38:	0ac70d5d 	beq	ff1c54b4 <__bss_end__+0x5c1828ec>
    1f3c:	25010000 	strcs	r0, [r1]
    1f40:	0000012a 	andeq	r0, r0, sl, lsr #2
    1f44:	00000a61 	andeq	r0, r0, r1, ror #20
    1f48:	0008020e 	andeq	r0, r8, lr, lsl #4
    1f4c:	21250100 	teqcs	r5, r0, lsl #2
    1f50:	01000000 	tsteq	r0, r0
    1f54:	04050051 	streq	r0, [r5], #-81
    1f58:	00000130 	andeq	r0, r0, r0, lsr r1
    1f5c:	00e00405 	rsceq	r0, r0, r5, lsl #8
    1f60:	e0000000 	and	r0, r0, r0
    1f64:	02000002 	andeq	r0, r0, #2	; 0x2
    1f68:	000f2e00 	andeq	r2, pc, r0, lsl #28
    1f6c:	4a010400 	bmi	42f74 <_start-0xa2fbd08c>
    1f70:	48000015 	stmmida	r0, {r0, r2, r4}
    1f74:	38a3000f 	stmccia	r3!, {r0, r1, r2, r3}
    1f78:	63a3000e 	movvs	r0, #14	; 0xe
    1f7c:	01000000 	tsteq	r0, r0
    1f80:	00000c27 	andeq	r0, r0, r7, lsr #24
    1f84:	00005102 	andeq	r5, r0, r2, lsl #2
    1f88:	02070400 	andeq	r0, r7, #0	; 0x0
    1f8c:	00000074 	andeq	r0, r0, r4, ror r0
    1f90:	2a020504 	bcs	833a8 <_start-0xa2f7cc58>
    1f94:	01000000 	tsteq	r0, r0
    1f98:	00420208 	subeq	r0, r2, r8, lsl #4
    1f9c:	05020000 	streq	r0, [r2]
    1fa0:	746e6903 	strvcbt	r6, [lr], #-2307
    1fa4:	02050400 	andeq	r0, r5, #0	; 0x0
    1fa8:	0000006f 	andeq	r0, r0, pc, rrx
    1fac:	0b040508 	bleq	1033d4 <_start-0xa2efcc2c>
    1fb0:	03000005 	movweq	r0, #5	; 0x5
    1fb4:	0000562a 	andeq	r5, r0, sl, lsr #12
    1fb8:	00210200 	eoreq	r0, r1, r0, lsl #4
    1fbc:	08010000 	stmeqda	r1, {}
    1fc0:	00002f02 	andeq	r2, r0, r2, lsl #30
    1fc4:	04070200 	streq	r0, [r7], #-512
    1fc8:	000000d9 	ldreqd	r0, [r0], -r9
    1fcc:	006f2c03 	rsbeq	r2, pc, r3, lsl #24
    1fd0:	56020000 	strpl	r0, [r2], -r0
    1fd4:	04000000 	streq	r0, [r0]
    1fd8:	004c0207 	subeq	r0, ip, r7, lsl #4
    1fdc:	07080000 	streq	r0, [r8, -r0]
    1fe0:	10060405 	andne	r0, r6, r5, lsl #8
    1fe4:	04000001 	streq	r0, [r0], #-1
    1fe8:	28000006 	stmcsda	r0, {r1, r2}
    1fec:	72072602 	andvc	r2, r7, #2097152	; 0x200000
    1ff0:	27020034 	smladxcs	r2, r4, r0, r0
    1ff4:	00000064 	andeq	r0, r0, r4, rrx
    1ff8:	07002302 	streq	r2, [r0, -r2, lsl #6]
    1ffc:	02003572 	andeq	r3, r0, #478150656	; 0x1c800000
    2000:	00006428 	andeq	r6, r0, r8, lsr #8
    2004:	04230200 	streqt	r0, [r3], #-512
    2008:	00367207 	eoreqs	r7, r6, r7, lsl #4
    200c:	00642902 	rsbeq	r2, r4, r2, lsl #18
    2010:	23020000 	movwcs	r0, #8192	; 0x2000
    2014:	37720708 	ldrccb	r0, [r2, -r8, lsl #14]!
    2018:	642a0200 	strvst	r0, [sl], #-512
    201c:	02000000 	andeq	r0, r0, #0	; 0x0
    2020:	72070c23 	andvc	r0, r7, #8960	; 0x2300
    2024:	2b020038 	blcs	8210c <_start-0xa2f7def4>
    2028:	00000064 	andeq	r0, r0, r4, rrx
    202c:	07102302 	ldreq	r2, [r0, -r2, lsl #6]
    2030:	02003972 	andeq	r3, r0, #1867776	; 0x1c8000
    2034:	0000642c 	andeq	r6, r0, ip, lsr #8
    2038:	14230200 	strnet	r0, [r3], #-512
    203c:	30317207 	eorccs	r7, r1, r7, lsl #4
    2040:	642d0200 	strvst	r0, [sp], #-512
    2044:	02000000 	andeq	r0, r0, #0	; 0x0
    2048:	72071823 	andvc	r1, r7, #2293760	; 0x230000
    204c:	02003131 	andeq	r3, r0, #1073741836	; 0x4000000c
    2050:	0000642e 	andeq	r6, r0, lr, lsr #8
    2054:	1c230200 	sfmne	f0, 4, [r3]
    2058:	00707307 	rsbeqs	r7, r0, r7, lsl #6
    205c:	007d2f02 	rsbeqs	r2, sp, r2, lsl #30
    2060:	23020000 	movwcs	r0, #8192	; 0x2000
    2064:	726c0720 	rsbvc	r0, ip, #8388608	; 0x800000
    2068:	7d300200 	lfmvc	f0, 4, [r0]
    206c:	02000000 	andeq	r0, r0, #0	; 0x0
    2070:	08002423 	stmeqda	r0, {r0, r1, r5, sl, sp}
    2074:	0000007f 	andeq	r0, r0, pc, ror r0
    2078:	00018609 	andeq	r8, r1, r9, lsl #12
    207c:	62637400 	rsbvs	r7, r3, #0	; 0x0
    2080:	02103800 	andeqs	r3, r0, #0	; 0x0
    2084:	05dd0a36 	ldreqb	r0, [sp, #2614]
    2088:	37020000 	strcc	r0, [r2, -r0]
    208c:	0000004b 	andeq	r0, r0, fp, asr #32
    2090:	0a002302 	beq	aca0 <_start-0xa2ff5360>
    2094:	00000cbb 	streqh	r0, [r0], -fp
    2098:	004b3802 	subeq	r3, fp, r2, lsl #16
    209c:	23020000 	movwcs	r0, #8192	; 0x2000
    20a0:	060a0a01 	streq	r0, [sl], -r1, lsl #20
    20a4:	39020000 	stmccdb	r2, {}
    20a8:	00000110 	andeq	r0, r0, r0, lsl r1
    20ac:	0a042302 	beq	10acbc <_start-0xa2ef5344>
    20b0:	00000500 	andeq	r0, r0, r0, lsl #10
    20b4:	003d3a02 	eoreqs	r3, sp, r2, lsl #20
    20b8:	23020000 	movwcs	r0, #8192	; 0x2000
    20bc:	05e90a2c 	streqb	r0, [r9, #2604]!
    20c0:	3b020000 	blcc	820c8 <_start-0xa2f7df38>
    20c4:	00000186 	andeq	r0, r0, r6, lsl #3
    20c8:	0a302302 	beq	c0acd8 <_start-0xa23f5328>
    20cc:	000005b7 	streqh	r0, [r0], -r7
    20d0:	01913e02 	orreqs	r3, r1, r2, lsl #28
    20d4:	23020000 	movwcs	r0, #8192	; 0x2000
    20d8:	05ab0a38 	streq	r0, [fp, #2616]!
    20dc:	3f020000 	svccc	0x00020000
    20e0:	000001a9 	andeq	r0, r0, r9, lsr #3
    20e4:	20b82303 	adccss	r2, r8, r3, lsl #6
    20e8:	8c040b00 	stchi	11, cr0, [r4], {0}
    20ec:	08000001 	stmeqda	r0, {r0}
    20f0:	00000115 	andeq	r0, r0, r5, lsl r1
    20f4:	0001a20c 	andeq	sl, r1, ip, lsl #4
    20f8:	00006400 	andeq	r6, r0, r0, lsl #8
    20fc:	01a20d00 	moveq	r0, r0, lsl #26
    2100:	03ff0000 	mvneqs	r0, #0	; 0x0
    2104:	00560200 	subeqs	r0, r6, r0, lsl #4
    2108:	07040000 	streq	r0, [r4, -r0]
    210c:	0001b80c 	andeq	fp, r1, ip, lsl #16
    2110:	00006400 	andeq	r6, r0, r0, lsl #8
    2114:	01a20e00 	moveq	r0, r0, lsl #28
    2118:	0f000000 	svceq	0x00000000
    211c:	000001dd 	ldreqd	r0, [r0], -sp
    2120:	000bee01 	andeq	lr, fp, r1, lsl #28
    2124:	01260100 	teqeq	r6, r0, lsl #2
    2128:	a3000e38 	movwge	r0, #3640	; 0xe38
    212c:	a3000e48 	movwge	r0, #3656	; 0xe48
    2130:	d8105d01 	ldmleda	r0, {r0, r8, sl, fp, ip, lr}
    2134:	0100000a 	tsteq	r0, sl
    2138:	00018625 	andeq	r8, r1, r5, lsr #12
    213c:	00500100 	subeqs	r0, r0, r0, lsl #2
    2140:	0cb70111 	ldfeqs	f0, [r7], #68
    2144:	7e010000 	cdpvc	0, 0, cr0, cr1, cr0, {0}
    2148:	00004b01 	andeq	r4, r0, r1, lsl #22
    214c:	000e4800 	andeq	r4, lr, r0, lsl #16
    2150:	000e5ca3 	andeq	r5, lr, r3, lsr #25
    2154:	125d01a3 	subnes	r0, sp, #-1073741784	; 0xc0000028
    2158:	000bfc01 	andeq	pc, fp, r1, lsl #24
    215c:	01860100 	orreq	r0, r6, r0, lsl #2
    2160:	00000186 	andeq	r0, r0, r6, lsl #3
    2164:	01f41301 	mvneqs	r1, r1, lsl #6
    2168:	0e5c0000 	cdpeq	0, 5, cr0, cr12, cr0, {0}
    216c:	0e6ca300 	cdpeq	3, 6, cr10, cr12, cr0, {0}
    2170:	5d01a300 	stcpl	3, cr10, [r1]
    2174:	00024514 	andeq	r4, r2, r4, lsl r5
    2178:	0c080100 	stfeqs	f0, [r8], {0}
    217c:	56010000 	strpl	r0, [r1], -r0
    2180:	000e6c01 	andeq	r6, lr, r1, lsl #24
    2184:	000e90a3 	andeq	r9, lr, r3, lsr #1
    2188:	000a74a3 	andeq	r7, sl, r3, lsr #9
    218c:	0add1500 	beq	ff747594 <__bss_end__+0x5c7049cc>
    2190:	57010000 	strpl	r0, [r1, -r0]
    2194:	00000186 	andeq	r0, r0, r6, lsl #3
    2198:	00000a93 	muleq	r0, r3, sl
    219c:	000ca816 	andeq	sl, ip, r6, lsl r8
    21a0:	4b580100 	blmi	16025a8 <_start-0xa19fda58>
    21a4:	00000000 	andeq	r0, r0, r0
    21a8:	00028414 	andeq	r8, r2, r4, lsl r4
    21ac:	0c8d0100 	stfeqs	f0, [sp], {0}
    21b0:	34010000 	strcc	r0, [r1]
    21b4:	000e9001 	andeq	r9, lr, r1
    21b8:	000f18a3 	andeq	r1, pc, r3, lsr #17
    21bc:	000aa6a3 	andeq	sl, sl, r3, lsr #13
    21c0:	0add1700 	beq	ff747dc8 <__bss_end__+0x5c705200>
    21c4:	35010000 	strcc	r0, [r1]
    21c8:	00000186 	andeq	r0, r0, r6, lsl #3
    21cc:	9b175401 	blls	5d71d8 <_start-0xa2a28e28>
    21d0:	0100000c 	tsteq	r0, ip
    21d4:	00018636 	andeq	r8, r1, r6, lsr r6
    21d8:	16550100 	ldrneb	r0, [r5], -r0, lsl #2
    21dc:	00000ca8 	andeq	r0, r0, r8, lsr #25
    21e0:	004b3701 	subeq	r3, fp, r1, lsl #14
    21e4:	14000000 	strne	r0, [r0]
    21e8:	000002d2 	ldreqd	r0, [r0], -r2
    21ec:	000c1801 	andeq	r1, ip, r1, lsl #16
    21f0:	01670100 	cmneq	r7, r0, lsl #2
    21f4:	a3000f18 	movwge	r0, #3864	; 0xf18
    21f8:	a3000f48 	movwge	r0, #3912	; 0xf48
    21fc:	00000ac5 	andeq	r0, r0, r5, asr #21
    2200:	000add15 	andeq	sp, sl, r5, lsl sp
    2204:	86680100 	strhibt	r0, [r8], -r0, lsl #2
    2208:	e4000001 	str	r0, [r0], #-1
    220c:	1500000a 	strne	r0, [r0, #-10]
    2210:	00000c9b 	muleq	r0, fp, ip
    2214:	01866901 	orreq	r6, r6, r1, lsl #18
    2218:	0af70000 	beq	ffdc2220 <__bss_end__+0x5cd7f658>
    221c:	a8160000 	ldmgeda	r6, {}
    2220:	0100000c 	tsteq	r0, ip
    2224:	00004b6a 	andeq	r4, r0, sl, ror #22
    2228:	01f41800 	mvneqs	r1, r0, lsl #16
    222c:	00300000 	eoreqs	r0, r0, r0
    2230:	6e010000 	cdpvs	0, 0, cr0, cr1, cr0, {0}
    2234:	0ca01700 	stceq	7, cr1, [r0]
    2238:	1c010000 	stcne	0, cr0, [r1], {0}
    223c:	00000186 	andeq	r0, r0, r6, lsl #3
    2240:	19900305 	ldmneib	r0, {r0, r2, r8, r9}
    2244:	5000a300 	andpl	sl, r0, r0, lsl #6
    2248:	02000003 	andeq	r0, r0, #3	; 0x3
    224c:	00107b00 	andeqs	r7, r0, r0, lsl #22
    2250:	95010400 	strls	r0, [r1, #-1024]
    2254:	10000016 	andne	r0, r0, r6, lsl r0
    2258:	8ca30011 	stchi	0, cr0, [r3], #68
    225c:	63a3000f 	movvs	r0, #15	; 0xf
    2260:	01000000 	tsteq	r0, r0
    2264:	00000d26 	andeq	r0, r0, r6, lsr #26
    2268:	00005102 	andeq	r5, r0, r2, lsl #2
    226c:	02070400 	andeq	r0, r7, #0	; 0x0
    2270:	00000074 	andeq	r0, r0, r4, ror r0
    2274:	2a020504 	bcs	8368c <_start-0xa2f7c974>
    2278:	01000000 	tsteq	r0, r0
    227c:	00420208 	subeq	r0, r2, r8, lsl #4
    2280:	05020000 	streq	r0, [r2]
    2284:	746e6903 	strvcbt	r6, [lr], #-2307
    2288:	02050400 	andeq	r0, r5, #0	; 0x0
    228c:	0000006f 	andeq	r0, r0, pc, rrx
    2290:	0b040508 	bleq	1036b8 <_start-0xa2efc948>
    2294:	03000005 	movweq	r0, #5	; 0x5
    2298:	0000562a 	andeq	r5, r0, sl, lsr #12
    229c:	00210200 	eoreq	r0, r1, r0, lsl #4
    22a0:	08010000 	stmeqda	r1, {}
    22a4:	00002f02 	andeq	r2, r0, r2, lsl #30
    22a8:	04070200 	streq	r0, [r7], #-512
    22ac:	000000d9 	ldreqd	r0, [r0], -r9
    22b0:	006f2c03 	rsbeq	r2, pc, r3, lsl #24
    22b4:	56020000 	strpl	r0, [r2], -r0
    22b8:	04000000 	streq	r0, [r0]
    22bc:	004c0207 	subeq	r0, ip, r7, lsl #4
    22c0:	07080000 	streq	r0, [r8, -r0]
    22c4:	10060405 	andne	r0, r6, r5, lsl #8
    22c8:	04000001 	streq	r0, [r0], #-1
    22cc:	28000006 	stmcsda	r0, {r1, r2}
    22d0:	72072602 	andvc	r2, r7, #2097152	; 0x200000
    22d4:	27020034 	smladxcs	r2, r4, r0, r0
    22d8:	00000064 	andeq	r0, r0, r4, rrx
    22dc:	07002302 	streq	r2, [r0, -r2, lsl #6]
    22e0:	02003572 	andeq	r3, r0, #478150656	; 0x1c800000
    22e4:	00006428 	andeq	r6, r0, r8, lsr #8
    22e8:	04230200 	streqt	r0, [r3], #-512
    22ec:	00367207 	eoreqs	r7, r6, r7, lsl #4
    22f0:	00642902 	rsbeq	r2, r4, r2, lsl #18
    22f4:	23020000 	movwcs	r0, #8192	; 0x2000
    22f8:	37720708 	ldrccb	r0, [r2, -r8, lsl #14]!
    22fc:	642a0200 	strvst	r0, [sl], #-512
    2300:	02000000 	andeq	r0, r0, #0	; 0x0
    2304:	72070c23 	andvc	r0, r7, #8960	; 0x2300
    2308:	2b020038 	blcs	823f0 <_start-0xa2f7dc10>
    230c:	00000064 	andeq	r0, r0, r4, rrx
    2310:	07102302 	ldreq	r2, [r0, -r2, lsl #6]
    2314:	02003972 	andeq	r3, r0, #1867776	; 0x1c8000
    2318:	0000642c 	andeq	r6, r0, ip, lsr #8
    231c:	14230200 	strnet	r0, [r3], #-512
    2320:	30317207 	eorccs	r7, r1, r7, lsl #4
    2324:	642d0200 	strvst	r0, [sp], #-512
    2328:	02000000 	andeq	r0, r0, #0	; 0x0
    232c:	72071823 	andvc	r1, r7, #2293760	; 0x230000
    2330:	02003131 	andeq	r3, r0, #1073741836	; 0x4000000c
    2334:	0000642e 	andeq	r6, r0, lr, lsr #8
    2338:	1c230200 	sfmne	f0, 4, [r3]
    233c:	00707307 	rsbeqs	r7, r0, r7, lsl #6
    2340:	007d2f02 	rsbeqs	r2, sp, r2, lsl #30
    2344:	23020000 	movwcs	r0, #8192	; 0x2000
    2348:	726c0720 	rsbvc	r0, ip, #8388608	; 0x800000
    234c:	7d300200 	lfmvc	f0, 4, [r0]
    2350:	02000000 	andeq	r0, r0, #0	; 0x0
    2354:	08002423 	stmeqda	r0, {r0, r1, r5, sl, sp}
    2358:	0000007f 	andeq	r0, r0, pc, ror r0
    235c:	00018609 	andeq	r8, r1, r9, lsl #12
    2360:	62637400 	rsbvs	r7, r3, #0	; 0x0
    2364:	02103800 	andeqs	r3, r0, #0	; 0x0
    2368:	05dd0a36 	ldreqb	r0, [sp, #2614]
    236c:	37020000 	strcc	r0, [r2, -r0]
    2370:	0000004b 	andeq	r0, r0, fp, asr #32
    2374:	0a002302 	beq	af84 <_start-0xa2ff507c>
    2378:	00000cbb 	streqh	r0, [r0], -fp
    237c:	004b3802 	subeq	r3, fp, r2, lsl #16
    2380:	23020000 	movwcs	r0, #8192	; 0x2000
    2384:	060a0a01 	streq	r0, [sl], -r1, lsl #20
    2388:	39020000 	stmccdb	r2, {}
    238c:	00000110 	andeq	r0, r0, r0, lsl r1
    2390:	0a042302 	beq	10afa0 <_start-0xa2ef5060>
    2394:	00000500 	andeq	r0, r0, r0, lsl #10
    2398:	003d3a02 	eoreqs	r3, sp, r2, lsl #20
    239c:	23020000 	movwcs	r0, #8192	; 0x2000
    23a0:	05e90a2c 	streqb	r0, [r9, #2604]!
    23a4:	3b020000 	blcc	823ac <_start-0xa2f7dc54>
    23a8:	00000186 	andeq	r0, r0, r6, lsl #3
    23ac:	0a302302 	beq	c0afbc <_start-0xa23f5044>
    23b0:	000005b7 	streqh	r0, [r0], -r7
    23b4:	01913e02 	orreqs	r3, r1, r2, lsl #28
    23b8:	23020000 	movwcs	r0, #8192	; 0x2000
    23bc:	05ab0a38 	streq	r0, [fp, #2616]!
    23c0:	3f020000 	svccc	0x00020000
    23c4:	000001a9 	andeq	r0, r0, r9, lsr #3
    23c8:	20b82303 	adccss	r2, r8, r3, lsl #6
    23cc:	8c040b00 	stchi	11, cr0, [r4], {0}
    23d0:	08000001 	stmeqda	r0, {r0}
    23d4:	00000115 	andeq	r0, r0, r5, lsl r1
    23d8:	0001a20c 	andeq	sl, r1, ip, lsl #4
    23dc:	00006400 	andeq	r6, r0, r0, lsl #8
    23e0:	01a20d00 	moveq	r0, r0, lsl #26
    23e4:	03ff0000 	mvneqs	r0, #0	; 0x0
    23e8:	00560200 	subeqs	r0, r6, r0, lsl #4
    23ec:	07040000 	streq	r0, [r4, -r0]
    23f0:	0001b80c 	andeq	fp, r1, ip, lsl #16
    23f4:	00006400 	andeq	r6, r0, r0, lsl #8
    23f8:	01a20e00 	moveq	r0, r0, lsl #28
    23fc:	0f000000 	svceq	0x00000000
    2400:	000001db 	ldreqd	r0, [r0], -fp
    2404:	000d1801 	andeq	r1, sp, r1, lsl #16
    2408:	01460100 	cmpeq	r6, r0, lsl #2
    240c:	a3000f8c 	movwge	r0, #3980	; 0xf8c
    2410:	a3000fe0 	movwge	r0, #4064	; 0xfe0
    2414:	8a105d01 	bhi	419820 <_start-0xa2be67e0>
    2418:	01000008 	tsteq	r0, r8
    241c:	00003d47 	andeq	r3, r0, r7, asr #26
    2420:	27110000 	ldrcs	r0, [r1, -r0]
    2424:	01000002 	tsteq	r0, r2
    2428:	00000d03 	andeq	r0, r0, r3, lsl #26
    242c:	e0015b01 	and	r5, r1, r1, lsl #22
    2430:	2ca3000f 	stccs	0, cr0, [r3], #60
    2434:	0aa30010 	beq	fe8c247c <__bss_end__+0x5b87f8b4>
    2438:	1200000b 	andne	r0, r0, #11	; 0xb
    243c:	00626374 	rsbeq	r6, r2, r4, ror r3
    2440:	01865a01 	orreq	r5, r6, r1, lsl #20
    2444:	50010000 	andpl	r0, r1, r0
    2448:	0005e413 	andeq	lr, r5, r3, lsl r4
    244c:	4b5a0100 	blmi	1682854 <_start-0xa197d7ac>
    2450:	29000000 	stmcsdb	r0, {}
    2454:	1000000b 	andne	r0, r0, fp
    2458:	00000d9a 	muleq	r0, sl, sp
    245c:	004b5c01 	subeq	r5, fp, r1, lsl #24
    2460:	a1100000 	tstge	r0, r0
    2464:	0100000d 	tsteq	r0, sp
    2468:	00004b5c 	andeq	r4, r0, ip, asr fp
    246c:	7b140000 	blvc	502474 <_start-0xa2afdb8c>
    2470:	01000002 	tsteq	r0, r2
    2474:	00000ccd 	andeq	r0, r0, sp, asr #25
    2478:	86017401 	strhi	r7, [r1], -r1, lsl #8
    247c:	2c000001 	stccs	0, cr0, [r0], {1}
    2480:	84a30010 	strhit	r0, [r3], #16
    2484:	47a30010 	undefined
    2488:	1300000b 	movwne	r0, #11	; 0xb
    248c:	000005e4 	andeq	r0, r0, r4, ror #11
    2490:	004b7301 	subeq	r7, fp, r1, lsl #6
    2494:	0b660000 	bleq	198249c <_start-0xa167db64>
    2498:	9a100000 	bls	4024a0 <_start-0xa2bfdb60>
    249c:	0100000d 	tsteq	r0, sp
    24a0:	00003d75 	andeq	r3, r0, r5, ror sp
    24a4:	0da11500 	cfstr32eq	mvfx1, [r1]
    24a8:	75010000 	strvc	r0, [r1]
    24ac:	0000003d 	andeq	r0, r0, sp, lsr r0
    24b0:	10165e01 	andnes	r5, r6, r1, lsl #28
    24b4:	0100000d 	tsteq	r0, sp
    24b8:	00018676 	andeq	r8, r1, r6, ror r6
    24bc:	000b8400 	andeq	r8, fp, r0, lsl #8
    24c0:	b6170000 	ldrlt	r0, [r7], -r0
    24c4:	01000002 	tsteq	r0, r2
    24c8:	00000cf6 	streqd	r0, [r0], -r6
    24cc:	4b018c01 	blmi	654d8 <_start-0xa2f9ab28>
    24d0:	84000000 	strhi	r0, [r0]
    24d4:	b8a30010 	stmltia	r3!, {r4}
    24d8:	01a30010 	moveq	r0, r0, lsl r0
    24dc:	0078185d 	rsbeqs	r1, r8, sp, asr r8
    24e0:	004b8d01 	subeq	r8, fp, r1, lsl #26
    24e4:	79190000 	ldmvcdb	r9, {}
    24e8:	4b8d0100 	blmi	fe3428f0 <__bss_end__+0x5b2ffd28>
    24ec:	01000000 	tsteq	r0, r0
    24f0:	05e41052 	streqb	r1, [r4, #82]!
    24f4:	8d010000 	stchi	0, cr0, [r1]
    24f8:	0000004b 	andeq	r0, r0, fp, asr #32
    24fc:	02da1a00 	sbceqs	r1, sl, #0	; 0x0
    2500:	ee010000 	cdp	0, 0, cr0, cr1, cr0, {0}
    2504:	0100000c 	tsteq	r0, ip
    2508:	0010b895 	muleqs	r0, r5, r8
    250c:	001110a3 	andeqs	r1, r1, r3, lsr #1
    2510:	000b97a3 	andeq	r9, fp, r3, lsr #15
    2514:	00691900 	rsbeq	r1, r9, r0, lsl #18
    2518:	003d9601 	eoreqs	r9, sp, r1, lsl #12
    251c:	54010000 	strpl	r0, [r1]
    2520:	02ea0c00 	rsceq	r0, sl, #0	; 0x0
    2524:	01860000 	orreq	r0, r6, r0
    2528:	a21b0000 	andges	r0, fp, #0	; 0x0
    252c:	3f000001 	svccc	0x00000001
    2530:	0cc41500 	cfstr64eq	mvdx1, [r4], {0}
    2534:	19010000 	stmnedb	r1, {}
    2538:	000002da 	ldreqd	r0, [r0], -sl
    253c:	19940305 	ldmneib	r4, {r0, r2, r8, r9}
    2540:	0b0ca300 	bleq	32b148 <_start-0xa2cd4eb8>
    2544:	4b000003 	blmi	2558 <_start-0xa2ffdaa8>
    2548:	1b000000 	blne	2550 <_start-0xa2ffdab0>
    254c:	000001a2 	andeq	r0, r0, r2, lsr #3
    2550:	91150007 	tstls	r5, r7
    2554:	0100000d 	tsteq	r0, sp
    2558:	0002fb1e 	andeq	pc, r2, lr, lsl fp
    255c:	94030500 	strls	r0, [r3], #-1280
    2560:	15a3001a 	strne	r0, [r3, #26]!
    2564:	00000d8b 	andeq	r0, r0, fp, lsl #27
    2568:	004b2501 	subeq	r2, fp, r1, lsl #10
    256c:	03050000 	movweq	r0, #20480	; 0x5000
    2570:	a3001a9c 	movwge	r1, #2716	; 0xa9c
    2574:	00033d0c 	andeq	r3, r3, ip, lsl #26
    2578:	00004b00 	andeq	r4, r0, r0, lsl #22
    257c:	01a21b00 	moveq	r1, r0, lsl #22
    2580:	00ff0000 	rsceqs	r0, pc, r0
    2584:	000cdd15 	andeq	sp, ip, r5, lsl sp
    2588:	4e2a0100 	sufmie	f0, f2, f0
    258c:	05000003 	streq	r0, [r0, #-3]
    2590:	00186003 	andeqs	r6, r8, r3
    2594:	032d1ca3 	teqeq	sp, #41728	; 0xa300
    2598:	a8000000 	stmgeda	r0, {}
    259c:	02000003 	andeq	r0, r0, #3	; 0x3
    25a0:	00120600 	andeqs	r0, r2, r0, lsl #12
    25a4:	de010400 	cfcpysle	mvf0, mvf1
    25a8:	fc000017 	stc2	0, cr0, [r0], {23}
    25ac:	10a30012 	adcne	r0, r3, r2, lsl r0
    25b0:	63a30011 	movvs	r0, #17	; 0x11
    25b4:	01000000 	tsteq	r0, r0
    25b8:	00000e20 	andeq	r0, r0, r0, lsr #28
    25bc:	00003a02 	andeq	r3, r0, r2, lsl #20
    25c0:	000deb00 	andeq	lr, sp, r0, lsl #22
    25c4:	1b020400 	blne	835cc <_start-0xa2f7ca34>
    25c8:	000dc203 	andeq	ip, sp, r3, lsl #4
    25cc:	1b030000 	blne	c25d4 <_start-0xa2f3da2c>
    25d0:	0100000e 	tsteq	r0, lr
    25d4:	0deb0400 	cfstrdeq	mvd0, [fp]
    25d8:	1e020000 	cdpne	0, 0, cr0, cr2, cr0, {0}
    25dc:	00000021 	andeq	r0, r0, r1, lsr #32
    25e0:	00005105 	andeq	r5, r0, r5, lsl #2
    25e4:	05070400 	streq	r0, [r7, #-1024]
    25e8:	00000074 	andeq	r0, r0, r4, ror r0
    25ec:	2a050504 	bcs	143a04 <_start-0xa2ebc5fc>
    25f0:	01000000 	tsteq	r0, r0
    25f4:	00420508 	subeq	r0, r2, r8, lsl #10
    25f8:	05020000 	streq	r0, [r2]
    25fc:	746e6906 	strvcbt	r6, [lr], #-2310
    2600:	05050400 	streq	r0, [r5, #-1024]
    2604:	0000006f 	andeq	r0, r0, pc, rrx
    2608:	0b040508 	bleq	103a30 <_start-0xa2efc5d0>
    260c:	02000005 	andeq	r0, r0, #5	; 0x5
    2610:	00007a2a 	andeq	r7, r0, sl, lsr #20
    2614:	00210500 	eoreq	r0, r1, r0, lsl #10
    2618:	08010000 	stmeqda	r1, {}
    261c:	00002f05 	andeq	r2, r0, r5, lsl #30
    2620:	04070200 	streq	r0, [r7], #-512
    2624:	000000d9 	ldreqd	r0, [r0], -r9
    2628:	00932c02 	addeqs	r2, r3, r2, lsl #24
    262c:	56050000 	strpl	r0, [r5], -r0
    2630:	04000000 	streq	r0, [r0]
    2634:	004c0507 	subeq	r0, ip, r7, lsl #10
    2638:	07080000 	streq	r0, [r8, -r0]
    263c:	34080407 	strcc	r0, [r8], #-1031
    2640:	04000001 	streq	r0, [r0], #-1
    2644:	28000006 	stmcsda	r0, {r1, r2}
    2648:	72092603 	andvc	r2, r9, #3145728	; 0x300000
    264c:	27030034 	smladxcs	r3, r4, r0, r0
    2650:	00000088 	andeq	r0, r0, r8, lsl #1
    2654:	09002302 	stmeqdb	r0, {r1, r8, r9, sp}
    2658:	03003572 	movweq	r3, #1394	; 0x572
    265c:	00008828 	andeq	r8, r0, r8, lsr #16
    2660:	04230200 	streqt	r0, [r3], #-512
    2664:	00367209 	eoreqs	r7, r6, r9, lsl #4
    2668:	00882903 	addeq	r2, r8, r3, lsl #18
    266c:	23020000 	movwcs	r0, #8192	; 0x2000
    2670:	37720908 	ldrccb	r0, [r2, -r8, lsl #18]!
    2674:	882a0300 	stmhida	sl!, {r8, r9}
    2678:	02000000 	andeq	r0, r0, #0	; 0x0
    267c:	72090c23 	andvc	r0, r9, #8960	; 0x2300
    2680:	2b030038 	blcs	c2768 <_start-0xa2f3d898>
    2684:	00000088 	andeq	r0, r0, r8, lsl #1
    2688:	09102302 	ldmeqdb	r0, {r1, r8, r9, sp}
    268c:	03003972 	movweq	r3, #2418	; 0x972
    2690:	0000882c 	andeq	r8, r0, ip, lsr #16
    2694:	14230200 	strnet	r0, [r3], #-512
    2698:	30317209 	eorccs	r7, r1, r9, lsl #4
    269c:	882d0300 	stmhida	sp!, {r8, r9}
    26a0:	02000000 	andeq	r0, r0, #0	; 0x0
    26a4:	72091823 	andvc	r1, r9, #2293760	; 0x230000
    26a8:	03003131 	movweq	r3, #305	; 0x131
    26ac:	0000882e 	andeq	r8, r0, lr, lsr #16
    26b0:	1c230200 	sfmne	f0, 4, [r3]
    26b4:	00707309 	rsbeqs	r7, r0, r9, lsl #6
    26b8:	00a12f03 	adceq	r2, r1, r3, lsl #30
    26bc:	23020000 	movwcs	r0, #8192	; 0x2000
    26c0:	726c0920 	rsbvc	r0, ip, #524288	; 0x80000
    26c4:	a1300300 	teqge	r0, r0, lsl #6
    26c8:	02000000 	andeq	r0, r0, #0	; 0x0
    26cc:	0a002423 	beq	b760 <_start-0xa2ff48a0>
    26d0:	000000a3 	andeq	r0, r0, r3, lsr #1
    26d4:	0001aa0b 	andeq	sl, r1, fp, lsl #20
    26d8:	62637400 	rsbvs	r7, r3, #0	; 0x0
    26dc:	03103800 	tsteq	r0, #0	; 0x0
    26e0:	05dd0c36 	ldreqb	r0, [sp, #3126]
    26e4:	37030000 	strcc	r0, [r3, -r0]
    26e8:	0000006f 	andeq	r0, r0, pc, rrx
    26ec:	0c002302 	stceq	3, cr2, [r0], {2}
    26f0:	00000cbb 	streqh	r0, [r0], -fp
    26f4:	006f3803 	rsbeq	r3, pc, r3, lsl #16
    26f8:	23020000 	movwcs	r0, #8192	; 0x2000
    26fc:	060a0c01 	streq	r0, [sl], -r1, lsl #24
    2700:	39030000 	stmccdb	r3, {}
    2704:	00000134 	andeq	r0, r0, r4, lsr r1
    2708:	0c042302 	stceq	3, cr2, [r4], {2}
    270c:	00000500 	andeq	r0, r0, r0, lsl #10
    2710:	00613a03 	rsbeq	r3, r1, r3, lsl #20
    2714:	23020000 	movwcs	r0, #8192	; 0x2000
    2718:	05e90c2c 	streqb	r0, [r9, #3116]!
    271c:	3b030000 	blcc	c2724 <_start-0xa2f3d8dc>
    2720:	000001aa 	andeq	r0, r0, sl, lsr #3
    2724:	0c302302 	ldceq	3, cr2, [r0], #-8
    2728:	000005b7 	streqh	r0, [r0], -r7
    272c:	01b53e03 	moveqs	r3, r3, lsl #28
    2730:	23020000 	movwcs	r0, #8192	; 0x2000
    2734:	05ab0c38 	streq	r0, [fp, #3128]!
    2738:	3f030000 	svccc	0x00030000
    273c:	000001cd 	andeq	r0, r0, sp, asr #3
    2740:	20b82303 	adccss	r2, r8, r3, lsl #6
    2744:	b0040d00 	andlt	r0, r4, r0, lsl #26
    2748:	0a000001 	beq	2754 <_start-0xa2ffd8ac>
    274c:	00000139 	andeq	r0, r0, r9, lsr r1
    2750:	0001c60e 	andeq	ip, r1, lr, lsl #12
    2754:	00008800 	andeq	r8, r0, r0, lsl #16
    2758:	01c60f00 	biceq	r0, r6, r0, lsl #30
    275c:	03ff0000 	mvneqs	r0, #0	; 0x0
    2760:	00560500 	subeqs	r0, r6, r0, lsl #10
    2764:	07040000 	streq	r0, [r4, -r0]
    2768:	0001dc0e 	andeq	sp, r1, lr, lsl #24
    276c:	00008800 	andeq	r8, r0, r0, lsl #16
    2770:	01c61000 	biceq	r1, r6, r0
    2774:	08000000 	stmeqda	r0, {}
    2778:	00000221 	andeq	r0, r0, r1, lsr #4
    277c:	0000077a 	andeq	r0, r0, sl, ror r7
    2780:	0c150410 	cfldrseq	mvf0, [r5], {16}
    2784:	00000e10 	andeq	r0, r0, r0, lsl lr
    2788:	003a1604 	eoreqs	r1, sl, r4, lsl #12
    278c:	23020000 	movwcs	r0, #8192	; 0x2000
    2790:	0e9b0c00 	cdpeq	12, 9, cr0, cr11, cr0, {0}
    2794:	17040000 	strne	r0, [r4, -r0]
    2798:	000001aa 	andeq	r0, r0, sl, lsr #3
    279c:	0c042302 	stceq	3, cr2, [r4], {2}
    27a0:	00000dc8 	andeq	r0, r0, r8, asr #27
    27a4:	003a1804 	eoreqs	r1, sl, r4, lsl #16
    27a8:	23020000 	movwcs	r0, #8192	; 0x2000
    27ac:	0dde0c08 	ldceql	12, cr0, [lr, #32]
    27b0:	19040000 	stmnedb	r4, {}
    27b4:	000001aa 	andeq	r0, r0, sl, lsr #3
    27b8:	000c2302 	andeq	r2, ip, r2, lsl #6
    27bc:	000e9304 	andeq	r9, lr, r4, lsl #6
    27c0:	dc1b0400 	cfldrsle	mvf0, [fp], {0}
    27c4:	11000001 	tstne	r0, r1
    27c8:	0000024d 	andeq	r0, r0, sp, asr #4
    27cc:	000e8801 	andeq	r8, lr, r1, lsl #16
    27d0:	011f0100 	tsteq	pc, r0, lsl #2
    27d4:	a3001110 	movwge	r1, #272	; 0x110
    27d8:	a3001148 	movwge	r1, #328	; 0x148
    27dc:	69125d01 	ldmvsdb	r2, {r0, r8, sl, fp, ip, lr}
    27e0:	88200100 	stmhida	r0!, {r8}
    27e4:	00000000 	andeq	r0, r0, r0
    27e8:	00027413 	andeq	r7, r2, r3, lsl r4
    27ec:	0da80100 	stfeqs	f0, [r8]
    27f0:	2b010000 	blcs	427f8 <_start-0xa2fbd808>
    27f4:	00006101 	andeq	r6, r0, r1, lsl #2
    27f8:	00114800 	andeqs	r4, r1, r0, lsl #16
    27fc:	00118ca3 	andeqs	r8, r1, r3, lsr #25
    2800:	145d01a3 	ldrneb	r0, [sp], #-419
    2804:	2c010069 	stccs	0, cr0, [r1], {105}
    2808:	00000088 	andeq	r0, r0, r8, lsl #1
    280c:	11005101 	tstne	r0, r1, lsl #2
    2810:	000002c1 	andeq	r0, r0, r1, asr #5
    2814:	000dce01 	andeq	ip, sp, r1, lsl #28
    2818:	013a0100 	teqeq	sl, r0, lsl #2
    281c:	a300118c 	movwge	r1, #396	; 0x18c
    2820:	a30011c8 	movwge	r1, #456	; 0x1c8
    2824:	7a155d01 	bvc	559c30 <_start-0xa2aa63d0>
    2828:	01000007 	tsteq	r0, r7
    282c:	00006139 	andeq	r6, r0, r9, lsr r1
    2830:	16500100 	ldrneb	r0, [r0], -r0, lsl #2
    2834:	00626374 	rsbeq	r6, r2, r4, ror r3
    2838:	01aa3901 	moveq	r3, r1, lsl #18
    283c:	51010000 	tstpl	r1, r0
    2840:	78746d17 	ldmvcda	r4!, {r0, r1, r2, r4, r8, sl, fp, sp, lr}^
    2844:	c13b0100 	teqgt	fp, r0, lsl #2
    2848:	b6000002 	strlt	r0, [r0], -r2
    284c:	1400000b 	strne	r0, [r0], #-11
    2850:	01003170 	tsteq	r0, r0, ror r1
    2854:	0001aa3c 	andeq	sl, r1, ip, lsr sl
    2858:	00530100 	subeqs	r0, r3, r0, lsl #2
    285c:	0221040d 	eoreq	r0, r1, #218103808	; 0xd000000
    2860:	03180000 	tsteq	r8, #0	; 0x0
    2864:	01000003 	tsteq	r0, r3
    2868:	00000df2 	streqd	r0, [r0], -r2
    286c:	61016501 	tstvs	r1, r1, lsl #10
    2870:	c8000000 	stmgtda	r0, {}
    2874:	48a30011 	stmmiia	r3!, {r0, r4}
    2878:	d4a30012 	strlet	r0, [r3], #18
    287c:	1900000b 	stmnedb	r0, {r0, r1, r3}
    2880:	0000077a 	andeq	r0, r0, sl, ror r7
    2884:	00616401 	rsbeq	r6, r1, r1, lsl #8
    2888:	0bf30000 	bleq	ffcc2890 <__bss_end__+0x5cc7fcc8>
    288c:	a01a0000 	andges	r0, sl, r0
    2890:	0100000c 	tsteq	r0, ip
    2894:	0001aa66 	andeq	sl, r1, r6, ror #20
    2898:	000c3d00 	andeq	r3, ip, r0, lsl #26
    289c:	511b0000 	tstpl	fp, r0
    28a0:	01000003 	tsteq	r0, r3
    28a4:	00000dfd 	streqd	r0, [r0], -sp
    28a8:	48015001 	stmmida	r1, {r0, ip, lr}
    28ac:	9ca30012 	stcls	0, cr0, [r3], #72
    28b0:	71a30012 	movvc	r0, r2, lsl r0
    28b4:	1900000c 	stmnedb	r0, {r2, r3}
    28b8:	0000077a 	andeq	r0, r0, sl, ror r7
    28bc:	00614f01 	rsbeq	r4, r1, r1, lsl #30
    28c0:	0c900000 	ldceq	0, cr0, [r0], {0}
    28c4:	6d140000 	ldcvs	0, cr0, [r4]
    28c8:	01007874 	tsteq	r0, r4, ror r8
    28cc:	0002c151 	andeq	ip, r2, r1, asr r1
    28d0:	17550100 	ldrneb	r0, [r5, -r0, lsl #2]
    28d4:	01003170 	tsteq	r0, r0, ror r1
    28d8:	0001aa52 	andeq	sl, r1, r2, asr sl
    28dc:	000cae00 	andeq	sl, ip, r0, lsl #28
    28e0:	32701200 	rsbccs	r1, r0, #0	; 0x0
    28e4:	aa520100 	bge	1482cec <_start-0xa1b7d314>
    28e8:	00000001 	andeq	r0, r0, r1
    28ec:	00038918 	andeq	r8, r3, r8, lsl r9
    28f0:	0db50100 	ldfeqs	f0, [r5]
    28f4:	84010000 	strhi	r0, [r1]
    28f8:	00006101 	andeq	r6, r0, r1, lsl #2
    28fc:	00129c00 	andeqs	r9, r2, r0, lsl #24
    2900:	0012fca3 	andeqs	pc, r2, r3, lsr #25
    2904:	000ceda3 	andeq	lr, ip, r3, lsr #27
    2908:	077a1900 	ldreqb	r1, [sl, -r0, lsl #18]!
    290c:	83010000 	movwhi	r0, #4096	; 0x1000
    2910:	00000061 	andeq	r0, r0, r1, rrx
    2914:	00000d0c 	andeq	r0, r0, ip, lsl #26
    2918:	000ca01c 	andeq	sl, ip, ip, lsl r0
    291c:	aa850100 	bge	fe142d24 <__bss_end__+0x5b10015c>
    2920:	00000001 	andeq	r0, r0, r1
    2924:	0003990e 	andeq	r9, r3, lr, lsl #18
    2928:	00022100 	andeq	r2, r2, r0, lsl #2
    292c:	01c61d00 	biceq	r1, r6, r0, lsl #26
    2930:	001f0000 	andeqs	r0, pc, r0
    2934:	000e801e 	andeq	r8, lr, lr, lsl r0
    2938:	891c0100 	ldmhidb	ip, {r8}
    293c:	01000003 	tsteq	r0, r3
    2940:	29c80305 	stmcsib	r8, {r0, r2, r8, r9}^
    2944:	ba00a304 	blt	2b55c <_start-0xa2fd4aa4>
    2948:	02000000 	andeq	r0, r0, #0	; 0x0
    294c:	0013ad00 	andeqs	sl, r3, r0, lsl #26
    2950:	42010400 	andmi	r0, r1, #0	; 0x0
    2954:	ac000019 	stcge	0, cr0, [r0], {25}
    2958:	fca30013 	stc2	0, cr0, [r3], #76
    295c:	63a30012 	movvs	r0, #18	; 0x12
    2960:	01000000 	tsteq	r0, r0
    2964:	00000ec6 	andeq	r0, r0, r6, asr #29
    2968:	00005102 	andeq	r5, r0, r2, lsl #2
    296c:	02070400 	andeq	r0, r7, #0	; 0x0
    2970:	00000074 	andeq	r0, r0, r4, ror r0
    2974:	2a020504 	bcs	83d8c <_start-0xa2f7c274>
    2978:	01000000 	tsteq	r0, r0
    297c:	00420208 	subeq	r0, r2, r8, lsl #4
    2980:	05020000 	streq	r0, [r2]
    2984:	746e6903 	strvcbt	r6, [lr], #-2307
    2988:	02050400 	andeq	r0, r5, #0	; 0x0
    298c:	0000006f 	andeq	r0, r0, pc, rrx
    2990:	21020508 	tstcs	r2, r8, lsl #10
    2994:	01000000 	tsteq	r0, r0
    2998:	002f0208 	eoreq	r0, pc, r8, lsl #4
    299c:	07020000 	streq	r0, [r2, -r0]
    29a0:	00005602 	andeq	r5, r0, r2, lsl #12
    29a4:	02070400 	andeq	r0, r7, #0	; 0x0
    29a8:	0000004c 	andeq	r0, r0, ip, asr #32
    29ac:	c0040708 	andgt	r0, r4, r8, lsl #14
    29b0:	0100000e 	tsteq	r0, lr
    29b4:	12fc0127 	rscnes	r0, ip, #-1073741815	; 0xc0000009
    29b8:	1384a300 	orrne	sl, r4, #0	; 0x0
    29bc:	5d01a300 	stcpl	3, cr10, [r1]
    29c0:	00009d05 	andeq	r9, r0, r5, lsl #26
    29c4:	0eb40100 	frdeqs	f0, f4, f0
    29c8:	2e010000 	cdpcs	0, 0, cr0, cr1, cr0, {0}
    29cc:	00138401 	andeqs	r8, r3, r1, lsl #8
    29d0:	0013aca3 	andeqs	sl, r3, r3, lsr #25
    29d4:	065d01a3 	ldreqb	r0, [sp], -r3, lsr #3
    29d8:	01007063 	tsteq	r0, r3, rrx
    29dc:	00009d2f 	andeq	r9, r0, pc, lsr #26
    29e0:	00520100 	subeqs	r0, r2, r0, lsl #2
    29e4:	00210407 	eoreq	r0, r1, r7, lsl #8
    29e8:	a8080000 	stmgeda	r8, {}
    29ec:	0100000e 	tsteq	r0, lr
    29f0:	0000212b 	andeq	r2, r0, fp, lsr #2
    29f4:	08010100 	stmeqda	r1, {r8}
    29f8:	000008c1 	andeq	r0, r0, r1, asr #17
    29fc:	00212b01 	eoreq	r2, r1, r1, lsl #22
    2a00:	01010000 	tsteq	r1, r0
    2a04:	00011800 	andeq	r1, r1, r0, lsl #16
    2a08:	28000200 	stmcsda	r0, {r9}
    2a0c:	04000014 	streq	r0, [r0], #-20
    2a10:	001a4b01 	andeqs	r4, sl, r1, lsl #22
    2a14:	0013ac00 	andeqs	sl, r3, r0, lsl #24
    2a18:	001470a3 	andeqs	r7, r4, r3, lsr #1
    2a1c:	66612fa3 	strvsbt	r2, [r1], -r3, lsr #31
    2a20:	63652f73 	cmnvs	r5, #460	; 0x1cc
    2a24:	6d632e65 	stcvsl	14, cr2, [r3, #-404]!
    2a28:	64652e75 	strvsbt	r2, [r5], #-3701
    2a2c:	6c632f75 	stcvsl	15, cr2, [r3], #-468
    2a30:	2f737361 	svccs	0x00737361
    2a34:	34336565 	ldrcct	r6, [r3], #-1381
    2a38:	75672f39 	strvcb	r2, [r7, #-3897]!
    2a3c:	6974736d 	ldmvsdb	r4!, {r0, r2, r3, r5, r6, r8, r9, ip, sp, lr}^
    2a40:	67682f78 	undefined
    2a44:	6d75672f 	ldcvsl	7, cr6, [r5, #-188]!
    2a48:	78697473 	stmvcda	r9!, {r0, r1, r4, r5, r6, sl, ip, sp, lr}^
    2a4c:	6975622d 	ldmvsdb	r5!, {r0, r2, r3, r5, r9, sp, lr}^
    2a50:	6f72646c 	svcvs	0x0072646c
    2a54:	632e746f 	teqvs	lr, #1862270976	; 0x6f000000
    2a58:	73736f72 	cmnvc	r3, #456	; 0x1c8
    2a5c:	6f6f742f 	svcvs	0x006f742f
    2a60:	6168636c 	cmnvs	r8, ip, ror #6
    2a64:	625f6e69 	subvss	r6, pc, #1680	; 0x690
    2a68:	646c6975 	strvsbt	r6, [ip], #-2421
    2a6c:	6d72615f 	ldfvse	f6, [r2, #-380]!
    2a70:	666f6e5f 	undefined
    2a74:	672f7570 	undefined
    2a78:	342d6363 	strcct	r6, [sp], #-867
    2a7c:	312e312e 	teqcc	lr, lr, lsr #2
    2a80:	6363672f 	cmnvs	r3, #12320768	; 0xbc0000
    2a84:	6e6f632f 	cdpvs	3, 6, cr6, cr15, cr15, {1}
    2a88:	2f676966 	svccs	0x00676966
    2a8c:	2f6d7261 	svccs	0x006d7261
    2a90:	3162696c 	cmncc	r2, ip, ror #18
    2a94:	636e7566 	cmnvs	lr, #427819008	; 0x19800000
    2a98:	73612e73 	cmnvc	r1, #1840	; 0x730
    2a9c:	612f006d 	teqvs	pc, sp, rrx
    2aa0:	652f7366 	strvs	r7, [pc, #-870]!	; 2742 <_start-0xa2ffd8be>
    2aa4:	632e6563 	teqvs	lr, #415236096	; 0x18c00000
    2aa8:	652e756d 	strvs	r7, [lr, #-1389]!
    2aac:	632f7564 	teqvs	pc, #419430400	; 0x19000000
    2ab0:	7373616c 	cmnvc	r3, #27	; 0x1b
    2ab4:	3365652f 	cmncc	r5, #197132288	; 0xbc00000
    2ab8:	672f3934 	undefined
    2abc:	74736d75 	ldrvcbt	r6, [r3], #-3445
    2ac0:	682f7869 	stmvsda	pc!, {r0, r3, r5, r6, fp, ip, sp, lr}
    2ac4:	75672f67 	strvcb	r2, [r7, #-3943]!
    2ac8:	6974736d 	ldmvsdb	r4!, {r0, r2, r3, r5, r6, r8, r9, ip, sp, lr}^
    2acc:	75622d78 	strvcb	r2, [r2, #-3448]!
    2ad0:	72646c69 	rsbvc	r6, r4, #26880	; 0x6900
    2ad4:	2e746f6f 	cdpcs	15, 7, cr6, cr4, cr15, {3}
    2ad8:	736f7263 	cmnvc	pc, #805306374	; 0x30000006
    2adc:	6f742f73 	svcvs	0x00742f73
    2ae0:	68636c6f 	stmvsda	r3!, {r0, r1, r2, r3, r5, r6, sl, fp, sp, lr}^
    2ae4:	5f6e6961 	svcpl	0x006e6961
    2ae8:	6c697562 	cfstr64vs	mvdx7, [r9], #-392
    2aec:	72615f64 	rsbvc	r5, r1, #400	; 0x190
    2af0:	6f6e5f6d 	svcvs	0x006e5f6d
    2af4:	2f757066 	svccs	0x00757066
    2af8:	2d636367 	stccsl	3, cr6, [r3, #-412]!
    2afc:	2e312e34 	mrccs	14, 1, r2, cr1, cr4, {1}
    2b00:	69662d31 	stmvsdb	r6!, {r0, r4, r5, r8, sl, fp, sp}^
    2b04:	2f6c616e 	svccs	0x006c616e
    2b08:	00636367 	rsbeq	r6, r3, r7, ror #6
    2b0c:	20554e47 	subcss	r4, r5, r7, asr #28
    2b10:	32205341 	eorcc	r5, r0, #67108865	; 0x4000001
    2b14:	2e37312e 	rsfcssp	f3, f7, #0.5
    2b18:	302e3035 	eorcc	r3, lr, r5, lsr r0
    2b1c:	0100362e 	tsteq	r0, lr, lsr #12
    2b20:	00011880 	andeq	r1, r1, r0, lsl #17
    2b24:	3c000200 	sfmcc	f0, 4, [r0], {0}
    2b28:	04000014 	streq	r0, [r0], #-20
    2b2c:	001b2301 	andeqs	r2, fp, r1, lsl #6
    2b30:	00147000 	andeqs	r7, r4, r0
    2b34:	001520a3 	andeqs	r2, r5, r3, lsr #1
    2b38:	66612fa3 	strvsbt	r2, [r1], -r3, lsr #31
    2b3c:	63652f73 	cmnvs	r5, #460	; 0x1cc
    2b40:	6d632e65 	stcvsl	14, cr2, [r3, #-404]!
    2b44:	64652e75 	strvsbt	r2, [r5], #-3701
    2b48:	6c632f75 	stcvsl	15, cr2, [r3], #-468
    2b4c:	2f737361 	svccs	0x00737361
    2b50:	34336565 	ldrcct	r6, [r3], #-1381
    2b54:	75672f39 	strvcb	r2, [r7, #-3897]!
    2b58:	6974736d 	ldmvsdb	r4!, {r0, r2, r3, r5, r6, r8, r9, ip, sp, lr}^
    2b5c:	67682f78 	undefined
    2b60:	6d75672f 	ldcvsl	7, cr6, [r5, #-188]!
    2b64:	78697473 	stmvcda	r9!, {r0, r1, r4, r5, r6, sl, ip, sp, lr}^
    2b68:	6975622d 	ldmvsdb	r5!, {r0, r2, r3, r5, r9, sp, lr}^
    2b6c:	6f72646c 	svcvs	0x0072646c
    2b70:	632e746f 	teqvs	lr, #1862270976	; 0x6f000000
    2b74:	73736f72 	cmnvc	r3, #456	; 0x1c8
    2b78:	6f6f742f 	svcvs	0x006f742f
    2b7c:	6168636c 	cmnvs	r8, ip, ror #6
    2b80:	625f6e69 	subvss	r6, pc, #1680	; 0x690
    2b84:	646c6975 	strvsbt	r6, [ip], #-2421
    2b88:	6d72615f 	ldfvse	f6, [r2, #-380]!
    2b8c:	666f6e5f 	undefined
    2b90:	672f7570 	undefined
    2b94:	342d6363 	strcct	r6, [sp], #-867
    2b98:	312e312e 	teqcc	lr, lr, lsr #2
    2b9c:	6363672f 	cmnvs	r3, #12320768	; 0xbc0000
    2ba0:	6e6f632f 	cdpvs	3, 6, cr6, cr15, cr15, {1}
    2ba4:	2f676966 	svccs	0x00676966
    2ba8:	2f6d7261 	svccs	0x006d7261
    2bac:	3162696c 	cmncc	r2, ip, ror #18
    2bb0:	636e7566 	cmnvs	lr, #427819008	; 0x19800000
    2bb4:	73612e73 	cmnvc	r1, #1840	; 0x730
    2bb8:	612f006d 	teqvs	pc, sp, rrx
    2bbc:	652f7366 	strvs	r7, [pc, #-870]!	; 285e <_start-0xa2ffd7a2>
    2bc0:	632e6563 	teqvs	lr, #415236096	; 0x18c00000
    2bc4:	652e756d 	strvs	r7, [lr, #-1389]!
    2bc8:	632f7564 	teqvs	pc, #419430400	; 0x19000000
    2bcc:	7373616c 	cmnvc	r3, #27	; 0x1b
    2bd0:	3365652f 	cmncc	r5, #197132288	; 0xbc00000
    2bd4:	672f3934 	undefined
    2bd8:	74736d75 	ldrvcbt	r6, [r3], #-3445
    2bdc:	682f7869 	stmvsda	pc!, {r0, r3, r5, r6, fp, ip, sp, lr}
    2be0:	75672f67 	strvcb	r2, [r7, #-3943]!
    2be4:	6974736d 	ldmvsdb	r4!, {r0, r2, r3, r5, r6, r8, r9, ip, sp, lr}^
    2be8:	75622d78 	strvcb	r2, [r2, #-3448]!
    2bec:	72646c69 	rsbvc	r6, r4, #26880	; 0x6900
    2bf0:	2e746f6f 	cdpcs	15, 7, cr6, cr4, cr15, {3}
    2bf4:	736f7263 	cmnvc	pc, #805306374	; 0x30000006
    2bf8:	6f742f73 	svcvs	0x00742f73
    2bfc:	68636c6f 	stmvsda	r3!, {r0, r1, r2, r3, r5, r6, sl, fp, sp, lr}^
    2c00:	5f6e6961 	svcpl	0x006e6961
    2c04:	6c697562 	cfstr64vs	mvdx7, [r9], #-392
    2c08:	72615f64 	rsbvc	r5, r1, #400	; 0x190
    2c0c:	6f6e5f6d 	svcvs	0x006e5f6d
    2c10:	2f757066 	svccs	0x00757066
    2c14:	2d636367 	stccsl	3, cr6, [r3, #-412]!
    2c18:	2e312e34 	mrccs	14, 1, r2, cr1, cr4, {1}
    2c1c:	69662d31 	stmvsdb	r6!, {r0, r4, r5, r8, sl, fp, sp}^
    2c20:	2f6c616e 	svccs	0x006c616e
    2c24:	00636367 	rsbeq	r6, r3, r7, ror #6
    2c28:	20554e47 	subcss	r4, r5, r7, asr #28
    2c2c:	32205341 	eorcc	r5, r0, #67108865	; 0x4000001
    2c30:	2e37312e 	rsfcssp	f3, f7, #0.5
    2c34:	302e3035 	eorcc	r3, lr, r5, lsr r0
    2c38:	0100362e 	tsteq	r0, lr, lsr #12
    2c3c:	00011880 	andeq	r1, r1, r0, lsl #17
    2c40:	50000200 	andpl	r0, r0, r0, lsl #4
    2c44:	04000014 	streq	r0, [r0], #-20
    2c48:	001bec01 	andeqs	lr, fp, r1, lsl #24
    2c4c:	00152000 	andeqs	r2, r5, r0
    2c50:	001530a3 	andeqs	r3, r5, r3, lsr #1
    2c54:	66612fa3 	strvsbt	r2, [r1], -r3, lsr #31
    2c58:	63652f73 	cmnvs	r5, #460	; 0x1cc
    2c5c:	6d632e65 	stcvsl	14, cr2, [r3, #-404]!
    2c60:	64652e75 	strvsbt	r2, [r5], #-3701
    2c64:	6c632f75 	stcvsl	15, cr2, [r3], #-468
    2c68:	2f737361 	svccs	0x00737361
    2c6c:	34336565 	ldrcct	r6, [r3], #-1381
    2c70:	75672f39 	strvcb	r2, [r7, #-3897]!
    2c74:	6974736d 	ldmvsdb	r4!, {r0, r2, r3, r5, r6, r8, r9, ip, sp, lr}^
    2c78:	67682f78 	undefined
    2c7c:	6d75672f 	ldcvsl	7, cr6, [r5, #-188]!
    2c80:	78697473 	stmvcda	r9!, {r0, r1, r4, r5, r6, sl, ip, sp, lr}^
    2c84:	6975622d 	ldmvsdb	r5!, {r0, r2, r3, r5, r9, sp, lr}^
    2c88:	6f72646c 	svcvs	0x0072646c
    2c8c:	632e746f 	teqvs	lr, #1862270976	; 0x6f000000
    2c90:	73736f72 	cmnvc	r3, #456	; 0x1c8
    2c94:	6f6f742f 	svcvs	0x006f742f
    2c98:	6168636c 	cmnvs	r8, ip, ror #6
    2c9c:	625f6e69 	subvss	r6, pc, #1680	; 0x690
    2ca0:	646c6975 	strvsbt	r6, [ip], #-2421
    2ca4:	6d72615f 	ldfvse	f6, [r2, #-380]!
    2ca8:	666f6e5f 	undefined
    2cac:	672f7570 	undefined
    2cb0:	342d6363 	strcct	r6, [sp], #-867
    2cb4:	312e312e 	teqcc	lr, lr, lsr #2
    2cb8:	6363672f 	cmnvs	r3, #12320768	; 0xbc0000
    2cbc:	6e6f632f 	cdpvs	3, 6, cr6, cr15, cr15, {1}
    2cc0:	2f676966 	svccs	0x00676966
    2cc4:	2f6d7261 	svccs	0x006d7261
    2cc8:	3162696c 	cmncc	r2, ip, ror #18
    2ccc:	636e7566 	cmnvs	lr, #427819008	; 0x19800000
    2cd0:	73612e73 	cmnvc	r1, #1840	; 0x730
    2cd4:	612f006d 	teqvs	pc, sp, rrx
    2cd8:	652f7366 	strvs	r7, [pc, #-870]!	; 297a <_start-0xa2ffd686>
    2cdc:	632e6563 	teqvs	lr, #415236096	; 0x18c00000
    2ce0:	652e756d 	strvs	r7, [lr, #-1389]!
    2ce4:	632f7564 	teqvs	pc, #419430400	; 0x19000000
    2ce8:	7373616c 	cmnvc	r3, #27	; 0x1b
    2cec:	3365652f 	cmncc	r5, #197132288	; 0xbc00000
    2cf0:	672f3934 	undefined
    2cf4:	74736d75 	ldrvcbt	r6, [r3], #-3445
    2cf8:	682f7869 	stmvsda	pc!, {r0, r3, r5, r6, fp, ip, sp, lr}
    2cfc:	75672f67 	strvcb	r2, [r7, #-3943]!
    2d00:	6974736d 	ldmvsdb	r4!, {r0, r2, r3, r5, r6, r8, r9, ip, sp, lr}^
    2d04:	75622d78 	strvcb	r2, [r2, #-3448]!
    2d08:	72646c69 	rsbvc	r6, r4, #26880	; 0x6900
    2d0c:	2e746f6f 	cdpcs	15, 7, cr6, cr4, cr15, {3}
    2d10:	736f7263 	cmnvc	pc, #805306374	; 0x30000006
    2d14:	6f742f73 	svcvs	0x00742f73
    2d18:	68636c6f 	stmvsda	r3!, {r0, r1, r2, r3, r5, r6, sl, fp, sp, lr}^
    2d1c:	5f6e6961 	svcpl	0x006e6961
    2d20:	6c697562 	cfstr64vs	mvdx7, [r9], #-392
    2d24:	72615f64 	rsbvc	r5, r1, #400	; 0x190
    2d28:	6f6e5f6d 	svcvs	0x006e5f6d
    2d2c:	2f757066 	svccs	0x00757066
    2d30:	2d636367 	stccsl	3, cr6, [r3, #-412]!
    2d34:	2e312e34 	mrccs	14, 1, r2, cr1, cr4, {1}
    2d38:	69662d31 	stmvsdb	r6!, {r0, r4, r5, r8, sl, fp, sp}^
    2d3c:	2f6c616e 	svccs	0x006c616e
    2d40:	00636367 	rsbeq	r6, r3, r7, ror #6
    2d44:	20554e47 	subcss	r4, r5, r7, asr #28
    2d48:	32205341 	eorcc	r5, r0, #67108865	; 0x4000001
    2d4c:	2e37312e 	rsfcssp	f3, f7, #0.5
    2d50:	302e3035 	eorcc	r3, lr, r5, lsr r0
    2d54:	0100362e 	tsteq	r0, lr, lsr #12
    2d58:	Address 0x00002d58 is out of bounds.

Disassembly of section .debug_abbrev:

00000000 <.debug_abbrev>:
       0:	10011101 	andne	r1, r1, r1, lsl #2
       4:	11011206 	tstne	r1, r6, lsl #4
       8:	130e2501 	movwne	r2, #58625	; 0xe501
       c:	000e030b 	andeq	r0, lr, fp, lsl #6
      10:	00240200 	eoreq	r0, r4, r0, lsl #4
      14:	0b0b0e03 	bleq	2c3828 <_start-0xa2d3c7d8>
      18:	00000b3e 	andeq	r0, r0, lr, lsr fp
      1c:	03002403 	movweq	r2, #1027	; 0x403
      20:	3e0b0b08 	fmacdcc	d0, d11, d8
      24:	0400000b 	streq	r0, [r0], #-11
      28:	0e030016 	mcreq	0, 0, r0, cr3, cr6, {0}
      2c:	0b3b0b3a 	bleq	ec2d1c <_start-0xa213d2e4>
      30:	00001349 	andeq	r1, r0, r9, asr #6
      34:	0b000f05 	bleq	3c50 <_start-0xa2ffc3b0>
      38:	0600000b 	streq	r0, [r0], -fp
      3c:	1301012e 	movwne	r0, #4398	; 0x112e
      40:	0e030c3f 	mcreq	12, 0, r0, cr3, cr15, {1}
      44:	0b3b0b3a 	bleq	ec2d34 <_start-0xa213d2cc>
      48:	0b200c27 	bleq	8030ec <_start-0xa27fcf14>
      4c:	34070000 	strcc	r0, [r7]
      50:	3a0e0300 	bcc	380c58 <_start-0xa2c7f3a8>
      54:	490b3b0b 	stmmidb	fp, {r0, r1, r3, r8, r9, fp, ip, sp}
      58:	08000013 	stmeqda	r0, {r0, r1, r4}
      5c:	1301012e 	movwne	r0, #4398	; 0x112e
      60:	0e030c3f 	mcreq	12, 0, r0, cr3, cr15, {1}
      64:	0b3b0b3a 	bleq	ec2d54 <_start-0xa213d2ac>
      68:	01110c27 	tsteq	r1, r7, lsr #24
      6c:	06400112 	undefined
      70:	05090000 	streq	r0, [r9]
      74:	3a080300 	bcc	200c7c <_start-0xa2dff384>
      78:	490b3b0b 	stmmidb	fp, {r0, r1, r3, r8, r9, fp, ip, sp}
      7c:	000a0213 	andeq	r0, sl, r3, lsl r2
      80:	00180a00 	andeqs	r0, r8, r0, lsl #20
      84:	340b0000 	strcc	r0, [fp]
      88:	3a0e0300 	bcc	380c90 <_start-0xa2c7f370>
      8c:	490b3b0b 	stmmidb	fp, {r0, r1, r3, r8, r9, fp, ip, sp}
      90:	000a0213 	andeq	r0, sl, r3, lsl r2
      94:	011d0c00 	tsteq	sp, r0, lsl #24
      98:	01111331 	tsteq	r1, r1, lsr r3
      9c:	0b580112 	bleq	16004ec <_start-0xa19ffb14>
      a0:	00000b59 	andeq	r0, r0, r9, asr fp
      a4:	11010b0d 	tstne	r1, sp, lsl #22
      a8:	00011201 	andeq	r1, r1, r1, lsl #4
      ac:	00340e00 	eoreqs	r0, r4, r0, lsl #28
      b0:	06021331 	undefined
      b4:	0f0f0000 	svceq	0x000f0000
      b8:	490b0b00 	stmmidb	fp, {r8, r9, fp}
      bc:	10000013 	andne	r0, r0, r3, lsl r0
      c0:	13490026 	movtne	r0, #36902	; 0x9026
      c4:	01000000 	tsteq	r0, r0
      c8:	06100111 	undefined
      cc:	01110112 	tsteq	r1, r2, lsl r1
      d0:	0b130e25 	bleq	4c396c <_start-0xa2b3c694>
      d4:	00000e03 	andeq	r0, r0, r3, lsl #28
      d8:	03001602 	movweq	r1, #1538	; 0x602
      dc:	3b0b3a0e 	blcc	2ce91c <_start-0xa2d316e4>
      e0:	0013490b 	andeqs	r4, r3, fp, lsl #18
      e4:	00240300 	eoreq	r0, r4, r0, lsl #6
      e8:	0b0b0e03 	bleq	2c38fc <_start-0xa2d3c704>
      ec:	00000b3e 	andeq	r0, r0, lr, lsr fp
      f0:	03002404 	movweq	r2, #1028	; 0x404
      f4:	3e0b0b08 	fmacdcc	d0, d11, d8
      f8:	0500000b 	streq	r0, [r0, #-11]
      fc:	0b0b000f 	bleq	2c0140 <_start-0xa2d3fec0>
     100:	00001349 	andeq	r1, r0, r9, asr #6
     104:	01011506 	tsteq	r1, r6, lsl #10
     108:	000c2713 	andeq	r2, ip, r3, lsl r7
     10c:	00050700 	andeq	r0, r5, r0, lsl #14
     110:	00001349 	andeq	r1, r0, r9, asr #6
     114:	0b000f08 	bleq	3d3c <_start-0xa2ffc2c4>
     118:	0900000b 	stmeqdb	r0, {r0, r1, r3}
     11c:	13010113 	movwne	r0, #4371	; 0x1113
     120:	0b0b0e03 	bleq	2c3934 <_start-0xa2d3c6cc>
     124:	0b3b0b3a 	bleq	ec2e14 <_start-0xa213d1ec>
     128:	0d0a0000 	stceq	0, cr0, [sl]
     12c:	3a0e0300 	bcc	380d34 <_start-0xa2c7f2cc>
     130:	490b3b0b 	stmmidb	fp, {r0, r1, r3, r8, r9, fp, ip, sp}
     134:	000a3813 	andeq	r3, sl, r3, lsl r8
     138:	000d0b00 	andeq	r0, sp, r0, lsl #22
     13c:	0b3a0803 	bleq	e82150 <_start-0xa217deb0>
     140:	13490b3b 	movtne	r0, #39739	; 0x9b3b
     144:	00000a38 	andeq	r0, r0, r8, lsr sl
     148:	01012e0c 	tsteq	r1, ip, lsl #28
     14c:	030c3f13 	movweq	r3, #53011	; 0xcf13
     150:	3b0b3a0e 	blcc	2ce990 <_start-0xa2d31670>
     154:	490c270b 	stmmidb	ip, {r0, r1, r3, r8, r9, sl, sp}
     158:	12011113 	andne	r1, r1, #-1073741820	; 0xc0000004
     15c:	00064001 	andeq	r4, r6, r1
     160:	00050d00 	andeq	r0, r5, r0, lsl #26
     164:	0b3a0e03 	bleq	e83978 <_start-0xa217c688>
     168:	13490b3b 	movtne	r0, #39739	; 0x9b3b
     16c:	00000602 	andeq	r0, r0, r2, lsl #12
     170:	0300050e 	movweq	r0, #1294	; 0x50e
     174:	3b0b3a0e 	blcc	2ce9b4 <_start-0xa2d3164c>
     178:	0213490b 	andeqs	r4, r3, #180224	; 0x2c000
     17c:	0f00000a 	svceq	0x0000000a
     180:	0e030034 	mcreq	0, 0, r0, cr3, cr4, {1}
     184:	0b3b0b3a 	bleq	ec2e74 <_start-0xa213d18c>
     188:	00001349 	andeq	r1, r0, r9, asr #6
     18c:	03003410 	movweq	r3, #1040	; 0x410
     190:	3b0b3a0e 	blcc	2ce9d0 <_start-0xa2d31630>
     194:	0213490b 	andeqs	r4, r3, #180224	; 0x2c000
     198:	11000006 	tstne	r0, r6
     19c:	1301012e 	movwne	r0, #4398	; 0x112e
     1a0:	0e030c3f 	mcreq	12, 0, r0, cr3, cr15, {1}
     1a4:	0b3b0b3a 	bleq	ec2e94 <_start-0xa213d16c>
     1a8:	0b200c27 	bleq	80324c <_start-0xa27fcdb4>
     1ac:	05120000 	ldreq	r0, [r2]
     1b0:	3a0e0300 	bcc	380db8 <_start-0xa2c7f248>
     1b4:	490b3b0b 	stmmidb	fp, {r0, r1, r3, r8, r9, fp, ip, sp}
     1b8:	13000013 	movwne	r0, #19	; 0x13
     1bc:	0e030034 	mcreq	0, 0, r0, cr3, cr4, {1}
     1c0:	0b3b0b3a 	bleq	ec2eb0 <_start-0xa213d150>
     1c4:	0a021349 	beq	84ef0 <_start-0xa2f7b110>
     1c8:	1d140000 	ldcne	0, cr0, [r4]
     1cc:	31130101 	tstcc	r3, r1, lsl #2
     1d0:	12011113 	andne	r1, r1, #-1073741820	; 0xc0000004
     1d4:	590b5801 	stmpldb	fp, {r0, fp, ip, lr}
     1d8:	1500000b 	strne	r0, [r0, #-11]
     1dc:	13310005 	teqne	r1, #5	; 0x5
     1e0:	1d160000 	ldcne	0, cr0, [r6]
     1e4:	11133101 	tstne	r3, r1, lsl #2
     1e8:	58011201 	stmplda	r1, {r0, r9, ip}
     1ec:	000b590b 	andeq	r5, fp, fp, lsl #18
     1f0:	010b1700 	tsteq	fp, r0, lsl #14
     1f4:	01120111 	tsteq	r2, r1, lsl r1
     1f8:	34180000 	ldrcc	r0, [r8]
     1fc:	02133100 	andeqs	r3, r3, #0	; 0x0
     200:	19000006 	stmnedb	r0, {r1, r2}
     204:	0e030034 	mcreq	0, 0, r0, cr3, cr4, {1}
     208:	0b3b0b3a 	bleq	ec2ef8 <_start-0xa213d108>
     20c:	0c3f1349 	ldceq	3, cr1, [pc], #-292
     210:	00000a02 	andeq	r0, r0, r2, lsl #20
     214:	01110100 	tsteq	r1, r0, lsl #2
     218:	01120610 	tsteq	r2, r0, lsl r6
     21c:	0e250111 	mcreq	1, 1, r0, cr5, cr1, {0}
     220:	0e030b13 	vmoveq.32	d3[0], r0
     224:	16020000 	strne	r0, [r2], -r0
     228:	3a0e0300 	bcc	380e30 <_start-0xa2c7f1d0>
     22c:	490b3b0b 	stmmidb	fp, {r0, r1, r3, r8, r9, fp, ip, sp}
     230:	03000013 	movweq	r0, #19	; 0x13
     234:	0e030024 	cdpeq	0, 0, cr0, cr3, cr4, {1}
     238:	0b3e0b0b 	bleq	f82e6c <_start-0xa207d194>
     23c:	24040000 	strcs	r0, [r4]
     240:	0b080300 	bleq	200e48 <_start-0xa2dff1b8>
     244:	000b3e0b 	andeq	r3, fp, fp, lsl #28
     248:	012e0500 	teqeq	lr, r0, lsl #10
     24c:	0c3f1301 	ldceq	3, cr1, [pc], #-4
     250:	0b3a0e03 	bleq	e83a64 <_start-0xa217c59c>
     254:	0c270b3b 	stceq	11, cr0, [r7], #-236
     258:	01111349 	tsteq	r1, r9, asr #6
     25c:	0a400112 	beq	10006ac <_start-0xa1fff954>
     260:	05060000 	streq	r0, [r6]
     264:	3a080300 	bcc	200e6c <_start-0xa2dff194>
     268:	490b3b0b 	stmmidb	fp, {r0, r1, r3, r8, r9, fp, ip, sp}
     26c:	00060213 	andeq	r0, r6, r3, lsl r2
     270:	00050700 	andeq	r0, r5, r0, lsl #14
     274:	0b3a0e03 	bleq	e83a88 <_start-0xa217c578>
     278:	13490b3b 	movtne	r0, #39739	; 0x9b3b
     27c:	00000a02 	andeq	r0, r0, r2, lsl #20
     280:	03003408 	movweq	r3, #1032	; 0x408
     284:	3b0b3a08 	blcc	2ceaac <_start-0xa2d31554>
     288:	0213490b 	andeqs	r4, r3, #180224	; 0x2c000
     28c:	0900000a 	stmeqdb	r0, {r1, r3}
     290:	0e030034 	mcreq	0, 0, r0, cr3, cr4, {1}
     294:	0b3b0b3a 	bleq	ec2f84 <_start-0xa213d07c>
     298:	0a021349 	beq	84fc4 <_start-0xa2f7b03c>
     29c:	0f0a0000 	svceq	0x000a0000
     2a0:	490b0b00 	stmmidb	fp, {r8, r9, fp}
     2a4:	0b000013 	bleq	2f8 <_start-0xa2fffd08>
     2a8:	0c3f012e 	ldfeqs	f0, [pc], #-184
     2ac:	0b3a0e03 	bleq	e83ac0 <_start-0xa217c540>
     2b0:	0c270b3b 	stceq	11, cr0, [r7], #-236
     2b4:	01111349 	tsteq	r1, r9, asr #6
     2b8:	0a400112 	beq	1000708 <_start-0xa1fff8f8>
     2bc:	01000000 	tsteq	r0, r0
     2c0:	06100111 	undefined
     2c4:	01110112 	tsteq	r1, r2, lsl r1
     2c8:	0b130e25 	bleq	4c3b64 <_start-0xa2b3c49c>
     2cc:	00000e03 	andeq	r0, r0, r3, lsl #28
     2d0:	03001602 	movweq	r1, #1538	; 0x602
     2d4:	3b0b3a0e 	blcc	2ceb14 <_start-0xa2d314ec>
     2d8:	0013490b 	andeqs	r4, r3, fp, lsl #18
     2dc:	00240300 	eoreq	r0, r4, r0, lsl #6
     2e0:	0b0b0e03 	bleq	2c3af4 <_start-0xa2d3c50c>
     2e4:	00000b3e 	andeq	r0, r0, lr, lsr fp
     2e8:	03002404 	movweq	r2, #1028	; 0x404
     2ec:	3e0b0b08 	fmacdcc	d0, d11, d8
     2f0:	0500000b 	streq	r0, [r0, #-11]
     2f4:	1301012e 	movwne	r0, #4398	; 0x112e
     2f8:	0e030c3f 	mcreq	12, 0, r0, cr3, cr15, {1}
     2fc:	0b3b0b3a 	bleq	ec2fec <_start-0xa213d014>
     300:	13490c27 	movtne	r0, #39975	; 0x9c27
     304:	01120111 	tsteq	r2, r1, lsl r1
     308:	00000a40 	andeq	r0, r0, r0, asr #20
     30c:	03000506 	movweq	r0, #1286	; 0x506
     310:	3b0b3a0e 	blcc	2ceb50 <_start-0xa2d314b0>
     314:	0213490b 	andeqs	r4, r3, #180224	; 0x2c000
     318:	07000006 	streq	r0, [r0, -r6]
     31c:	0e030005 	cdpeq	0, 0, cr0, cr3, cr5, {0}
     320:	0b3b0b3a 	bleq	ec3010 <_start-0xa213cff0>
     324:	0a021349 	beq	85050 <_start-0xa2f7afb0>
     328:	34080000 	strcc	r0, [r8]
     32c:	3a0e0300 	bcc	380f34 <_start-0xa2c7f0cc>
     330:	490b3b0b 	stmmidb	fp, {r0, r1, r3, r8, r9, fp, ip, sp}
     334:	09000013 	stmeqdb	r0, {r0, r1, r4}
     338:	0e030034 	mcreq	0, 0, r0, cr3, cr4, {1}
     33c:	0b3b0b3a 	bleq	ec302c <_start-0xa213cfd4>
     340:	0a021349 	beq	8506c <_start-0xa2f7af94>
     344:	0f0a0000 	svceq	0x000a0000
     348:	490b0b00 	stmmidb	fp, {r8, r9, fp}
     34c:	0b000013 	bleq	3a0 <_start-0xa2fffc60>
     350:	00000026 	andeq	r0, r0, r6, lsr #32
     354:	01110100 	tsteq	r1, r0, lsl #2
     358:	01120610 	tsteq	r2, r0, lsl r6
     35c:	0e250111 	mcreq	1, 1, r0, cr5, cr1, {0}
     360:	0e030b13 	vmoveq.32	d3[0], r0
     364:	24020000 	strcs	r0, [r2]
     368:	0b0e0300 	bleq	380f70 <_start-0xa2c7f090>
     36c:	000b3e0b 	andeq	r3, fp, fp, lsl #28
     370:	00240300 	eoreq	r0, r4, r0, lsl #6
     374:	0b0b0803 	bleq	2c2388 <_start-0xa2d3dc78>
     378:	00000b3e 	andeq	r0, r0, lr, lsr fp
     37c:	3f002e04 	svccc	0x00002e04
     380:	3a0e030c 	bcc	380fb8 <_start-0xa2c7f048>
     384:	270b3b0b 	strcs	r3, [fp, -fp, lsl #22]
     388:	1201110c 	andne	r1, r1, #3	; 0x3
     38c:	00064001 	andeq	r4, r6, r1
     390:	11010000 	tstne	r1, r0
     394:	12061001 	andne	r1, r6, #1	; 0x1
     398:	25011101 	strcs	r1, [r1, #-257]
     39c:	030b130e 	movweq	r1, #45838	; 0xb30e
     3a0:	0200000e 	andeq	r0, r0, #14	; 0xe
     3a4:	1301012e 	movwne	r0, #4398	; 0x112e
     3a8:	0e030c3f 	mcreq	12, 0, r0, cr3, cr15, {1}
     3ac:	0b3b0b3a 	bleq	ec309c <_start-0xa213cf64>
     3b0:	13490c27 	movtne	r0, #39975	; 0x9c27
     3b4:	00000b20 	andeq	r0, r0, r0, lsr #22
     3b8:	03000503 	movweq	r0, #1283	; 0x503
     3bc:	3b0b3a08 	blcc	2cebe4 <_start-0xa2d3141c>
     3c0:	0013490b 	andeqs	r4, r3, fp, lsl #18
     3c4:	00240400 	eoreq	r0, r4, r0, lsl #8
     3c8:	0b0b0803 	bleq	2c23dc <_start-0xa2d3dc24>
     3cc:	00000b3e 	andeq	r0, r0, lr, lsr fp
     3d0:	01012e05 	tsteq	r1, r5, lsl #28
     3d4:	030c3f13 	movweq	r3, #53011	; 0xcf13
     3d8:	3b0b3a0e 	blcc	2cec18 <_start-0xa2d313e8>
     3dc:	490c270b 	stmmidb	ip, {r0, r1, r3, r8, r9, sl, sp}
     3e0:	12011113 	andne	r1, r1, #-1073741820	; 0xc0000004
     3e4:	000a4001 	andeq	r4, sl, r1
     3e8:	00050600 	andeq	r0, r5, r0, lsl #12
     3ec:	0b3a0803 	bleq	e82400 <_start-0xa217dc00>
     3f0:	13490b3b 	movtne	r0, #39739	; 0x9b3b
     3f4:	00000602 	andeq	r0, r0, r2, lsl #12
     3f8:	01012e07 	tsteq	r1, r7, lsl #28
     3fc:	11133113 	tstne	r3, r3, lsl r1
     400:	40011201 	andmi	r1, r1, r1, lsl #4
     404:	0800000a 	stmeqda	r0, {r1, r3}
     408:	13310005 	teqne	r1, #5	; 0x5
     40c:	00000602 	andeq	r0, r0, r2, lsl #12
     410:	01012e09 	tsteq	r1, r9, lsl #28
     414:	030c3f13 	movweq	r3, #53011	; 0xcf13
     418:	3b0b3a0e 	blcc	2cec58 <_start-0xa2d313a8>
     41c:	490c270b 	stmmidb	ip, {r0, r1, r3, r8, r9, sl, sp}
     420:	12011113 	andne	r1, r1, #-1073741820	; 0xc0000004
     424:	00064001 	andeq	r4, r6, r1
     428:	012e0a00 	teqeq	lr, r0, lsl #20
     42c:	0e030c3f 	mcreq	12, 0, r0, cr3, cr15, {1}
     430:	0b3b0b3a 	bleq	ec3120 <_start-0xa213cee0>
     434:	13490c27 	movtne	r0, #39975	; 0x9c27
     438:	01120111 	tsteq	r2, r1, lsl r1
     43c:	00000a40 	andeq	r0, r0, r0, asr #20
     440:	01110100 	tsteq	r1, r0, lsl #2
     444:	01120610 	tsteq	r2, r0, lsl r6
     448:	0e250111 	mcreq	1, 1, r0, cr5, cr1, {0}
     44c:	0e030b13 	vmoveq.32	d3[0], r0
     450:	16020000 	strne	r0, [r2], -r0
     454:	3a0e0300 	bcc	38105c <_start-0xa2c7efa4>
     458:	490b3b0b 	stmmidb	fp, {r0, r1, r3, r8, r9, fp, ip, sp}
     45c:	03000013 	movweq	r0, #19	; 0x13
     460:	0e030024 	cdpeq	0, 0, cr0, cr3, cr4, {1}
     464:	0b3e0b0b 	bleq	f83098 <_start-0xa207cf68>
     468:	24040000 	strcs	r0, [r4]
     46c:	0b080300 	bleq	201074 <_start-0xa2dfef8c>
     470:	000b3e0b 	andeq	r3, fp, fp, lsl #28
     474:	000f0500 	andeq	r0, pc, r0, lsl #10
     478:	00000b0b 	andeq	r0, r0, fp, lsl #22
     47c:	01012e06 	tsteq	r1, r6, lsl #28
     480:	030c3f13 	movweq	r3, #53011	; 0xcf13
     484:	3b0b3a0e 	blcc	2cecc4 <_start-0xa2d3133c>
     488:	490c270b 	stmmidb	ip, {r0, r1, r3, r8, r9, sl, sp}
     48c:	000b2013 	andeq	r2, fp, r3, lsl r0
     490:	00050700 	andeq	r0, r5, r0, lsl #14
     494:	0b3a0803 	bleq	e824a8 <_start-0xa217db58>
     498:	13490b3b 	movtne	r0, #39739	; 0x9b3b
     49c:	2e080000 	cdpcs	0, 0, cr0, cr8, cr0, {0}
     4a0:	3f130101 	svccc	0x00130101
     4a4:	3a0e030c 	bcc	3810dc <_start-0xa2c7ef24>
     4a8:	270b3b0b 	strcs	r3, [fp, -fp, lsl #22]
     4ac:	1201110c 	andne	r1, r1, #3	; 0x3
     4b0:	00064001 	andeq	r4, r6, r1
     4b4:	00050900 	andeq	r0, r5, r0, lsl #18
     4b8:	0b3a0803 	bleq	e824cc <_start-0xa217db34>
     4bc:	13490b3b 	movtne	r0, #39739	; 0x9b3b
     4c0:	00000602 	andeq	r0, r0, r2, lsl #12
     4c4:	0300340a 	movweq	r3, #1034	; 0x40a
     4c8:	3b0b3a08 	blcc	2cecf0 <_start-0xa2d31310>
     4cc:	0213490b 	andeqs	r4, r3, #180224	; 0x2c000
     4d0:	0b00000a 	bleq	500 <_start-0xa2fffb00>
     4d4:	08030034 	stmeqda	r3, {r2, r4, r5}
     4d8:	0b3b0b3a 	bleq	ec31c8 <_start-0xa213ce38>
     4dc:	06021349 	streq	r1, [r2], -r9, asr #6
     4e0:	340c0000 	strcc	r0, [ip]
     4e4:	3a080300 	bcc	2010ec <_start-0xa2dfef14>
     4e8:	490b3b0b 	stmmidb	fp, {r0, r1, r3, r8, r9, fp, ip, sp}
     4ec:	0d000013 	stceq	0, cr0, [r0, #-76]
     4f0:	0b0b000f 	bleq	2c0534 <_start-0xa2d3facc>
     4f4:	00001349 	andeq	r1, r0, r9, asr #6
     4f8:	01110100 	tsteq	r1, r0, lsl #2
     4fc:	01120610 	tsteq	r2, r0, lsl r6
     500:	0e250111 	mcreq	1, 1, r0, cr5, cr1, {0}
     504:	0e030b13 	vmoveq.32	d3[0], r0
     508:	24020000 	strcs	r0, [r2]
     50c:	0b0e0300 	bleq	381114 <_start-0xa2c7eeec>
     510:	000b3e0b 	andeq	r3, fp, fp, lsl #28
     514:	00240300 	eoreq	r0, r4, r0, lsl #6
     518:	0b0b0803 	bleq	2c252c <_start-0xa2d3dad4>
     51c:	00000b3e 	andeq	r0, r0, lr, lsr fp
     520:	03001604 	movweq	r1, #1540	; 0x604
     524:	3b0b3a0e 	blcc	2ced64 <_start-0xa2d3129c>
     528:	0013490b 	andeqs	r4, r3, fp, lsl #18
     52c:	000f0500 	andeq	r0, pc, r0, lsl #10
     530:	00000b0b 	andeq	r0, r0, fp, lsl #22
     534:	01011306 	tsteq	r1, r6, lsl #6
     538:	0b0e0313 	bleq	38118c <_start-0xa2c7ee74>
     53c:	3b0b3a0b 	blcc	2ced70 <_start-0xa2d31290>
     540:	0700000b 	streq	r0, [r0, -fp]
     544:	0803000d 	stmeqda	r3, {r0, r2, r3}
     548:	0b3b0b3a 	bleq	ec3238 <_start-0xa213cdc8>
     54c:	0a381349 	beq	e05278 <_start-0xa21fad88>
     550:	35080000 	strcc	r0, [r8]
     554:	00134900 	andeqs	r4, r3, r0, lsl #18
     558:	01130900 	tsteq	r3, r0, lsl #18
     55c:	08031301 	stmeqda	r3, {r0, r8, r9, ip}
     560:	0b3a050b 	bleq	e81994 <_start-0xa217e66c>
     564:	00000b3b 	andeq	r0, r0, fp, lsr fp
     568:	03000d0a 	movweq	r0, #3338	; 0xd0a
     56c:	3b0b3a0e 	blcc	2cedac <_start-0xa2d31254>
     570:	3813490b 	ldmccda	r3, {r0, r1, r3, r8, fp, lr}
     574:	0b00000a 	bleq	5a4 <_start-0xa2fffa5c>
     578:	0b0b000f 	bleq	2c05bc <_start-0xa2d3fa44>
     57c:	00001349 	andeq	r1, r0, r9, asr #6
     580:	0101010c 	tsteq	r1, ip, lsl #2
     584:	00134913 	andeqs	r4, r3, r3, lsl r9
     588:	00210d00 	eoreq	r0, r1, r0, lsl #26
     58c:	052f1349 	streq	r1, [pc, #-841]!	; 24b <_start-0xa2fffdb5>
     590:	210e0000 	tstcs	lr, r0
     594:	00134900 	andeqs	r4, r3, r0, lsl #18
     598:	01130f00 	tsteq	r3, r0, lsl #30
     59c:	08031301 	stmeqda	r3, {r0, r8, r9, ip}
     5a0:	0b3a0b0b 	bleq	e831d4 <_start-0xa217ce2c>
     5a4:	00000b3b 	andeq	r0, r0, fp, lsr fp
     5a8:	01012e10 	tsteq	r1, r0, lsl lr
     5ac:	030c3f13 	movweq	r3, #53011	; 0xcf13
     5b0:	3b0b3a0e 	blcc	2cedf0 <_start-0xa2d31210>
     5b4:	110c270b 	tstne	ip, fp, lsl #14
     5b8:	40011201 	andmi	r1, r1, r1, lsl #4
     5bc:	1100000a 	tstne	r0, sl
     5c0:	08030034 	stmeqda	r3, {r2, r4, r5}
     5c4:	0b3b0b3a 	bleq	ec32b4 <_start-0xa213cd4c>
     5c8:	00001349 	andeq	r1, r0, r9, asr #6
     5cc:	01012e12 	tsteq	r1, r2, lsl lr
     5d0:	030c3f13 	movweq	r3, #53011	; 0xcf13
     5d4:	3b0b3a0e 	blcc	2cee14 <_start-0xa2d311ec>
     5d8:	110c270b 	tstne	ip, fp, lsl #14
     5dc:	40011201 	andmi	r1, r1, r1, lsl #4
     5e0:	13000006 	movwne	r0, #6	; 0x6
     5e4:	08030005 	stmeqda	r3, {r0, r2}
     5e8:	0b3b0b3a 	bleq	ec32d8 <_start-0xa213cd28>
     5ec:	06021349 	streq	r1, [r2], -r9, asr #6
     5f0:	34140000 	ldrcc	r0, [r4]
     5f4:	3a0e0300 	bcc	3811fc <_start-0xa2c7ee04>
     5f8:	490b3b0b 	stmmidb	fp, {r0, r1, r3, r8, r9, fp, ip, sp}
     5fc:	000a0213 	andeq	r0, sl, r3, lsl r2
     600:	012e1500 	teqeq	lr, r0, lsl #10
     604:	0c3f1301 	ldceq	3, cr1, [pc], #-4
     608:	0b3a0e03 	bleq	e83e1c <_start-0xa217c1e4>
     60c:	0c270b3b 	stceq	11, cr0, [r7], #-236
     610:	00000b20 	andeq	r0, r0, r0, lsr #22
     614:	03003416 	movweq	r3, #1046	; 0x416
     618:	3b0b3a0e 	blcc	2cee58 <_start-0xa2d311a8>
     61c:	0013490b 	andeqs	r4, r3, fp, lsl #18
     620:	00051700 	andeq	r1, r5, r0, lsl #14
     624:	0b3a0e03 	bleq	e83e38 <_start-0xa217c1c8>
     628:	13490b3b 	movtne	r0, #39739	; 0x9b3b
     62c:	00000602 	andeq	r0, r0, r2, lsl #12
     630:	03003418 	movweq	r3, #1048	; 0x418
     634:	3b0b3a08 	blcc	2cee5c <_start-0xa2d311a4>
     638:	0213490b 	andeqs	r4, r3, #180224	; 0x2c000
     63c:	1900000a 	stmnedb	r0, {r1, r3}
     640:	1301011d 	movwne	r0, #4381	; 0x111d
     644:	01111331 	tsteq	r1, r1, lsr r3
     648:	0b580112 	bleq	1600a98 <_start-0xa19ff568>
     64c:	00000b59 	andeq	r0, r0, r9, asr fp
     650:	11010b1a 	tstne	r1, sl, lsl fp
     654:	00011201 	andeq	r1, r1, r1, lsl #4
     658:	00341b00 	eoreqs	r1, r4, r0, lsl #22
     65c:	06021331 	undefined
     660:	0b1c0000 	bleq	700668 <_start-0xa28ff998>
     664:	11130101 	tstne	r3, r1, lsl #2
     668:	00011201 	andeq	r1, r1, r1, lsl #4
     66c:	011d1d00 	tsteq	sp, r0, lsl #26
     670:	01111331 	tsteq	r1, r1, lsr r3
     674:	0b580112 	bleq	1600ac4 <_start-0xa19ff53c>
     678:	00000b59 	andeq	r0, r0, r9, asr fp
     67c:	4900211e 	stmmidb	r0, {r1, r2, r3, r4, r8, sp}
     680:	000b2f13 	andeq	r2, fp, r3, lsl pc
     684:	00341f00 	eoreqs	r1, r4, r0, lsl #30
     688:	0b3a0e03 	bleq	e83e9c <_start-0xa217c164>
     68c:	13490b3b 	movtne	r0, #39739	; 0x9b3b
     690:	0a020c3f 	beq	83794 <_start-0xa2f7c86c>
     694:	26200000 	strcst	r0, [r0], -r0
     698:	00134900 	andeqs	r4, r3, r0, lsl #18
     69c:	11010000 	tstne	r1, r0
     6a0:	12061001 	andne	r1, r6, #1	; 0x1
     6a4:	25011101 	strcs	r1, [r1, #-257]
     6a8:	030b130e 	movweq	r1, #45838	; 0xb30e
     6ac:	0200000e 	andeq	r0, r0, #14	; 0xe
     6b0:	0e030016 	mcreq	0, 0, r0, cr3, cr6, {0}
     6b4:	0b3b0b3a 	bleq	ec33a4 <_start-0xa213cc5c>
     6b8:	00001349 	andeq	r1, r0, r9, asr #6
     6bc:	03002403 	movweq	r2, #1027	; 0x403
     6c0:	3e0b0b0e 	fmacdcc	d0, d11, d14
     6c4:	0400000b 	streq	r0, [r0], #-11
     6c8:	08030024 	stmeqda	r3, {r2, r5}
     6cc:	0b3e0b0b 	bleq	f83300 <_start-0xa207cd00>
     6d0:	2e050000 	cdpcs	0, 0, cr0, cr5, cr0, {0}
     6d4:	3f130101 	svccc	0x00130101
     6d8:	3a0e030c 	bcc	381310 <_start-0xa2c7ecf0>
     6dc:	270b3b0b 	strcs	r3, [fp, -fp, lsl #22]
     6e0:	1113490c 	tstne	r3, ip, lsl #18
     6e4:	40011201 	andmi	r1, r1, r1, lsl #4
     6e8:	0600000a 	streq	r0, [r0], -sl
     6ec:	0e030005 	cdpeq	0, 0, cr0, cr3, cr5, {0}
     6f0:	0b3b0b3a 	bleq	ec33e0 <_start-0xa213cc20>
     6f4:	06021349 	streq	r1, [r2], -r9, asr #6
     6f8:	2e070000 	cdpcs	0, 0, cr0, cr7, cr0, {0}
     6fc:	3f130101 	svccc	0x00130101
     700:	3a0e030c 	bcc	381338 <_start-0xa2c7ecc8>
     704:	270b3b0b 	strcs	r3, [fp, -fp, lsl #22]
     708:	1201110c 	andne	r1, r1, #3	; 0x3
     70c:	000a4001 	andeq	r4, sl, r1
     710:	00050800 	andeq	r0, r5, r0, lsl #16
     714:	0b3a0e03 	bleq	e83f28 <_start-0xa217c0d8>
     718:	13490b3b 	movtne	r0, #39739	; 0x9b3b
     71c:	00000a02 	andeq	r0, r0, r2, lsl #20
     720:	03003409 	movweq	r3, #1033	; 0x409
     724:	3b0b3a08 	blcc	2cef4c <_start-0xa2d310b4>
     728:	0213490b 	andeqs	r4, r3, #180224	; 0x2c000
     72c:	0a00000a 	beq	75c <_start-0xa2fff8a4>
     730:	0b0b000f 	bleq	2c0774 <_start-0xa2d3f88c>
     734:	00001349 	andeq	r1, r0, r9, asr #6
     738:	4900350b 	stmmidb	r0, {r0, r1, r3, r8, sl, ip, sp}
     73c:	0c000013 	stceq	0, cr0, [r0], {19}
     740:	0c3f012e 	ldfeqs	f0, [pc], #-184
     744:	0b3a0e03 	bleq	e83f58 <_start-0xa217c0a8>
     748:	0c270b3b 	stceq	11, cr0, [r7], #-236
     74c:	01120111 	tsteq	r2, r1, lsl r1
     750:	00000a40 	andeq	r0, r0, r0, asr #20
     754:	01110100 	tsteq	r1, r0, lsl #2
     758:	01120610 	tsteq	r2, r0, lsl r6
     75c:	0e250111 	mcreq	1, 1, r0, cr5, cr1, {0}
     760:	0e030b13 	vmoveq.32	d3[0], r0
     764:	24020000 	strcs	r0, [r2]
     768:	0b0e0300 	bleq	381370 <_start-0xa2c7ec90>
     76c:	000b3e0b 	andeq	r3, fp, fp, lsl #28
     770:	00240300 	eoreq	r0, r4, r0, lsl #6
     774:	0b0b0803 	bleq	2c2788 <_start-0xa2d3d878>
     778:	00000b3e 	andeq	r0, r0, lr, lsr fp
     77c:	03001604 	movweq	r1, #1540	; 0x604
     780:	3b0b3a0e 	blcc	2cefc0 <_start-0xa2d31040>
     784:	0013490b 	andeqs	r4, r3, fp, lsl #18
     788:	012e0500 	teqeq	lr, r0, lsl #10
     78c:	0e030c3f 	mcreq	12, 0, r0, cr3, cr15, {1}
     790:	0b3b0b3a 	bleq	ec3480 <_start-0xa213cb80>
     794:	13490c27 	movtne	r0, #39975	; 0x9c27
     798:	01120111 	tsteq	r2, r1, lsl r1
     79c:	00000a40 	andeq	r0, r0, r0, asr #20
     7a0:	03003406 	movweq	r3, #1030	; 0x406
     7a4:	3b0b3a0e 	blcc	2cefe4 <_start-0xa2d3101c>
     7a8:	0213490b 	andeqs	r4, r3, #180224	; 0x2c000
     7ac:	00000006 	andeq	r0, r0, r6
     7b0:	10011101 	andne	r1, r1, r1, lsl #2
     7b4:	11011206 	tstne	r1, r6, lsl #4
     7b8:	130e2501 	movwne	r2, #58625	; 0xe501
     7bc:	000e030b 	andeq	r0, lr, fp, lsl #6
     7c0:	00240200 	eoreq	r0, r4, r0, lsl #4
     7c4:	0b0b0e03 	bleq	2c3fd8 <_start-0xa2d3c028>
     7c8:	00000b3e 	andeq	r0, r0, lr, lsr fp
     7cc:	03002403 	movweq	r2, #1027	; 0x403
     7d0:	3e0b0b08 	fmacdcc	d0, d11, d8
     7d4:	0400000b 	streq	r0, [r0], #-11
     7d8:	0c3f002e 	ldceq	0, cr0, [pc], #-184
     7dc:	0b3a0e03 	bleq	e83ff0 <_start-0xa217c010>
     7e0:	0c270b3b 	stceq	11, cr0, [r7], #-236
     7e4:	01120111 	tsteq	r2, r1, lsl r1
     7e8:	00000a40 	andeq	r0, r0, r0, asr #20
     7ec:	01110100 	tsteq	r1, r0, lsl #2
     7f0:	01120610 	tsteq	r2, r0, lsl r6
     7f4:	0e250111 	mcreq	1, 1, r0, cr5, cr1, {0}
     7f8:	0e030b13 	vmoveq.32	d3[0], r0
     7fc:	16020000 	strne	r0, [r2], -r0
     800:	3a0e0300 	bcc	381408 <_start-0xa2c7ebf8>
     804:	490b3b0b 	stmmidb	fp, {r0, r1, r3, r8, r9, fp, ip, sp}
     808:	03000013 	movweq	r0, #19	; 0x13
     80c:	0e030024 	cdpeq	0, 0, cr0, cr3, cr4, {1}
     810:	0b3e0b0b 	bleq	f83444 <_start-0xa207cbbc>
     814:	24040000 	strcs	r0, [r4]
     818:	0b080300 	bleq	201420 <_start-0xa2dfebe0>
     81c:	000b3e0b 	andeq	r3, fp, fp, lsl #28
     820:	01150500 	tsteq	r5, r0, lsl #10
     824:	0c271301 	stceq	3, cr1, [r7], #-4
     828:	05060000 	streq	r0, [r6]
     82c:	00134900 	andeqs	r4, r3, r0, lsl #18
     830:	000f0700 	andeq	r0, pc, r0, lsl #14
     834:	00000b0b 	andeq	r0, r0, fp, lsl #22
     838:	0b000f08 	bleq	4460 <_start-0xa2ffbba0>
     83c:	0013490b 	andeqs	r4, r3, fp, lsl #18
     840:	01130900 	tsteq	r3, r0, lsl #18
     844:	0e031301 	cdpeq	3, 0, cr1, cr3, cr1, {0}
     848:	0b3a0b0b 	bleq	e8347c <_start-0xa217cb84>
     84c:	00000b3b 	andeq	r0, r0, fp, lsr fp
     850:	03000d0a 	movweq	r0, #3338	; 0xd0a
     854:	3b0b3a0e 	blcc	2cf094 <_start-0xa2d30f6c>
     858:	3813490b 	ldmccda	r3, {r0, r1, r3, r8, fp, lr}
     85c:	0b00000a 	bleq	88c <_start-0xa2fff774>
     860:	0803000d 	stmeqda	r3, {r0, r2, r3}
     864:	0b3b0b3a 	bleq	ec3554 <_start-0xa213caac>
     868:	0a381349 	beq	e05594 <_start-0xa21faa6c>
     86c:	2e0c0000 	cdpcs	0, 0, cr0, cr12, cr0, {0}
     870:	3f130101 	svccc	0x00130101
     874:	3a0e030c 	bcc	3814ac <_start-0xa2c7eb54>
     878:	270b3b0b 	strcs	r3, [fp, -fp, lsl #22]
     87c:	1113490c 	tstne	r3, ip, lsl #18
     880:	40011201 	andmi	r1, r1, r1, lsl #4
     884:	0d000006 	stceq	0, cr0, [r0, #-24]
     888:	0e030005 	cdpeq	0, 0, cr0, cr3, cr5, {0}
     88c:	0b3b0b3a 	bleq	ec357c <_start-0xa213ca84>
     890:	06021349 	streq	r1, [r2], -r9, asr #6
     894:	340e0000 	strcc	r0, [lr]
     898:	3a080300 	bcc	2014a0 <_start-0xa2dfeb60>
     89c:	490b3b0b 	stmmidb	fp, {r0, r1, r3, r8, r9, fp, ip, sp}
     8a0:	0f000013 	svceq	0x00000013
     8a4:	0e030034 	mcreq	0, 0, r0, cr3, cr4, {1}
     8a8:	0b3b0b3a 	bleq	ec3598 <_start-0xa213ca68>
     8ac:	00001349 	andeq	r1, r0, r9, asr #6
     8b0:	01110100 	tsteq	r1, r0, lsl #2
     8b4:	01120610 	tsteq	r2, r0, lsl r6
     8b8:	0e250111 	mcreq	1, 1, r0, cr5, cr1, {0}
     8bc:	0e030b13 	vmoveq.32	d3[0], r0
     8c0:	16020000 	strne	r0, [r2], -r0
     8c4:	3a0e0300 	bcc	3814cc <_start-0xa2c7eb34>
     8c8:	490b3b0b 	stmmidb	fp, {r0, r1, r3, r8, r9, fp, ip, sp}
     8cc:	03000013 	movweq	r0, #19	; 0x13
     8d0:	0e030024 	cdpeq	0, 0, cr0, cr3, cr4, {1}
     8d4:	0b3e0b0b 	bleq	f83508 <_start-0xa207caf8>
     8d8:	24040000 	strcs	r0, [r4]
     8dc:	0b080300 	bleq	2014e4 <_start-0xa2dfeb1c>
     8e0:	000b3e0b 	andeq	r3, fp, fp, lsl #28
     8e4:	012e0500 	teqeq	lr, r0, lsl #10
     8e8:	0c3f1301 	ldceq	3, cr1, [pc], #-4
     8ec:	0b3a0e03 	bleq	e84100 <_start-0xa217bf00>
     8f0:	0c270b3b 	stceq	11, cr0, [r7], #-236
     8f4:	00000b20 	andeq	r0, r0, r0, lsr #22
     8f8:	03000506 	movweq	r0, #1286	; 0x506
     8fc:	3b0b3a0e 	blcc	2cf13c <_start-0xa2d30ec4>
     900:	0013490b 	andeqs	r4, r3, fp, lsl #18
     904:	00340700 	eoreqs	r0, r4, r0, lsl #14
     908:	0b3a0803 	bleq	e8291c <_start-0xa217d6e4>
     90c:	13490b3b 	movtne	r0, #39739	; 0x9b3b
     910:	0f080000 	svceq	0x00080000
     914:	490b0b00 	stmmidb	fp, {r8, r9, fp}
     918:	09000013 	stmeqdb	r0, {r0, r1, r4}
     91c:	13490035 	movtne	r0, #36917	; 0x9035
     920:	2e0a0000 	cdpcs	0, 0, cr0, cr10, cr0, {0}
     924:	3f130101 	svccc	0x00130101
     928:	3a0e030c 	bcc	381560 <_start-0xa2c7eaa0>
     92c:	270b3b0b 	strcs	r3, [fp, -fp, lsl #22]
     930:	1201110c 	andne	r1, r1, #3	; 0x3
     934:	000a4001 	andeq	r4, sl, r1
     938:	011d0b00 	tsteq	sp, r0, lsl #22
     93c:	13311301 	teqne	r1, #67108864	; 0x4000000
     940:	0b580655 	bleq	160229c <_start-0xa19fdd64>
     944:	00000b59 	andeq	r0, r0, r9, asr fp
     948:	3100050c 	tstcc	r0, ip, lsl #10
     94c:	0d000013 	stceq	0, cr0, [r0, #-76]
     950:	1301011d 	movwne	r0, #4381	; 0x111d
     954:	01111331 	tsteq	r1, r1, lsr r3
     958:	0b580112 	bleq	1600da8 <_start-0xa19ff258>
     95c:	00000b59 	andeq	r0, r0, r9, asr fp
     960:	31011d0e 	tstcc	r1, lr, lsl #26
     964:	12011113 	andne	r1, r1, #-1073741820	; 0xc0000004
     968:	590b5801 	stmpldb	fp, {r0, fp, ip, lr}
     96c:	0f00000b 	svceq	0x0000000b
     970:	0111010b 	tsteq	r1, fp, lsl #2
     974:	00000112 	andeq	r0, r0, r2, lsl r1
     978:	31003410 	tstcc	r0, r0, lsl r4
     97c:	11000013 	tstne	r0, r3, lsl r0
     980:	1301012e 	movwne	r0, #4398	; 0x112e
     984:	0e030c3f 	mcreq	12, 0, r0, cr3, cr15, {1}
     988:	0b3b0b3a 	bleq	ec3678 <_start-0xa213c988>
     98c:	13490c27 	movtne	r0, #39975	; 0x9c27
     990:	00000b20 	andeq	r0, r0, r0, lsr #22
     994:	03003412 	movweq	r3, #1042	; 0x412
     998:	3b0b3a0e 	blcc	2cf1d8 <_start-0xa2d30e28>
     99c:	0213490b 	andeqs	r4, r3, #180224	; 0x2c000
     9a0:	13000006 	movwne	r0, #6	; 0x6
     9a4:	0e030034 	mcreq	0, 0, r0, cr3, cr4, {1}
     9a8:	0b3b0b3a 	bleq	ec3698 <_start-0xa213c968>
     9ac:	0c3f1349 	ldceq	3, cr1, [pc], #-292
     9b0:	00000a02 	andeq	r0, r0, r2, lsl #20
     9b4:	01110100 	tsteq	r1, r0, lsl #2
     9b8:	01120610 	tsteq	r2, r0, lsl r6
     9bc:	0e250111 	mcreq	1, 1, r0, cr5, cr1, {0}
     9c0:	0e030b13 	vmoveq.32	d3[0], r0
     9c4:	16020000 	strne	r0, [r2], -r0
     9c8:	3a0e0300 	bcc	3815d0 <_start-0xa2c7ea30>
     9cc:	490b3b0b 	stmmidb	fp, {r0, r1, r3, r8, r9, fp, ip, sp}
     9d0:	03000013 	movweq	r0, #19	; 0x13
     9d4:	0e030024 	cdpeq	0, 0, cr0, cr3, cr4, {1}
     9d8:	0b3e0b0b 	bleq	f8360c <_start-0xa207c9f4>
     9dc:	24040000 	strcs	r0, [r4]
     9e0:	0b080300 	bleq	2015e8 <_start-0xa2dfea18>
     9e4:	000b3e0b 	andeq	r3, fp, fp, lsl #28
     9e8:	000f0500 	andeq	r0, pc, r0, lsl #10
     9ec:	00000b0b 	andeq	r0, r0, fp, lsl #22
     9f0:	01012e06 	tsteq	r1, r6, lsl #28
     9f4:	030c3f13 	movweq	r3, #53011	; 0xcf13
     9f8:	3b0b3a0e 	blcc	2cf238 <_start-0xa2d30dc8>
     9fc:	490c270b 	stmmidb	ip, {r0, r1, r3, r8, r9, sl, sp}
     a00:	12011113 	andne	r1, r1, #-1073741820	; 0xc0000004
     a04:	00064001 	andeq	r4, r6, r1
     a08:	00050700 	andeq	r0, r5, r0, lsl #14
     a0c:	0b3a0803 	bleq	e82a20 <_start-0xa217d5e0>
     a10:	13490b3b 	movtne	r0, #39739	; 0x9b3b
     a14:	00000602 	andeq	r0, r0, r2, lsl #12
     a18:	03000508 	movweq	r0, #1288	; 0x508
     a1c:	3b0b3a0e 	blcc	2cf25c <_start-0xa2d30da4>
     a20:	0213490b 	andeqs	r4, r3, #180224	; 0x2c000
     a24:	09000006 	stmeqdb	r0, {r1, r2}
     a28:	08030034 	stmeqda	r3, {r2, r4, r5}
     a2c:	0b3b0b3a 	bleq	ec371c <_start-0xa213c8e4>
     a30:	0a021349 	beq	8575c <_start-0xa2f7a8a4>
     a34:	340a0000 	strcc	r0, [sl]
     a38:	3a0e0300 	bcc	381640 <_start-0xa2c7e9c0>
     a3c:	490b3b0b 	stmmidb	fp, {r0, r1, r3, r8, r9, fp, ip, sp}
     a40:	0b000013 	bleq	a94 <_start-0xa2fff56c>
     a44:	0e030034 	mcreq	0, 0, r0, cr3, cr4, {1}
     a48:	0b3b0b3a 	bleq	ec3738 <_start-0xa213c8c8>
     a4c:	06021349 	streq	r1, [r2], -r9, asr #6
     a50:	0f0c0000 	svceq	0x000c0000
     a54:	490b0b00 	stmmidb	fp, {r8, r9, fp}
     a58:	0d000013 	stceq	0, cr0, [r0, #-76]
     a5c:	00000026 	andeq	r0, r0, r6, lsr #32
     a60:	0300340e 	movweq	r3, #1038	; 0x40e
     a64:	3b0b3a08 	blcc	2cf28c <_start-0xa2d30d74>
     a68:	0213490b 	andeqs	r4, r3, #180224	; 0x2c000
     a6c:	0f000006 	svceq	0x00000006
     a70:	0e030034 	mcreq	0, 0, r0, cr3, cr4, {1}
     a74:	0b3b0b3a 	bleq	ec3764 <_start-0xa213c89c>
     a78:	0a021349 	beq	857a4 <_start-0xa2f7a85c>
     a7c:	01000000 	tsteq	r0, r0
     a80:	06100111 	undefined
     a84:	01110112 	tsteq	r1, r2, lsl r1
     a88:	0b130e25 	bleq	4c4324 <_start-0xa2b3bcdc>
     a8c:	00000e03 	andeq	r0, r0, r3, lsl #28
     a90:	03001602 	movweq	r1, #1538	; 0x602
     a94:	3b0b3a0e 	blcc	2cf2d4 <_start-0xa2d30d2c>
     a98:	0013490b 	andeqs	r4, r3, fp, lsl #18
     a9c:	00240300 	eoreq	r0, r4, r0, lsl #6
     aa0:	0b0b0e03 	bleq	2c42b4 <_start-0xa2d3bd4c>
     aa4:	00000b3e 	andeq	r0, r0, lr, lsr fp
     aa8:	03002404 	movweq	r2, #1028	; 0x404
     aac:	3e0b0b08 	fmacdcc	d0, d11, d8
     ab0:	0500000b 	streq	r0, [r0, #-11]
     ab4:	13010115 	movwne	r0, #4373	; 0x1115
     ab8:	00000c27 	andeq	r0, r0, r7, lsr #24
     abc:	49000506 	stmmidb	r0, {r1, r2, r8, sl}
     ac0:	07000013 	smladeq	r0, r3, r0, r0
     ac4:	0b0b000f 	bleq	2c0b08 <_start-0xa2d3f4f8>
     ac8:	0f080000 	svceq	0x00080000
     acc:	490b0b00 	stmmidb	fp, {r8, r9, fp}
     ad0:	09000013 	stmeqdb	r0, {r0, r1, r4}
     ad4:	13010113 	movwne	r0, #4371	; 0x1113
     ad8:	0b0b0e03 	bleq	2c42ec <_start-0xa2d3bd14>
     adc:	0b3b0b3a 	bleq	ec37cc <_start-0xa213c834>
     ae0:	0d0a0000 	stceq	0, cr0, [sl]
     ae4:	3a0e0300 	bcc	3816ec <_start-0xa2c7e914>
     ae8:	490b3b0b 	stmmidb	fp, {r0, r1, r3, r8, r9, fp, ip, sp}
     aec:	000a3813 	andeq	r3, sl, r3, lsl r8
     af0:	000d0b00 	andeq	r0, sp, r0, lsl #22
     af4:	0b3a0803 	bleq	e82b08 <_start-0xa217d4f8>
     af8:	13490b3b 	movtne	r0, #39739	; 0x9b3b
     afc:	00000a38 	andeq	r0, r0, r8, lsr sl
     b00:	01012e0c 	tsteq	r1, ip, lsl #28
     b04:	030c3f13 	movweq	r3, #53011	; 0xcf13
     b08:	3b0b3a0e 	blcc	2cf348 <_start-0xa2d30cb8>
     b0c:	200c270b 	andcs	r2, ip, fp, lsl #14
     b10:	0d00000b 	stceq	0, cr0, [r0, #-44]
     b14:	0e030034 	mcreq	0, 0, r0, cr3, cr4, {1}
     b18:	0b3b0b3a 	bleq	ec3808 <_start-0xa213c7f8>
     b1c:	00001349 	andeq	r1, r0, r9, asr #6
     b20:	01012e0e 	tsteq	r1, lr, lsl #28
     b24:	030c3f13 	movweq	r3, #53011	; 0xcf13
     b28:	3b0b3a0e 	blcc	2cf368 <_start-0xa2d30c98>
     b2c:	110c270b 	tstne	ip, fp, lsl #14
     b30:	40011201 	andmi	r1, r1, r1, lsl #4
     b34:	0f00000a 	svceq	0x0000000a
     b38:	0e030005 	cdpeq	0, 0, cr0, cr3, cr5, {0}
     b3c:	0b3b0b3a 	bleq	ec382c <_start-0xa213c7d4>
     b40:	06021349 	streq	r1, [r2], -r9, asr #6
     b44:	1d100000 	ldcne	0, cr0, [r0]
     b48:	11133101 	tstne	r3, r1, lsl #2
     b4c:	58011201 	stmplda	r1, {r0, r9, ip}
     b50:	000b590b 	andeq	r5, fp, fp, lsl #18
     b54:	010b1100 	tsteq	fp, r0, lsl #2
     b58:	01120111 	tsteq	r2, r1, lsl r1
     b5c:	34120000 	ldrcc	r0, [r2]
     b60:	02133100 	andeqs	r3, r3, #0	; 0x0
     b64:	13000006 	movwne	r0, #6	; 0x6
     b68:	1301012e 	movwne	r0, #4398	; 0x112e
     b6c:	0e030c3f 	mcreq	12, 0, r0, cr3, cr15, {1}
     b70:	0b3b0b3a 	bleq	ec3860 <_start-0xa213c7a0>
     b74:	13490c27 	movtne	r0, #39975	; 0x9c27
     b78:	01120111 	tsteq	r2, r1, lsl r1
     b7c:	00000640 	andeq	r0, r0, r0, asr #12
     b80:	03000514 	movweq	r0, #1300	; 0x514
     b84:	3b0b3a08 	blcc	2cf3ac <_start-0xa2d30c54>
     b88:	0213490b 	andeqs	r4, r3, #180224	; 0x2c000
     b8c:	15000006 	strne	r0, [r0, #-6]
     b90:	1301012e 	movwne	r0, #4398	; 0x112e
     b94:	0b3a0e03 	bleq	e843a8 <_start-0xa217bc58>
     b98:	0c270b3b 	stceq	11, cr0, [r7], #-236
     b9c:	0b201349 	bleq	8058c8 <_start-0xa27fa738>
     ba0:	05160000 	ldreq	r0, [r6]
     ba4:	3a0e0300 	bcc	3817ac <_start-0xa2c7e854>
     ba8:	490b3b0b 	stmmidb	fp, {r0, r1, r3, r8, r9, fp, ip, sp}
     bac:	17000013 	smladne	r0, r3, r0, r0
     bb0:	08030034 	stmeqda	r3, {r2, r4, r5}
     bb4:	0b3b0b3a 	bleq	ec38a4 <_start-0xa213c75c>
     bb8:	00001349 	andeq	r1, r0, r9, asr #6
     bbc:	01012e18 	tsteq	r1, r8, lsl lr
     bc0:	3a0e0313 	bcc	381814 <_start-0xa2c7e7ec>
     bc4:	200b3b0b 	andcs	r3, fp, fp, lsl #22
     bc8:	1900000b 	stmnedb	r0, {r0, r1, r3}
     bcc:	1301012e 	movwne	r0, #4398	; 0x112e
     bd0:	0b3a0e03 	bleq	e843e4 <_start-0xa217bc1c>
     bd4:	0c270b3b 	stceq	11, cr0, [r7], #-236
     bd8:	00000b20 	andeq	r0, r0, r0, lsr #22
     bdc:	0300341a 	movweq	r3, #1050	; 0x41a
     be0:	3b0b3a0e 	blcc	2cf420 <_start-0xa2d30be0>
     be4:	0213490b 	andeqs	r4, r3, #180224	; 0x2c000
     be8:	1b000006 	blne	c08 <_start-0xa2fff3f8>
     bec:	1301011d 	movwne	r0, #4381	; 0x111d
     bf0:	01111331 	tsteq	r1, r1, lsr r3
     bf4:	0b580112 	bleq	1601044 <_start-0xa19fefbc>
     bf8:	00000b59 	andeq	r0, r0, r9, asr fp
     bfc:	3100051c 	tstcc	r0, ip, lsl r5
     c00:	1d000013 	stcne	0, cr0, [r0, #-76]
     c04:	13310034 	teqne	r1, #52	; 0x34
     c08:	341e0000 	ldrcc	r0, [lr]
     c0c:	02133100 	andeqs	r3, r3, #0	; 0x0
     c10:	1f00000a 	svcne	0x0000000a
     c14:	13010101 	movwne	r0, #4353	; 0x1101
     c18:	00001349 	andeq	r1, r0, r9, asr #6
     c1c:	49002120 	stmmidb	r0, {r5, r8, sp}
     c20:	000b2f13 	andeq	r2, fp, r3, lsl pc
     c24:	00342100 	eoreqs	r2, r4, r0, lsl #2
     c28:	0b3a0e03 	bleq	e8443c <_start-0xa217bbc4>
     c2c:	13490b3b 	movtne	r0, #39739	; 0x9b3b
     c30:	0a020c3f 	beq	83d34 <_start-0xa2f7c2cc>
     c34:	01000000 	tsteq	r0, r0
     c38:	06100111 	undefined
     c3c:	01110112 	tsteq	r1, r2, lsl r1
     c40:	0b130e25 	bleq	4c44dc <_start-0xa2b3bb24>
     c44:	00000e03 	andeq	r0, r0, r3, lsl #28
     c48:	03002402 	movweq	r2, #1026	; 0x402
     c4c:	3e0b0b0e 	fmacdcc	d0, d11, d14
     c50:	0300000b 	movweq	r0, #11	; 0xb
     c54:	08030024 	stmeqda	r3, {r2, r5}
     c58:	0b3e0b0b 	bleq	f8388c <_start-0xa207c774>
     c5c:	2e040000 	cdpcs	0, 0, cr0, cr4, cr0, {0}
     c60:	3f130101 	svccc	0x00130101
     c64:	3a0e030c 	bcc	38189c <_start-0xa2c7e764>
     c68:	270b3b0b 	strcs	r3, [fp, -fp, lsl #22]
     c6c:	1113490c 	tstne	r3, ip, lsl #18
     c70:	40011201 	andmi	r1, r1, r1, lsl #4
     c74:	0500000a 	streq	r0, [r0, #-10]
     c78:	0e030034 	mcreq	0, 0, r0, cr3, cr4, {1}
     c7c:	0b3b0b3a 	bleq	ec396c <_start-0xa213c694>
     c80:	00001349 	andeq	r1, r0, r9, asr #6
     c84:	01012e06 	tsteq	r1, r6, lsl #28
     c88:	030c3f13 	movweq	r3, #53011	; 0xcf13
     c8c:	3b0b3a0e 	blcc	2cf4cc <_start-0xa2d30b34>
     c90:	110c270b 	tstne	ip, fp, lsl #14
     c94:	40011201 	andmi	r1, r1, r1, lsl #4
     c98:	07000006 	streq	r0, [r0, -r6]
     c9c:	0e030005 	cdpeq	0, 0, cr0, cr3, cr5, {0}
     ca0:	0b3b0b3a 	bleq	ec3990 <_start-0xa213c670>
     ca4:	06021349 	streq	r1, [r2], -r9, asr #6
     ca8:	34080000 	strcc	r0, [r8]
     cac:	3a0e0300 	bcc	3818b4 <_start-0xa2c7e74c>
     cb0:	490b3b0b 	stmmidb	fp, {r0, r1, r3, r8, r9, fp, ip, sp}
     cb4:	000a0213 	andeq	r0, sl, r3, lsl r2
     cb8:	00340900 	eoreqs	r0, r4, r0, lsl #18
     cbc:	0b3a0e03 	bleq	e844d0 <_start-0xa217bb30>
     cc0:	13490b3b 	movtne	r0, #39739	; 0x9b3b
     cc4:	00000602 	andeq	r0, r0, r2, lsl #12
     cc8:	0300340a 	movweq	r3, #1034	; 0x40a
     ccc:	3b0b3a0e 	blcc	2cf50c <_start-0xa2d30af4>
     cd0:	3f13490b 	svccc	0x0013490b
     cd4:	000c3c0c 	andeq	r3, ip, ip, lsl #24
     cd8:	00350b00 	eoreqs	r0, r5, r0, lsl #22
     cdc:	00001349 	andeq	r1, r0, r9, asr #6
     ce0:	01110100 	tsteq	r1, r0, lsl #2
     ce4:	01120610 	tsteq	r2, r0, lsl r6
     ce8:	0e250111 	mcreq	1, 1, r0, cr5, cr1, {0}
     cec:	0e030b13 	vmoveq.32	d3[0], r0
     cf0:	16020000 	strne	r0, [r2], -r0
     cf4:	3a0e0300 	bcc	3818fc <_start-0xa2c7e704>
     cf8:	490b3b0b 	stmmidb	fp, {r0, r1, r3, r8, r9, fp, ip, sp}
     cfc:	03000013 	movweq	r0, #19	; 0x13
     d00:	0e030024 	cdpeq	0, 0, cr0, cr3, cr4, {1}
     d04:	0b3e0b0b 	bleq	f83938 <_start-0xa207c6c8>
     d08:	24040000 	strcs	r0, [r4]
     d0c:	0b080300 	bleq	201914 <_start-0xa2dfe6ec>
     d10:	000b3e0b 	andeq	r3, fp, fp, lsl #28
     d14:	01150500 	tsteq	r5, r0, lsl #10
     d18:	0c271301 	stceq	3, cr1, [r7], #-4
     d1c:	05060000 	streq	r0, [r6]
     d20:	00134900 	andeqs	r4, r3, r0, lsl #18
     d24:	000f0700 	andeq	r0, pc, r0, lsl #14
     d28:	00000b0b 	andeq	r0, r0, fp, lsl #22
     d2c:	0b000f08 	bleq	4954 <_start-0xa2ffb6ac>
     d30:	0013490b 	andeqs	r4, r3, fp, lsl #18
     d34:	01130900 	tsteq	r3, r0, lsl #18
     d38:	0e031301 	cdpeq	3, 0, cr1, cr3, cr1, {0}
     d3c:	0b3a0b0b 	bleq	e83970 <_start-0xa217c690>
     d40:	00000b3b 	andeq	r0, r0, fp, lsr fp
     d44:	03000d0a 	movweq	r0, #3338	; 0xd0a
     d48:	3b0b3a0e 	blcc	2cf588 <_start-0xa2d30a78>
     d4c:	3813490b 	ldmccda	r3, {r0, r1, r3, r8, fp, lr}
     d50:	0b00000a 	bleq	d80 <_start-0xa2fff280>
     d54:	0803000d 	stmeqda	r3, {r0, r2, r3}
     d58:	0b3b0b3a 	bleq	ec3a48 <_start-0xa213c5b8>
     d5c:	0a381349 	beq	e05a88 <_start-0xa21fa578>
     d60:	350c0000 	strcc	r0, [ip]
     d64:	00134900 	andeqs	r4, r3, r0, lsl #18
     d68:	01130d00 	tsteq	r3, r0, lsl #26
     d6c:	08031301 	stmeqda	r3, {r0, r8, r9, ip}
     d70:	0b3a050b 	bleq	e821a4 <_start-0xa217de5c>
     d74:	00000b3b 	andeq	r0, r0, fp, lsr fp
     d78:	0101010e 	tsteq	r1, lr, lsl #2
     d7c:	00134913 	andeqs	r4, r3, r3, lsl r9
     d80:	00210f00 	eoreq	r0, r1, r0, lsl #30
     d84:	052f1349 	streq	r1, [pc, #-841]!	; a43 <_start-0xa2fff5bd>
     d88:	21100000 	tstcs	r0, r0
     d8c:	00134900 	andeqs	r4, r3, r0, lsl #18
     d90:	012e1100 	teqeq	lr, r0, lsl #2
     d94:	0c3f1301 	ldceq	3, cr1, [pc], #-4
     d98:	0b3a0e03 	bleq	e845ac <_start-0xa217ba54>
     d9c:	0c270b3b 	stceq	11, cr0, [r7], #-236
     da0:	00000b20 	andeq	r0, r0, r0, lsr #22
     da4:	03003412 	movweq	r3, #1042	; 0x412
     da8:	3b0b3a0e 	blcc	2cf5e8 <_start-0xa2d30a18>
     dac:	0013490b 	andeqs	r4, r3, fp, lsl #18
     db0:	012e1300 	teqeq	lr, r0, lsl #6
     db4:	0e031301 	cdpeq	3, 0, cr1, cr3, cr1, {0}
     db8:	0b3b0b3a 	bleq	ec3aa8 <_start-0xa213c558>
     dbc:	01110c27 	tsteq	r1, r7, lsr #24
     dc0:	0a400112 	beq	1001210 <_start-0xa1ffedf0>
     dc4:	1d140000 	ldcne	0, cr0, [r4]
     dc8:	11133101 	tstne	r3, r1, lsl #2
     dcc:	58011201 	stmplda	r1, {r0, r9, ip}
     dd0:	000b590b 	andeq	r5, fp, fp, lsl #18
     dd4:	010b1500 	tsteq	fp, r0, lsl #10
     dd8:	01120111 	tsteq	r2, r1, lsl r1
     ddc:	34160000 	ldrcc	r0, [r6]
     de0:	02133100 	andeqs	r3, r3, #0	; 0x0
     de4:	17000006 	strne	r0, [r0, -r6]
     de8:	1301012e 	movwne	r0, #4398	; 0x112e
     dec:	0b3a0e03 	bleq	e84600 <_start-0xa217ba00>
     df0:	0c270b3b 	stceq	11, cr0, [r7], #-236
     df4:	01120111 	tsteq	r2, r1, lsl r1
     df8:	00000640 	andeq	r0, r0, r0, asr #12
     dfc:	03000518 	movweq	r0, #1304	; 0x518
     e00:	3b0b3a0e 	blcc	2cf640 <_start-0xa2d309c0>
     e04:	0213490b 	andeqs	r4, r3, #180224	; 0x2c000
     e08:	19000006 	stmnedb	r0, {r1, r2}
     e0c:	08030005 	stmeqda	r3, {r0, r2}
     e10:	0b3b0b3a 	bleq	ec3b00 <_start-0xa213c500>
     e14:	0a021349 	beq	85b40 <_start-0xa2f7a4c0>
     e18:	341a0000 	ldrcc	r0, [sl]
     e1c:	3a080300 	bcc	201a24 <_start-0xa2dfe5dc>
     e20:	490b3b0b 	stmmidb	fp, {r0, r1, r3, r8, r9, fp, ip, sp}
     e24:	000a0213 	andeq	r0, sl, r3, lsl r2
     e28:	012e1b00 	teqeq	lr, r0, lsl #22
     e2c:	0c3f1301 	ldceq	3, cr1, [pc], #-4
     e30:	0b3a0e03 	bleq	e84644 <_start-0xa217b9bc>
     e34:	0c270b3b 	stceq	11, cr0, [r7], #-236
     e38:	01120111 	tsteq	r2, r1, lsl r1
     e3c:	00000640 	andeq	r0, r0, r0, asr #12
     e40:	01012e1c 	tsteq	r1, ip, lsl lr
     e44:	3a0e0313 	bcc	381a98 <_start-0xa2c7e568>
     e48:	270b3b0b 	strcs	r3, [fp, -fp, lsl #22]
     e4c:	000b200c 	andeq	r2, fp, ip
     e50:	00341d00 	eoreqs	r1, r4, r0, lsl #26
     e54:	0a021331 	beq	85b20 <_start-0xa2f7a4e0>
     e58:	211e0000 	tstcs	lr, r0
     e5c:	2f134900 	svccs	0x00134900
     e60:	1f00000b 	svcne	0x0000000b
     e64:	0e030034 	mcreq	0, 0, r0, cr3, cr4, {1}
     e68:	0b3b0b3a 	bleq	ec3b58 <_start-0xa213c4a8>
     e6c:	0c3f1349 	ldceq	3, cr1, [pc], #-292
     e70:	00000a02 	andeq	r0, r0, r2, lsl #20
     e74:	01110100 	tsteq	r1, r0, lsl #2
     e78:	01120610 	tsteq	r2, r0, lsl r6
     e7c:	0e250111 	mcreq	1, 1, r0, cr5, cr1, {0}
     e80:	0e030b13 	vmoveq.32	d3[0], r0
     e84:	16020000 	strne	r0, [r2], -r0
     e88:	3a0e0300 	bcc	381a90 <_start-0xa2c7e570>
     e8c:	490b3b0b 	stmmidb	fp, {r0, r1, r3, r8, r9, fp, ip, sp}
     e90:	03000013 	movweq	r0, #19	; 0x13
     e94:	0e030024 	cdpeq	0, 0, cr0, cr3, cr4, {1}
     e98:	0b3e0b0b 	bleq	f83acc <_start-0xa207c534>
     e9c:	24040000 	strcs	r0, [r4]
     ea0:	0b080300 	bleq	201aa8 <_start-0xa2dfe558>
     ea4:	000b3e0b 	andeq	r3, fp, fp, lsl #28
     ea8:	000f0500 	andeq	r0, pc, r0, lsl #10
     eac:	13490b0b 	movtne	r0, #39691	; 0x9b0b
     eb0:	15060000 	strne	r0, [r6]
     eb4:	27130101 	ldrcs	r0, [r3, -r1, lsl #2]
     eb8:	0700000c 	streq	r0, [r0, -ip]
     ebc:	13490005 	movtne	r0, #36869	; 0x9005
     ec0:	0f080000 	svceq	0x00080000
     ec4:	000b0b00 	andeq	r0, fp, r0, lsl #22
     ec8:	01130900 	tsteq	r3, r0, lsl #18
     ecc:	0e031301 	cdpeq	3, 0, cr1, cr3, cr1, {0}
     ed0:	0b3a0b0b 	bleq	e83b04 <_start-0xa217c4fc>
     ed4:	00000b3b 	andeq	r0, r0, fp, lsr fp
     ed8:	03000d0a 	movweq	r0, #3338	; 0xd0a
     edc:	3b0b3a0e 	blcc	2cf71c <_start-0xa2d308e4>
     ee0:	3813490b 	ldmccda	r3, {r0, r1, r3, r8, fp, lr}
     ee4:	0b00000a 	bleq	f14 <_start-0xa2fff0ec>
     ee8:	0803000d 	stmeqda	r3, {r0, r2, r3}
     eec:	0b3b0b3a 	bleq	ec3bdc <_start-0xa213c424>
     ef0:	0a381349 	beq	e05c1c <_start-0xa21fa3e4>
     ef4:	2e0c0000 	cdpcs	0, 0, cr0, cr12, cr0, {0}
     ef8:	3f130101 	svccc	0x00130101
     efc:	3a0e030c 	bcc	381b34 <_start-0xa2c7e4cc>
     f00:	270b3b0b 	strcs	r3, [fp, -fp, lsl #22]
     f04:	1113490c 	tstne	r3, ip, lsl #18
     f08:	40011201 	andmi	r1, r1, r1, lsl #4
     f0c:	0d00000a 	stceq	0, cr0, [r0, #-40]
     f10:	0e030005 	cdpeq	0, 0, cr0, cr3, cr5, {0}
     f14:	0b3b0b3a 	bleq	ec3c04 <_start-0xa213c3fc>
     f18:	06021349 	streq	r1, [r2], -r9, asr #6
     f1c:	050e0000 	streq	r0, [lr]
     f20:	3a0e0300 	bcc	381b28 <_start-0xa2c7e4d8>
     f24:	490b3b0b 	stmmidb	fp, {r0, r1, r3, r8, r9, fp, ip, sp}
     f28:	000a0213 	andeq	r0, sl, r3, lsl r2
     f2c:	11010000 	tstne	r1, r0
     f30:	12061001 	andne	r1, r6, #1	; 0x1
     f34:	25011101 	strcs	r1, [r1, #-257]
     f38:	030b130e 	movweq	r1, #45838	; 0xb30e
     f3c:	0200000e 	andeq	r0, r0, #14	; 0xe
     f40:	0e030024 	cdpeq	0, 0, cr0, cr3, cr4, {1}
     f44:	0b3e0b0b 	bleq	f83b78 <_start-0xa207c488>
     f48:	24030000 	strcs	r0, [r3]
     f4c:	0b080300 	bleq	201b54 <_start-0xa2dfe4ac>
     f50:	000b3e0b 	andeq	r3, fp, fp, lsl #28
     f54:	00160400 	andeqs	r0, r6, r0, lsl #8
     f58:	0b3a0e03 	bleq	e8476c <_start-0xa217b894>
     f5c:	13490b3b 	movtne	r0, #39739	; 0x9b3b
     f60:	0f050000 	svceq	0x00050000
     f64:	000b0b00 	andeq	r0, fp, r0, lsl #22
     f68:	01130600 	tsteq	r3, r0, lsl #12
     f6c:	0e031301 	cdpeq	3, 0, cr1, cr3, cr1, {0}
     f70:	0b3a0b0b 	bleq	e83ba4 <_start-0xa217c45c>
     f74:	00000b3b 	andeq	r0, r0, fp, lsr fp
     f78:	03000d07 	movweq	r0, #3335	; 0xd07
     f7c:	3b0b3a08 	blcc	2cf7a4 <_start-0xa2d3085c>
     f80:	3813490b 	ldmccda	r3, {r0, r1, r3, r8, fp, lr}
     f84:	0800000a 	stmeqda	r0, {r1, r3}
     f88:	13490035 	movtne	r0, #36917	; 0x9035
     f8c:	13090000 	movwne	r0, #36864	; 0x9000
     f90:	03130101 	tsteq	r3, #1073741824	; 0x40000000
     f94:	3a050b08 	bcc	143bbc <_start-0xa2ebc444>
     f98:	000b3b0b 	andeq	r3, fp, fp, lsl #22
     f9c:	000d0a00 	andeq	r0, sp, r0, lsl #20
     fa0:	0b3a0e03 	bleq	e847b4 <_start-0xa217b84c>
     fa4:	13490b3b 	movtne	r0, #39739	; 0x9b3b
     fa8:	00000a38 	andeq	r0, r0, r8, lsr sl
     fac:	0b000f0b 	bleq	4be0 <_start-0xa2ffb420>
     fb0:	0013490b 	andeqs	r4, r3, fp, lsl #18
     fb4:	01010c00 	tsteq	r1, r0, lsl #24
     fb8:	13491301 	movtne	r1, #37633	; 0x9301
     fbc:	210d0000 	tstcs	sp, r0
     fc0:	2f134900 	svccs	0x00134900
     fc4:	0e000005 	cdpeq	0, 0, cr0, cr0, cr5, {0}
     fc8:	13490021 	movtne	r0, #36897	; 0x9021
     fcc:	2e0f0000 	cdpcs	0, 0, cr0, cr15, cr0, {0}
     fd0:	3f130101 	svccc	0x00130101
     fd4:	3a0e030c 	bcc	381c0c <_start-0xa2c7e3f4>
     fd8:	270b3b0b 	strcs	r3, [fp, -fp, lsl #22]
     fdc:	1201110c 	andne	r1, r1, #3	; 0x3
     fe0:	000a4001 	andeq	r4, sl, r1
     fe4:	00051000 	andeq	r1, r5, r0
     fe8:	0b3a0e03 	bleq	e847fc <_start-0xa217b804>
     fec:	13490b3b 	movtne	r0, #39739	; 0x9b3b
     ff0:	00000a02 	andeq	r0, r0, r2, lsl #20
     ff4:	3f002e11 	svccc	0x00002e11
     ff8:	3a0e030c 	bcc	381c30 <_start-0xa2c7e3d0>
     ffc:	270b3b0b 	strcs	r3, [fp, -fp, lsl #22]
    1000:	1113490c 	tstne	r3, ip, lsl #18
    1004:	40011201 	andmi	r1, r1, r1, lsl #4
    1008:	1200000a 	andne	r0, r0, #10	; 0xa
    100c:	0c3f002e 	ldceq	0, cr0, [pc], #-184
    1010:	0b3a0e03 	bleq	e84824 <_start-0xa217b7dc>
    1014:	0c270b3b 	stceq	11, cr0, [r7], #-236
    1018:	0b201349 	bleq	805d44 <_start-0xa27fa2bc>
    101c:	2e130000 	wxorcs	wr0, wr3, wr0
    1020:	11133100 	tstne	r3, r0, lsl #2
    1024:	40011201 	andmi	r1, r1, r1, lsl #4
    1028:	1400000a 	strne	r0, [r0], #-10
    102c:	1301012e 	movwne	r0, #4398	; 0x112e
    1030:	0e030c3f 	mcreq	12, 0, r0, cr3, cr15, {1}
    1034:	0b3b0b3a 	bleq	ec3d24 <_start-0xa213c2dc>
    1038:	01110c27 	tsteq	r1, r7, lsr #24
    103c:	06400112 	undefined
    1040:	34150000 	ldrcc	r0, [r5]
    1044:	3a0e0300 	bcc	381c4c <_start-0xa2c7e3b4>
    1048:	490b3b0b 	stmmidb	fp, {r0, r1, r3, r8, r9, fp, ip, sp}
    104c:	00060213 	andeq	r0, r6, r3, lsl r2
    1050:	00341600 	eoreqs	r1, r4, r0, lsl #12
    1054:	0b3a0e03 	bleq	e84868 <_start-0xa217b798>
    1058:	13490b3b 	movtne	r0, #39739	; 0x9b3b
    105c:	34170000 	ldrcc	r0, [r7]
    1060:	3a0e0300 	bcc	381c68 <_start-0xa2c7e398>
    1064:	490b3b0b 	stmmidb	fp, {r0, r1, r3, r8, r9, fp, ip, sp}
    1068:	000a0213 	andeq	r0, sl, r3, lsl r2
    106c:	001d1800 	andeqs	r1, sp, r0, lsl #16
    1070:	06551331 	undefined
    1074:	0b590b58 	bleq	1643ddc <_start-0xa19bc224>
    1078:	01000000 	tsteq	r0, r0
    107c:	06100111 	undefined
    1080:	01110112 	tsteq	r1, r2, lsl r1
    1084:	0b130e25 	bleq	4c4920 <_start-0xa2b3b6e0>
    1088:	00000e03 	andeq	r0, r0, r3, lsl #28
    108c:	03002402 	movweq	r2, #1026	; 0x402
    1090:	3e0b0b0e 	fmacdcc	d0, d11, d14
    1094:	0300000b 	movweq	r0, #11	; 0xb
    1098:	08030024 	stmeqda	r3, {r2, r5}
    109c:	0b3e0b0b 	bleq	f83cd0 <_start-0xa207c330>
    10a0:	16040000 	strne	r0, [r4], -r0
    10a4:	3a0e0300 	bcc	381cac <_start-0xa2c7e354>
    10a8:	490b3b0b 	stmmidb	fp, {r0, r1, r3, r8, r9, fp, ip, sp}
    10ac:	05000013 	streq	r0, [r0, #-19]
    10b0:	0b0b000f 	bleq	2c10f4 <_start-0xa2d3ef0c>
    10b4:	13060000 	movwne	r0, #24576	; 0x6000
    10b8:	03130101 	tsteq	r3, #1073741824	; 0x40000000
    10bc:	3a0b0b0e 	bcc	2c3cfc <_start-0xa2d3c304>
    10c0:	000b3b0b 	andeq	r3, fp, fp, lsl #22
    10c4:	000d0700 	andeq	r0, sp, r0, lsl #14
    10c8:	0b3a0803 	bleq	e830dc <_start-0xa217cf24>
    10cc:	13490b3b 	movtne	r0, #39739	; 0x9b3b
    10d0:	00000a38 	andeq	r0, r0, r8, lsr sl
    10d4:	49003508 	stmmidb	r0, {r3, r8, sl, ip, sp}
    10d8:	09000013 	stmeqdb	r0, {r0, r1, r4}
    10dc:	13010113 	movwne	r0, #4371	; 0x1113
    10e0:	050b0803 	streq	r0, [fp, #-2051]
    10e4:	0b3b0b3a 	bleq	ec3dd4 <_start-0xa213c22c>
    10e8:	0d0a0000 	stceq	0, cr0, [sl]
    10ec:	3a0e0300 	bcc	381cf4 <_start-0xa2c7e30c>
    10f0:	490b3b0b 	stmmidb	fp, {r0, r1, r3, r8, r9, fp, ip, sp}
    10f4:	000a3813 	andeq	r3, sl, r3, lsl r8
    10f8:	000f0b00 	andeq	r0, pc, r0, lsl #22
    10fc:	13490b0b 	movtne	r0, #39691	; 0x9b0b
    1100:	010c0000 	tsteq	ip, r0
    1104:	49130101 	ldmmidb	r3, {r0, r8}
    1108:	0d000013 	stceq	0, cr0, [r0, #-76]
    110c:	13490021 	movtne	r0, #36897	; 0x9021
    1110:	0000052f 	andeq	r0, r0, pc, lsr #10
    1114:	4900210e 	stmmidb	r0, {r1, r2, r3, r8, sp}
    1118:	0f000013 	svceq	0x00000013
    111c:	1301012e 	movwne	r0, #4398	; 0x112e
    1120:	0e030c3f 	mcreq	12, 0, r0, cr3, cr15, {1}
    1124:	0b3b0b3a 	bleq	ec3e14 <_start-0xa213c1ec>
    1128:	01110c27 	tsteq	r1, r7, lsr #24
    112c:	0a400112 	beq	100157c <_start-0xa1ffea84>
    1130:	34100000 	ldrcc	r0, [r0]
    1134:	3a0e0300 	bcc	381d3c <_start-0xa2c7e2c4>
    1138:	490b3b0b 	stmmidb	fp, {r0, r1, r3, r8, r9, fp, ip, sp}
    113c:	11000013 	tstne	r0, r3, lsl r0
    1140:	1301012e 	movwne	r0, #4398	; 0x112e
    1144:	0e030c3f 	mcreq	12, 0, r0, cr3, cr15, {1}
    1148:	0b3b0b3a 	bleq	ec3e38 <_start-0xa213c1c8>
    114c:	01110c27 	tsteq	r1, r7, lsr #24
    1150:	06400112 	undefined
    1154:	05120000 	ldreq	r0, [r2]
    1158:	3a080300 	bcc	201d60 <_start-0xa2dfe2a0>
    115c:	490b3b0b 	stmmidb	fp, {r0, r1, r3, r8, r9, fp, ip, sp}
    1160:	000a0213 	andeq	r0, sl, r3, lsl r2
    1164:	00051300 	andeq	r1, r5, r0, lsl #6
    1168:	0b3a0e03 	bleq	e8497c <_start-0xa217b684>
    116c:	13490b3b 	movtne	r0, #39739	; 0x9b3b
    1170:	00000602 	andeq	r0, r0, r2, lsl #12
    1174:	01012e14 	tsteq	r1, r4, lsl lr
    1178:	030c3f13 	movweq	r3, #53011	; 0xcf13
    117c:	3b0b3a0e 	blcc	2cf9bc <_start-0xa2d30644>
    1180:	490c270b 	stmmidb	ip, {r0, r1, r3, r8, r9, sl, sp}
    1184:	12011113 	andne	r1, r1, #-1073741820	; 0xc0000004
    1188:	00064001 	andeq	r4, r6, r1
    118c:	00341500 	eoreqs	r1, r4, r0, lsl #10
    1190:	0b3a0e03 	bleq	e849a4 <_start-0xa217b65c>
    1194:	13490b3b 	movtne	r0, #39739	; 0x9b3b
    1198:	00000a02 	andeq	r0, r0, r2, lsl #20
    119c:	03003416 	movweq	r3, #1046	; 0x416
    11a0:	3b0b3a0e 	blcc	2cf9e0 <_start-0xa2d30620>
    11a4:	0213490b 	andeqs	r4, r3, #180224	; 0x2c000
    11a8:	17000006 	strne	r0, [r0, -r6]
    11ac:	1301012e 	movwne	r0, #4398	; 0x112e
    11b0:	0e030c3f 	mcreq	12, 0, r0, cr3, cr15, {1}
    11b4:	0b3b0b3a 	bleq	ec3ea4 <_start-0xa213c15c>
    11b8:	13490c27 	movtne	r0, #39975	; 0x9c27
    11bc:	01120111 	tsteq	r2, r1, lsl r1
    11c0:	00000a40 	andeq	r0, r0, r0, asr #20
    11c4:	03003418 	movweq	r3, #1048	; 0x418
    11c8:	3b0b3a08 	blcc	2cf9f0 <_start-0xa2d30610>
    11cc:	0013490b 	andeqs	r4, r3, fp, lsl #18
    11d0:	00341900 	eoreqs	r1, r4, r0, lsl #18
    11d4:	0b3a0803 	bleq	e831e8 <_start-0xa217ce18>
    11d8:	13490b3b 	movtne	r0, #39739	; 0x9b3b
    11dc:	00000a02 	andeq	r0, r0, r2, lsl #20
    11e0:	01012e1a 	tsteq	r1, sl, lsl lr
    11e4:	030c3f13 	movweq	r3, #53011	; 0xcf13
    11e8:	3b0b3a0e 	blcc	2cfa28 <_start-0xa2d305d8>
    11ec:	1201110b 	andne	r1, r1, #-1073741822	; 0xc0000002
    11f0:	00064001 	andeq	r4, r6, r1
    11f4:	00211b00 	eoreq	r1, r1, r0, lsl #22
    11f8:	0b2f1349 	bleq	bc5f24 <_start-0xa243a0dc>
    11fc:	261c0000 	ldrcs	r0, [ip], -r0
    1200:	00134900 	andeqs	r4, r3, r0, lsl #18
    1204:	11010000 	tstne	r1, r0
    1208:	12061001 	andne	r1, r6, #1	; 0x1
    120c:	25011101 	strcs	r1, [r1, #-257]
    1210:	030b130e 	movweq	r1, #45838	; 0xb30e
    1214:	0200000e 	andeq	r0, r0, #14	; 0xe
    1218:	13010104 	movwne	r0, #4356	; 0x1104
    121c:	0b0b0e03 	bleq	2c4a30 <_start-0xa2d3b5d0>
    1220:	0b3b0b3a 	bleq	ec3f10 <_start-0xa213c0f0>
    1224:	28030000 	stmcsda	r3, {}
    1228:	1c0e0300 	stcne	3, cr0, [lr], {0}
    122c:	0400000d 	streq	r0, [r0], #-13
    1230:	0e030016 	mcreq	0, 0, r0, cr3, cr6, {0}
    1234:	0b3b0b3a 	bleq	ec3f24 <_start-0xa213c0dc>
    1238:	00001349 	andeq	r1, r0, r9, asr #6
    123c:	03002405 	movweq	r2, #1029	; 0x405
    1240:	3e0b0b0e 	fmacdcc	d0, d11, d14
    1244:	0600000b 	streq	r0, [r0], -fp
    1248:	08030024 	stmeqda	r3, {r2, r5}
    124c:	0b3e0b0b 	bleq	f83e80 <_start-0xa207c180>
    1250:	0f070000 	svceq	0x00070000
    1254:	000b0b00 	andeq	r0, fp, r0, lsl #22
    1258:	01130800 	tsteq	r3, r0, lsl #16
    125c:	0e031301 	cdpeq	3, 0, cr1, cr3, cr1, {0}
    1260:	0b3a0b0b 	bleq	e83e94 <_start-0xa217c16c>
    1264:	00000b3b 	andeq	r0, r0, fp, lsr fp
    1268:	03000d09 	movweq	r0, #3337	; 0xd09
    126c:	3b0b3a08 	blcc	2cfa94 <_start-0xa2d3056c>
    1270:	3813490b 	ldmccda	r3, {r0, r1, r3, r8, fp, lr}
    1274:	0a00000a 	beq	12a4 <_start-0xa2ffed5c>
    1278:	13490035 	movtne	r0, #36917	; 0x9035
    127c:	130b0000 	movwne	r0, #45056	; 0xb000
    1280:	03130101 	tsteq	r3, #1073741824	; 0x40000000
    1284:	3a050b08 	bcc	143eac <_start-0xa2ebc154>
    1288:	000b3b0b 	andeq	r3, fp, fp, lsl #22
    128c:	000d0c00 	andeq	r0, sp, r0, lsl #24
    1290:	0b3a0e03 	bleq	e84aa4 <_start-0xa217b55c>
    1294:	13490b3b 	movtne	r0, #39739	; 0x9b3b
    1298:	00000a38 	andeq	r0, r0, r8, lsr sl
    129c:	0b000f0d 	bleq	4ed8 <_start-0xa2ffb128>
    12a0:	0013490b 	andeqs	r4, r3, fp, lsl #18
    12a4:	01010e00 	tsteq	r1, r0, lsl #28
    12a8:	13491301 	movtne	r1, #37633	; 0x9301
    12ac:	210f0000 	mrscs	r0, CPSR
    12b0:	2f134900 	svccs	0x00134900
    12b4:	10000005 	andne	r0, r0, r5
    12b8:	13490021 	movtne	r0, #36897	; 0x9021
    12bc:	2e110000 	wxorcs	wr0, wr1, wr0
    12c0:	3f130101 	svccc	0x00130101
    12c4:	3a0e030c 	bcc	381efc <_start-0xa2c7e104>
    12c8:	270b3b0b 	strcs	r3, [fp, -fp, lsl #22]
    12cc:	1201110c 	andne	r1, r1, #3	; 0x3
    12d0:	000a4001 	andeq	r4, sl, r1
    12d4:	00341200 	eoreqs	r1, r4, r0, lsl #4
    12d8:	0b3a0803 	bleq	e832ec <_start-0xa217cd14>
    12dc:	13490b3b 	movtne	r0, #39739	; 0x9b3b
    12e0:	2e130000 	wxorcs	wr0, wr3, wr0
    12e4:	3f130101 	svccc	0x00130101
    12e8:	3a0e030c 	bcc	381f20 <_start-0xa2c7e0e0>
    12ec:	270b3b0b 	strcs	r3, [fp, -fp, lsl #22]
    12f0:	1113490c 	tstne	r3, ip, lsl #18
    12f4:	40011201 	andmi	r1, r1, r1, lsl #4
    12f8:	1400000a 	strne	r0, [r0], #-10
    12fc:	08030034 	stmeqda	r3, {r2, r4, r5}
    1300:	0b3b0b3a 	bleq	ec3ff0 <_start-0xa213c010>
    1304:	0a021349 	beq	86030 <_start-0xa2f79fd0>
    1308:	05150000 	ldreq	r0, [r5]
    130c:	3a0e0300 	bcc	381f14 <_start-0xa2c7e0ec>
    1310:	490b3b0b 	stmmidb	fp, {r0, r1, r3, r8, r9, fp, ip, sp}
    1314:	000a0213 	andeq	r0, sl, r3, lsl r2
    1318:	00051600 	andeq	r1, r5, r0, lsl #12
    131c:	0b3a0803 	bleq	e83330 <_start-0xa217ccd0>
    1320:	13490b3b 	movtne	r0, #39739	; 0x9b3b
    1324:	00000a02 	andeq	r0, r0, r2, lsl #20
    1328:	03003417 	movweq	r3, #1047	; 0x417
    132c:	3b0b3a08 	blcc	2cfb54 <_start-0xa2d304ac>
    1330:	0213490b 	andeqs	r4, r3, #180224	; 0x2c000
    1334:	18000006 	stmneda	r0, {r1, r2}
    1338:	1301012e 	movwne	r0, #4398	; 0x112e
    133c:	0e030c3f 	mcreq	12, 0, r0, cr3, cr15, {1}
    1340:	0b3b0b3a 	bleq	ec4030 <_start-0xa213bfd0>
    1344:	13490c27 	movtne	r0, #39975	; 0x9c27
    1348:	01120111 	tsteq	r2, r1, lsl r1
    134c:	00000640 	andeq	r0, r0, r0, asr #12
    1350:	03000519 	movweq	r0, #1305	; 0x519
    1354:	3b0b3a0e 	blcc	2cfb94 <_start-0xa2d3046c>
    1358:	0213490b 	andeqs	r4, r3, #180224	; 0x2c000
    135c:	1a000006 	bne	137c <_start-0xa2ffec84>
    1360:	0e030034 	mcreq	0, 0, r0, cr3, cr4, {1}
    1364:	0b3b0b3a 	bleq	ec4054 <_start-0xa213bfac>
    1368:	06021349 	streq	r1, [r2], -r9, asr #6
    136c:	2e1b0000 	wxorcs	wr0, wr11, wr0
    1370:	3f130101 	svccc	0x00130101
    1374:	3a0e030c 	bcc	381fac <_start-0xa2c7e054>
    1378:	270b3b0b 	strcs	r3, [fp, -fp, lsl #22]
    137c:	1201110c 	andne	r1, r1, #3	; 0x3
    1380:	00064001 	andeq	r4, r6, r1
    1384:	00341c00 	eoreqs	r1, r4, r0, lsl #24
    1388:	0b3a0e03 	bleq	e84b9c <_start-0xa217b464>
    138c:	13490b3b 	movtne	r0, #39739	; 0x9b3b
    1390:	211d0000 	tstcs	sp, r0
    1394:	2f134900 	svccs	0x00134900
    1398:	1e00000b 	cdpne	0, 0, cr0, cr0, cr11, {0}
    139c:	0e030034 	mcreq	0, 0, r0, cr3, cr4, {1}
    13a0:	0b3b0b3a 	bleq	ec4090 <_start-0xa213bf70>
    13a4:	0c3f1349 	ldceq	3, cr1, [pc], #-292
    13a8:	00000a02 	andeq	r0, r0, r2, lsl #20
    13ac:	01110100 	tsteq	r1, r0, lsl #2
    13b0:	01120610 	tsteq	r2, r0, lsl r6
    13b4:	0e250111 	mcreq	1, 1, r0, cr5, cr1, {0}
    13b8:	0e030b13 	vmoveq.32	d3[0], r0
    13bc:	24020000 	strcs	r0, [r2]
    13c0:	0b0e0300 	bleq	381fc8 <_start-0xa2c7e038>
    13c4:	000b3e0b 	andeq	r3, fp, fp, lsl #28
    13c8:	00240300 	eoreq	r0, r4, r0, lsl #6
    13cc:	0b0b0803 	bleq	2c33e0 <_start-0xa2d3cc20>
    13d0:	00000b3e 	andeq	r0, r0, lr, lsr fp
    13d4:	03002e04 	movweq	r2, #3588	; 0xe04
    13d8:	3b0b3a0e 	blcc	2cfc18 <_start-0xa2d303e8>
    13dc:	110c270b 	tstne	ip, fp, lsl #14
    13e0:	40011201 	andmi	r1, r1, r1, lsl #4
    13e4:	0500000a 	streq	r0, [r0, #-10]
    13e8:	1301012e 	movwne	r0, #4398	; 0x112e
    13ec:	0e030c3f 	mcreq	12, 0, r0, cr3, cr15, {1}
    13f0:	0b3b0b3a 	bleq	ec40e0 <_start-0xa213bf20>
    13f4:	01110c27 	tsteq	r1, r7, lsr #24
    13f8:	0a400112 	beq	1001848 <_start-0xa1ffe7b8>
    13fc:	34060000 	strcc	r0, [r6]
    1400:	3a080300 	bcc	202008 <_start-0xa2dfdff8>
    1404:	490b3b0b 	stmmidb	fp, {r0, r1, r3, r8, r9, fp, ip, sp}
    1408:	000a0213 	andeq	r0, sl, r3, lsl r2
    140c:	000f0700 	andeq	r0, pc, r0, lsl #14
    1410:	13490b0b 	movtne	r0, #39691	; 0x9b0b
    1414:	34080000 	strcc	r0, [r8]
    1418:	3a0e0300 	bcc	382020 <_start-0xa2c7dfe0>
    141c:	490b3b0b 	stmmidb	fp, {r0, r1, r3, r8, r9, fp, ip, sp}
    1420:	3c0c3f13 	stccc	15, cr3, [ip], {19}
    1424:	0000000c 	andeq	r0, r0, ip
    1428:	10001101 	andne	r1, r0, r1, lsl #2
    142c:	12011106 	andne	r1, r1, #-2147483647	; 0x80000001
    1430:	1b080301 	blne	20203c <_start-0xa2dfdfc4>
    1434:	13082508 	movwne	r2, #34056	; 0x8508
    1438:	00000005 	andeq	r0, r0, r5
    143c:	10001101 	andne	r1, r0, r1, lsl #2
    1440:	12011106 	andne	r1, r1, #-2147483647	; 0x80000001
    1444:	1b080301 	blne	202050 <_start-0xa2dfdfb0>
    1448:	13082508 	movwne	r2, #34056	; 0x8508
    144c:	00000005 	andeq	r0, r0, r5
    1450:	10001101 	andne	r1, r0, r1, lsl #2
    1454:	12011106 	andne	r1, r1, #-2147483647	; 0x80000001
    1458:	1b080301 	blne	202064 <_start-0xa2dfdf9c>
    145c:	13082508 	movwne	r2, #34056	; 0x8508
    1460:	00000005 	andeq	r0, r0, r5
Disassembly of section .debug_line:

00000000 <.debug_line>:
       0:	00000171 	andeq	r0, r0, r1, ror r1
       4:	01520002 	cmpeq	r2, r2
       8:	01020000 	tsteq	r2, r0
       c:	000d0efb 	streqd	r0, [sp], -fp
      10:	01010101 	tsteq	r1, r1, lsl #2
      14:	01000000 	tsteq	r0, r0
      18:	2f010000 	svccs	0x00010000
      1c:	656d6f68 	strvsb	r6, [sp, #-3944]!
      20:	736f792f 	cmnvc	pc, #770048	; 0xbc000
      24:	6b616968 	blvs	185a5cc <_start-0xa17a5a34>
      28:	72442f69 	subvc	r2, r4, #420	; 0x1a4
      2c:	6f62706f 	svcvs	0x0062706f
      30:	6f442f78 	svcvs	0x00442f78
      34:	656d7563 	strvsb	r7, [sp, #-1379]!
      38:	2f73746e 	svccs	0x0073746e
      3c:	2f554d43 	svccs	0x00554d43
      40:	73616c63 	cmnvc	r1, #25344	; 0x6300
      44:	30322f73 	eorccs	r2, r2, r3, ror pc
      48:	465f3331 	undefined
      4c:	2f6c6c61 	svccs	0x006c6c61
      50:	332d3831 	teqcc	sp, #3211264	; 0x310000
      54:	4c2f3234 	sfmmi	f3, 4, [pc], #-208
      58:	6e2f6261 	cdpvs	2, 2, cr6, cr15, cr1, {3}
      5c:	616d726f 	cmnvs	sp, pc, ror #4
      60:	616c2f6e 	cmnvs	ip, lr, ror #30
      64:	6b2f3462 	blvs	bcd1f4 <_start-0xa2432e0c>
      68:	656e7265 	strvsb	r7, [lr, #-613]!
      6c:	682f006c 	stmvsda	pc!, {r2, r3, r5, r6}
      70:	2f656d6f 	svccs	0x00656d6f
      74:	68736f79 	ldmvsda	r3!, {r0, r3, r4, r5, r6, r8, r9, sl, fp, sp, lr}^
      78:	696b6169 	stmvsdb	fp!, {r0, r3, r5, r6, r8, sp, lr}^
      7c:	6f72442f 	svcvs	0x0072442f
      80:	786f6270 	stmvcda	pc!, {r4, r5, r6, r9, sp, lr}^
      84:	636f442f 	cmnvs	pc, #788529152	; 0x2f000000
      88:	6e656d75 	mcrvs	13, 3, r6, cr5, cr5, {3}
      8c:	432f7374 	teqmi	pc, #-805306367	; 0xd0000001
      90:	632f554d 	teqvs	pc, #322961408	; 0x13400000
      94:	7373616c 	cmnvc	r3, #27	; 0x1b
      98:	3130322f 	teqcc	r0, pc, lsr #4
      9c:	61465f33 	cmpvs	r6, r3, lsr pc
      a0:	312f6c6c 	teqcc	pc, ip, ror #24
      a4:	34332d38 	ldrcct	r2, [r3], #-3384
      a8:	614c2f32 	cmpvs	ip, r2, lsr pc
      ac:	6f6e2f62 	svcvs	0x006e2f62
      b0:	6e616d72 	mcrvs	13, 3, r6, cr1, cr2, {3}
      b4:	62616c2f 	rsbvs	r6, r1, #12032	; 0x2f00
      b8:	656b2f34 	strvsb	r2, [fp, #-3892]!
      bc:	6c656e72 	stcvsl	14, cr6, [r5], #-456
      c0:	636e692f 	cmnvs	lr, #770048	; 0xbc000
      c4:	6564756c 	strvsb	r7, [r4, #-1388]!
      c8:	6d72612f 	ldfvse	f6, [r2, #-188]!
      cc:	6f682f00 	svcvs	0x00682f00
      d0:	792f656d 	stmvcdb	pc!, {r0, r2, r3, r5, r6, r8, sl, sp, lr}
      d4:	6968736f 	stmvsdb	r8!, {r0, r1, r2, r3, r5, r6, r8, r9, ip, sp, lr}^
      d8:	2f696b61 	svccs	0x00696b61
      dc:	706f7244 	rsbvc	r7, pc, r4, asr #4
      e0:	2f786f62 	svccs	0x00786f62
      e4:	75636f44 	strvcb	r6, [r3, #-3908]!
      e8:	746e656d 	strvcbt	r6, [lr], #-1389
      ec:	4d432f73 	stcmil	15, cr2, [r3, #-460]
      f0:	6c632f55 	stcvsl	15, cr2, [r3], #-340
      f4:	2f737361 	svccs	0x00737361
      f8:	33313032 	teqcc	r1, #50	; 0x32
      fc:	6c61465f 	stcvsl	6, cr4, [r1], #-380
     100:	38312f6c 	ldmccda	r1!, {r2, r3, r5, r6, r8, r9, sl, fp, sp}
     104:	3234332d 	eorccs	r3, r4, #-1275068416	; 0xb4000000
     108:	62614c2f 	rsbvs	r4, r1, #12032	; 0x2f00
     10c:	726f6e2f 	rsbvc	r6, pc, #752	; 0x2f0
     110:	2f6e616d 	svccs	0x006e616d
     114:	3462616c 	strccbt	r6, [r2], #-364
     118:	72656b2f 	rsbvc	r6, r5, #48128	; 0xbc00
     11c:	2f6c656e 	svccs	0x006c656e
     120:	6c636e69 	stcvsl	14, cr6, [r3], #-420
     124:	00656475 	rsbeq	r6, r5, r5, ror r4
     128:	73736100 	cmnvc	r3, #0	; 0x0
     12c:	2e747265 	cdpcs	2, 7, cr7, cr4, cr5, {3}
     130:	00010063 	andeq	r0, r1, r3, rrx
     134:	63786500 	cmnvs	r8, #0	; 0x0
     138:	69747065 	ldmvsdb	r4!, {r0, r2, r5, r6, ip, sp, lr}^
     13c:	682e6e6f 	stmvsda	lr!, {r0, r1, r2, r3, r5, r6, r9, sl, fp, sp, lr}
     140:	00000200 	andeq	r0, r0, r0, lsl #4
     144:	65707974 	ldrvsb	r7, [r0, #-2420]!
     148:	00682e73 	rsbeq	r2, r8, r3, ror lr
     14c:	73000003 	movwvc	r0, #3	; 0x3
     150:	72616474 	rsbvc	r6, r1, #1946157056	; 0x74000000
     154:	00682e67 	rsbeq	r2, r8, r7, ror #28
     158:	00000003 	andeq	r0, r0, r3
     15c:	08020500 	stmeqda	r2, {r8, sl}
     160:	03a30000 	moveq	r0, #0	; 0x0
     164:	314d0110 	cmpcc	sp, r0, lsl r1
     168:	0204312b 	andeq	r3, r4, #-1073741814	; 0xc000000a
     16c:	302e2a03 	eorcc	r2, lr, r3, lsl #20
     170:	01000802 	tsteq	r0, r2, lsl #16
     174:	0001ce01 	andeq	ip, r1, r1, lsl #28
     178:	64000200 	strvs	r0, [r0], #-512
     17c:	02000001 	andeq	r0, r0, #1	; 0x1
     180:	0d0efb01 	vstreq	d15, [lr, #-4]
     184:	01010100 	tsteq	r1, r0, lsl #2
     188:	00000001 	andeq	r0, r0, r1
     18c:	01000001 	tsteq	r0, r1
     190:	6d6f682f 	stcvsl	8, cr6, [pc, #-188]!
     194:	6f792f65 	svcvs	0x00792f65
     198:	61696873 	smcvs	38531
     19c:	442f696b 	strmit	r6, [pc], #2411	; 1a4 <_start-0xa2fffe5c>
     1a0:	62706f72 	rsbvss	r6, r0, #456	; 0x1c8
     1a4:	442f786f 	strmit	r7, [pc], #2159	; 1ac <_start-0xa2fffe54>
     1a8:	6d75636f 	ldcvsl	3, cr6, [r5, #-444]!
     1ac:	73746e65 	cmnvc	r4, #1616	; 0x650
     1b0:	554d432f 	strplb	r4, [sp, #-815]
     1b4:	616c632f 	cmnvs	ip, pc, lsr #6
     1b8:	322f7373 	eorcc	r7, pc, #-872415231	; 0xcc000001
     1bc:	5f333130 	svcpl	0x00333130
     1c0:	6c6c6146 	stfvse	f6, [ip], #-280
     1c4:	2d38312f 	ldfcss	f3, [r8, #-188]!
     1c8:	2f323433 	svccs	0x00323433
     1cc:	2f62614c 	svccs	0x0062614c
     1d0:	6d726f6e 	ldcvsl	15, cr6, [r2, #-440]!
     1d4:	6c2f6e61 	stcvs	14, cr6, [pc], #-388
     1d8:	2f346261 	svccs	0x00346261
     1dc:	6e72656b 	cdpvs	5, 7, cr6, cr2, cr11, {3}
     1e0:	2f006c65 	svccs	0x00006c65
     1e4:	656d6f68 	strvsb	r6, [sp, #-3944]!
     1e8:	736f792f 	cmnvc	pc, #770048	; 0xbc000
     1ec:	6b616968 	blvs	185a794 <_start-0xa17a586c>
     1f0:	72442f69 	subvc	r2, r4, #420	; 0x1a4
     1f4:	6f62706f 	svcvs	0x0062706f
     1f8:	6f442f78 	svcvs	0x00442f78
     1fc:	656d7563 	strvsb	r7, [sp, #-1379]!
     200:	2f73746e 	svccs	0x0073746e
     204:	2f554d43 	svccs	0x00554d43
     208:	73616c63 	cmnvc	r1, #25344	; 0x6300
     20c:	30322f73 	eorccs	r2, r2, r3, ror pc
     210:	465f3331 	undefined
     214:	2f6c6c61 	svccs	0x006c6c61
     218:	332d3831 	teqcc	sp, #3211264	; 0x310000
     21c:	4c2f3234 	sfmmi	f3, 4, [pc], #-208
     220:	6e2f6261 	cdpvs	2, 2, cr6, cr15, cr1, {3}
     224:	616d726f 	cmnvs	sp, pc, ror #4
     228:	616c2f6e 	cmnvs	ip, lr, ror #30
     22c:	6b2f3462 	blvs	bcd3bc <_start-0xa2432c44>
     230:	656e7265 	strvsb	r7, [lr, #-613]!
     234:	6e692f6c 	cdpvs	15, 6, cr2, cr9, cr12, {3}
     238:	64756c63 	ldrvsbt	r6, [r5], #-3171
     23c:	72612f65 	rsbvc	r2, r1, #404	; 0x194
     240:	682f006d 	stmvsda	pc!, {r0, r2, r3, r5, r6}
     244:	2f656d6f 	svccs	0x00656d6f
     248:	68736f79 	ldmvsda	r3!, {r0, r3, r4, r5, r6, r8, r9, sl, fp, sp, lr}^
     24c:	696b6169 	stmvsdb	fp!, {r0, r3, r5, r6, r8, sp, lr}^
     250:	6f72442f 	svcvs	0x0072442f
     254:	786f6270 	stmvcda	pc!, {r4, r5, r6, r9, sp, lr}^
     258:	636f442f 	cmnvs	pc, #788529152	; 0x2f000000
     25c:	6e656d75 	mcrvs	13, 3, r6, cr5, cr5, {3}
     260:	432f7374 	teqmi	pc, #-805306367	; 0xd0000001
     264:	632f554d 	teqvs	pc, #322961408	; 0x13400000
     268:	7373616c 	cmnvc	r3, #27	; 0x1b
     26c:	3130322f 	teqcc	r0, pc, lsr #4
     270:	61465f33 	cmpvs	r6, r3, lsr pc
     274:	312f6c6c 	teqcc	pc, ip, ror #24
     278:	34332d38 	ldrcct	r2, [r3], #-3384
     27c:	614c2f32 	cmpvs	ip, r2, lsr pc
     280:	6f6e2f62 	svcvs	0x006e2f62
     284:	6e616d72 	mcrvs	13, 3, r6, cr1, cr2, {3}
     288:	62616c2f 	rsbvs	r6, r1, #12032	; 0x2f00
     28c:	656b2f34 	strvsb	r2, [fp, #-3892]!
     290:	6c656e72 	stcvsl	14, cr6, [r5], #-456
     294:	636e692f 	cmnvs	lr, #770048	; 0xbc000
     298:	6564756c 	strvsb	r7, [r4, #-1388]!
     29c:	616d0000 	cmnvs	sp, r0
     2a0:	632e6e69 	teqvs	lr, #1680	; 0x690
     2a4:	00000100 	andeq	r0, r0, r0, lsl #2
     2a8:	2e676572 	mcrcs	5, 3, r6, cr7, cr2, {3}
     2ac:	00020068 	andeq	r0, r2, r8, rrx
     2b0:	63786500 	cmnvs	r8, #0	; 0x0
     2b4:	69747065 	ldmvsdb	r4!, {r0, r2, r5, r6, ip, sp, lr}^
     2b8:	682e6e6f 	stmvsda	lr!, {r0, r1, r2, r3, r5, r6, r9, sl, fp, sp, lr}
     2bc:	00000200 	andeq	r0, r0, r0, lsl #4
     2c0:	65707974 	ldrvsb	r7, [r0, #-2420]!
     2c4:	00682e73 	rsbeq	r2, r8, r3, ror lr
     2c8:	74000003 	strvc	r0, [r0], #-3
     2cc:	2e6b7361 	cdpcs	3, 6, cr7, cr11, cr1, {3}
     2d0:	00030068 	andeq	r0, r3, r8, rrx
     2d4:	6f6c6700 	svcvs	0x006c6700
     2d8:	736c6162 	cmnvc	ip, #-2147483624	; 0x80000018
     2dc:	0100682e 	tsteq	r0, lr, lsr #16
     2e0:	00000000 	andeq	r0, r0, r0
     2e4:	00340205 	eoreqs	r0, r4, r5, lsl #4
     2e8:	de03a300 	cdple	3, 0, cr10, cr3, cr0, {0}
     2ec:	032f0100 	teqeq	pc, #0	; 0x0
     2f0:	17032e77 	smlsdxne	r3, r7, lr, r2
     2f4:	2e72032e 	cdpcs	3, 7, cr0, cr2, cr14, {1}
     2f8:	034a0e03 	movteq	r0, #44547	; 0xae03
     2fc:	09032e69 	stmeqdb	r3, {r0, r3, r5, r6, r9, sl, fp, sp}
     300:	4a0e032e 	bmi	380fc0 <_start-0xa2c7f040>
     304:	032e7203 	teqeq	lr, #805306368	; 0x30000000
     308:	302c2e10 	eorcc	r2, ip, r0, lsl lr
     30c:	2f2d2f30 	svccs	0x002d2f30
     310:	2f4c684b 	svccs	0x004c684b
     314:	6e4b2f2d 	cdpvs	15, 4, cr2, cr11, cr13, {1}
     318:	0336492f 	teqeq	r6, #770048	; 0xbc000
     31c:	58087fa7 	stmplda	r8, {r0, r1, r2, r5, r7, r8, r9, sl, fp, ip, sp, lr}
     320:	302f304a 	eorcc	r3, pc, sl, asr #32
     324:	302f3048 	eorcc	r3, pc, r8, asr #32
     328:	4d2f3048 	stcmi	0, cr3, [pc, #-288]!
     32c:	5c030204 	sfmpl	f0, 4, [r3], {4}
     330:	0301042e 	movweq	r0, #5166	; 0x142e
     334:	302f822c 	eorcc	r8, pc, ip, lsr #4
     338:	79030304 	stmvcdb	r3, {r2, r8, r9}
     33c:	0104304a 	tsteq	r4, sl, asr #32
     340:	0e023251 	mcreq	2, 0, r3, cr2, cr1, {2}
     344:	f6010100 	undefined instruction 0xf6010100
     348:	02000000 	andeq	r0, r0, #0	; 0x0
     34c:	0000d600 	andeq	sp, r0, r0, lsl #12
     350:	fb010200 	blx	40b5a <_start-0xa2fbf4a6>
     354:	01000d0e 	tsteq	r0, lr, lsl #26
     358:	00010101 	andeq	r0, r1, r1, lsl #2
     35c:	00010000 	andeq	r0, r1, r0
     360:	682f0100 	stmvsda	pc!, {r8}
     364:	2f656d6f 	svccs	0x00656d6f
     368:	68736f79 	ldmvsda	r3!, {r0, r3, r4, r5, r6, r8, r9, sl, fp, sp, lr}^
     36c:	696b6169 	stmvsdb	fp!, {r0, r3, r5, r6, r8, sp, lr}^
     370:	6f72442f 	svcvs	0x0072442f
     374:	786f6270 	stmvcda	pc!, {r4, r5, r6, r9, sp, lr}^
     378:	636f442f 	cmnvs	pc, #788529152	; 0x2f000000
     37c:	6e656d75 	mcrvs	13, 3, r6, cr5, cr5, {3}
     380:	432f7374 	teqmi	pc, #-805306367	; 0xd0000001
     384:	632f554d 	teqvs	pc, #322961408	; 0x13400000
     388:	7373616c 	cmnvc	r3, #27	; 0x1b
     38c:	3130322f 	teqcc	r0, pc, lsr #4
     390:	61465f33 	cmpvs	r6, r3, lsr pc
     394:	312f6c6c 	teqcc	pc, ip, ror #24
     398:	34332d38 	ldrcct	r2, [r3], #-3384
     39c:	614c2f32 	cmpvs	ip, r2, lsr pc
     3a0:	6f6e2f62 	svcvs	0x006e2f62
     3a4:	6e616d72 	mcrvs	13, 3, r6, cr1, cr2, {3}
     3a8:	62616c2f 	rsbvs	r6, r1, #12032	; 0x2f00
     3ac:	656b2f34 	strvsb	r2, [fp, #-3892]!
     3b0:	6c656e72 	stcvsl	14, cr6, [r5], #-456
     3b4:	6f682f00 	svcvs	0x00682f00
     3b8:	792f656d 	stmvcdb	pc!, {r0, r2, r3, r5, r6, r8, sl, sp, lr}
     3bc:	6968736f 	stmvsdb	r8!, {r0, r1, r2, r3, r5, r6, r8, r9, ip, sp, lr}^
     3c0:	2f696b61 	svccs	0x00696b61
     3c4:	706f7244 	rsbvc	r7, pc, r4, asr #4
     3c8:	2f786f62 	svccs	0x00786f62
     3cc:	75636f44 	strvcb	r6, [r3, #-3908]!
     3d0:	746e656d 	strvcbt	r6, [lr], #-1389
     3d4:	4d432f73 	stcmil	15, cr2, [r3, #-460]
     3d8:	6c632f55 	stcvsl	15, cr2, [r3], #-340
     3dc:	2f737361 	svccs	0x00737361
     3e0:	33313032 	teqcc	r1, #50	; 0x32
     3e4:	6c61465f 	stcvsl	6, cr4, [r1], #-380
     3e8:	38312f6c 	ldmccda	r1!, {r2, r3, r5, r6, r8, r9, sl, fp, sp}
     3ec:	3234332d 	eorccs	r3, r4, #-1275068416	; 0xb4000000
     3f0:	62614c2f 	rsbvs	r4, r1, #12032	; 0x2f00
     3f4:	726f6e2f 	rsbvc	r6, pc, #752	; 0x2f0
     3f8:	2f6e616d 	svccs	0x006e616d
     3fc:	3462616c 	strccbt	r6, [r2], #-364
     400:	72656b2f 	rsbvc	r6, r5, #48128	; 0xbc00
     404:	2f6c656e 	svccs	0x006c656e
     408:	6c636e69 	stcvsl	14, cr6, [r3], #-420
     40c:	00656475 	rsbeq	r6, r5, r5, ror r4
     410:	74616d00 	strvcbt	r6, [r1], #-3328
     414:	00632e68 	rsbeq	r2, r3, r8, ror #28
     418:	74000001 	strvc	r0, [r0], #-1
     41c:	73657079 	cmnvc	r5, #121	; 0x79
     420:	0200682e 	andeq	r6, r0, #3014656	; 0x2e0000
     424:	00000000 	andeq	r0, r0, r0
     428:	01840205 	orreq	r0, r4, r5, lsl #4
     42c:	1903a300 	stmnedb	r3, {r8, r9, sp, pc}
     430:	2f2d6c01 	svccs	0x002d6c01
     434:	12034e2d 	andne	r4, r3, #720	; 0x2d0
     438:	4e2d4e4a 	cdpmi	14, 2, cr4, cr13, cr10, {2}
     43c:	01000402 	tsteq	r0, r2, lsl #8
     440:	0000f301 	andeq	pc, r0, r1, lsl #6
     444:	da000200 	ble	c4c <_start-0xa2fff3b4>
     448:	02000000 	andeq	r0, r0, #0	; 0x0
     44c:	0d0efb01 	vstreq	d15, [lr, #-4]
     450:	01010100 	tsteq	r1, r0, lsl #2
     454:	00000001 	andeq	r0, r0, r1
     458:	01000001 	tsteq	r0, r1
     45c:	6d6f682f 	stcvsl	8, cr6, [pc, #-188]!
     460:	6f792f65 	svcvs	0x00792f65
     464:	61696873 	smcvs	38531
     468:	442f696b 	strmit	r6, [pc], #2411	; 470 <_start-0xa2fffb90>
     46c:	62706f72 	rsbvss	r6, r0, #456	; 0x1c8
     470:	442f786f 	strmit	r7, [pc], #2159	; 478 <_start-0xa2fffb88>
     474:	6d75636f 	ldcvsl	3, cr6, [r5, #-444]!
     478:	73746e65 	cmnvc	r4, #1616	; 0x650
     47c:	554d432f 	strplb	r4, [sp, #-815]
     480:	616c632f 	cmnvs	ip, pc, lsr #6
     484:	322f7373 	eorcc	r7, pc, #-872415231	; 0xcc000001
     488:	5f333130 	svcpl	0x00333130
     48c:	6c6c6146 	stfvse	f6, [ip], #-280
     490:	2d38312f 	ldfcss	f3, [r8, #-188]!
     494:	2f323433 	svccs	0x00323433
     498:	2f62614c 	svccs	0x0062614c
     49c:	6d726f6e 	ldcvsl	15, cr6, [r2, #-440]!
     4a0:	6c2f6e61 	stcvs	14, cr6, [pc], #-388
     4a4:	2f346261 	svccs	0x00346261
     4a8:	6e72656b 	cdpvs	5, 7, cr6, cr2, cr11, {3}
     4ac:	2f006c65 	svccs	0x00006c65
     4b0:	656d6f68 	strvsb	r6, [sp, #-3944]!
     4b4:	736f792f 	cmnvc	pc, #770048	; 0xbc000
     4b8:	6b616968 	blvs	185aa60 <_start-0xa17a55a0>
     4bc:	72442f69 	subvc	r2, r4, #420	; 0x1a4
     4c0:	6f62706f 	svcvs	0x0062706f
     4c4:	6f442f78 	svcvs	0x00442f78
     4c8:	656d7563 	strvsb	r7, [sp, #-1379]!
     4cc:	2f73746e 	svccs	0x0073746e
     4d0:	2f554d43 	svccs	0x00554d43
     4d4:	73616c63 	cmnvc	r1, #25344	; 0x6300
     4d8:	30322f73 	eorccs	r2, r2, r3, ror pc
     4dc:	465f3331 	undefined
     4e0:	2f6c6c61 	svccs	0x006c6c61
     4e4:	332d3831 	teqcc	sp, #3211264	; 0x310000
     4e8:	4c2f3234 	sfmmi	f3, 4, [pc], #-208
     4ec:	6e2f6261 	cdpvs	2, 2, cr6, cr15, cr1, {3}
     4f0:	616d726f 	cmnvs	sp, pc, ror #4
     4f4:	616c2f6e 	cmnvs	ip, lr, ror #30
     4f8:	6b2f3462 	blvs	bcd688 <_start-0xa2432978>
     4fc:	656e7265 	strvsb	r7, [lr, #-613]!
     500:	6e692f6c 	cdpvs	15, 6, cr2, cr9, cr12, {3}
     504:	64756c63 	ldrvsbt	r6, [r5], #-3171
     508:	6d000065 	stcvs	0, cr0, [r0, #-404]
     50c:	68636d65 	stmvsda	r3!, {r0, r2, r5, r6, r8, sl, fp, sp, lr}^
     510:	2e6b6365 	cdpcs	3, 6, cr6, cr11, cr5, {3}
     514:	00010063 	andeq	r0, r1, r3, rrx
     518:	70797400 	rsbvcs	r7, r9, r0, lsl #8
     51c:	682e7365 	stmvsda	lr!, {r0, r2, r5, r6, r8, r9, ip, sp, lr}
     520:	00000200 	andeq	r0, r0, r0, lsl #4
     524:	02050000 	andeq	r0, r5, #0	; 0x0
     528:	a30001c8 	movwge	r0, #456	; 0x1c8
     52c:	32011803 	andcc	r1, r1, #196608	; 0x30000
     530:	02be4dba 	adceqs	r4, lr, #11904	; 0x2e80
     534:	01010004 	tsteq	r1, r4
     538:	00000087 	andeq	r0, r0, r7, lsl #1
     53c:	00710002 	rsbeqs	r0, r1, r2
     540:	01020000 	tsteq	r2, r0
     544:	000d0efb 	streqd	r0, [sp], -fp
     548:	01010101 	tsteq	r1, r1, lsl #2
     54c:	01000000 	tsteq	r0, r0
     550:	2f010000 	svccs	0x00010000
     554:	656d6f68 	strvsb	r6, [sp, #-3944]!
     558:	736f792f 	cmnvc	pc, #770048	; 0xbc000
     55c:	6b616968 	blvs	185ab04 <_start-0xa17a54fc>
     560:	72442f69 	subvc	r2, r4, #420	; 0x1a4
     564:	6f62706f 	svcvs	0x0062706f
     568:	6f442f78 	svcvs	0x00442f78
     56c:	656d7563 	strvsb	r7, [sp, #-1379]!
     570:	2f73746e 	svccs	0x0073746e
     574:	2f554d43 	svccs	0x00554d43
     578:	73616c63 	cmnvc	r1, #25344	; 0x6300
     57c:	30322f73 	eorccs	r2, r2, r3, ror pc
     580:	465f3331 	undefined
     584:	2f6c6c61 	svccs	0x006c6c61
     588:	332d3831 	teqcc	sp, #3211264	; 0x310000
     58c:	4c2f3234 	sfmmi	f3, 4, [pc], #-208
     590:	6e2f6261 	cdpvs	2, 2, cr6, cr15, cr1, {3}
     594:	616d726f 	cmnvs	sp, pc, ror #4
     598:	616c2f6e 	cmnvs	ip, lr, ror #30
     59c:	6b2f3462 	blvs	bcd72c <_start-0xa24328d4>
     5a0:	656e7265 	strvsb	r7, [lr, #-613]!
     5a4:	7200006c 	andvc	r0, r0, #108	; 0x6c
     5a8:	65736961 	ldrvsb	r6, [r3, #-2401]!
     5ac:	0100632e 	tsteq	r0, lr, lsr #6
     5b0:	00000000 	andeq	r0, r0, r0
     5b4:	020c0205 	andeq	r0, ip, #1342177280	; 0x50000000
     5b8:	0b03a300 	bleq	e91c0 <_start-0xa2f16e40>
     5bc:	08022f01 	stmeqda	r2, {r0, r8, r9, sl, fp, sp}
     5c0:	c0010100 	andgt	r0, r1, r0, lsl #2
     5c4:	02000000 	andeq	r0, r0, #0	; 0x0
     5c8:	00007900 	andeq	r7, r0, r0, lsl #18
     5cc:	fb010200 	blx	40dd6 <_start-0xa2fbf22a>
     5d0:	01000d0e 	tsteq	r0, lr, lsl #26
     5d4:	00010101 	andeq	r0, r1, r1, lsl #2
     5d8:	00010000 	andeq	r0, r1, r0
     5dc:	682f0100 	stmvsda	pc!, {r8}
     5e0:	2f656d6f 	svccs	0x00656d6f
     5e4:	68736f79 	ldmvsda	r3!, {r0, r3, r4, r5, r6, r8, r9, sl, fp, sp, lr}^
     5e8:	696b6169 	stmvsdb	fp!, {r0, r3, r5, r6, r8, sp, lr}^
     5ec:	6f72442f 	svcvs	0x0072442f
     5f0:	786f6270 	stmvcda	pc!, {r4, r5, r6, r9, sp, lr}^
     5f4:	636f442f 	cmnvs	pc, #788529152	; 0x2f000000
     5f8:	6e656d75 	mcrvs	13, 3, r6, cr5, cr5, {3}
     5fc:	432f7374 	teqmi	pc, #-805306367	; 0xd0000001
     600:	632f554d 	teqvs	pc, #322961408	; 0x13400000
     604:	7373616c 	cmnvc	r3, #27	; 0x1b
     608:	3130322f 	teqcc	r0, pc, lsr #4
     60c:	61465f33 	cmpvs	r6, r3, lsr pc
     610:	312f6c6c 	teqcc	pc, ip, ror #24
     614:	34332d38 	ldrcct	r2, [r3], #-3384
     618:	614c2f32 	cmpvs	ip, r2, lsr pc
     61c:	6f6e2f62 	svcvs	0x006e2f62
     620:	6e616d72 	mcrvs	13, 3, r6, cr1, cr2, {3}
     624:	62616c2f 	rsbvs	r6, r1, #12032	; 0x2f00
     628:	656b2f34 	strvsb	r2, [fp, #-3892]!
     62c:	6c656e72 	stcvsl	14, cr6, [r5], #-456
     630:	636e692f 	cmnvs	lr, #770048	; 0xbc000
     634:	6564756c 	strvsb	r7, [r4, #-1388]!
     638:	74630000 	strvcbt	r0, [r3]
     63c:	2e657079 	mcrcs	0, 3, r7, cr5, cr9, {3}
     640:	00010068 	andeq	r0, r1, r8, rrx
     644:	05000000 	streq	r0, [r0]
     648:	00022002 	andeq	r2, r2, r2
     64c:	011003a3 	tsteq	r0, r3, lsr #7
     650:	66303166 	ldrvst	r3, [r0], -r6, ror #2
     654:	31663031 	cmncc	r6, r1, lsr r0
     658:	30316630 	eorccs	r6, r1, r0, lsr r6
     65c:	66303166 	ldrvst	r3, [r0], -r6, ror #2
     660:	3e084a32 	mcrcc	10, 0, r4, cr8, cr2, {1}
     664:	03663031 	cmneq	r6, #49	; 0x31
     668:	bb4a2e0b 	bllt	128be9c <_start-0xa1d74164>
     66c:	f32f2e4d 	vcgt.f32	q1, <illegal reg q7.5>, <illegal reg q6.5>
     670:	672e0e03 	strvs	r0, [lr, -r3, lsl #28]!
     674:	4a2e6403 	bmi	b99688 <_start-0xa2466978>
     678:	0e033f08 	cdpeq	15, 0, cr3, cr3, cr8, {0}
     67c:	9f2f492e 	svcls	0x002f492e
     680:	0202674e 	andeq	r6, r2, #20447232	; 0x1380000
     684:	1c010100 	stfnes	f0, [r1], {0}
     688:	02000001 	andeq	r0, r0, #1	; 0x1
     68c:	0000e400 	andeq	lr, r0, r0, lsl #8
     690:	fb010200 	blx	40e9a <_start-0xa2fbf166>
     694:	01000d0e 	tsteq	r0, lr, lsl #26
     698:	00010101 	andeq	r0, r1, r1, lsl #2
     69c:	00010000 	andeq	r0, r1, r0
     6a0:	682f0100 	stmvsda	pc!, {r8}
     6a4:	2f656d6f 	svccs	0x00656d6f
     6a8:	68736f79 	ldmvsda	r3!, {r0, r3, r4, r5, r6, r8, r9, sl, fp, sp, lr}^
     6ac:	696b6169 	stmvsdb	fp!, {r0, r3, r5, r6, r8, sp, lr}^
     6b0:	6f72442f 	svcvs	0x0072442f
     6b4:	786f6270 	stmvcda	pc!, {r4, r5, r6, r9, sp, lr}^
     6b8:	636f442f 	cmnvs	pc, #788529152	; 0x2f000000
     6bc:	6e656d75 	mcrvs	13, 3, r6, cr5, cr5, {3}
     6c0:	432f7374 	teqmi	pc, #-805306367	; 0xd0000001
     6c4:	632f554d 	teqvs	pc, #322961408	; 0x13400000
     6c8:	7373616c 	cmnvc	r3, #27	; 0x1b
     6cc:	3130322f 	teqcc	r0, pc, lsr #4
     6d0:	61465f33 	cmpvs	r6, r3, lsr pc
     6d4:	312f6c6c 	teqcc	pc, ip, ror #24
     6d8:	34332d38 	ldrcct	r2, [r3], #-3384
     6dc:	614c2f32 	cmpvs	ip, r2, lsr pc
     6e0:	6f6e2f62 	svcvs	0x006e2f62
     6e4:	6e616d72 	mcrvs	13, 3, r6, cr1, cr2, {3}
     6e8:	62616c2f 	rsbvs	r6, r1, #12032	; 0x2f00
     6ec:	656b2f34 	strvsb	r2, [fp, #-3892]!
     6f0:	6c656e72 	stcvsl	14, cr6, [r5], #-456
     6f4:	6f682f00 	svcvs	0x00682f00
     6f8:	792f656d 	stmvcdb	pc!, {r0, r2, r3, r5, r6, r8, sl, sp, lr}
     6fc:	6968736f 	stmvsdb	r8!, {r0, r1, r2, r3, r5, r6, r8, r9, ip, sp, lr}^
     700:	2f696b61 	svccs	0x00696b61
     704:	706f7244 	rsbvc	r7, pc, r4, asr #4
     708:	2f786f62 	svccs	0x00786f62
     70c:	75636f44 	strvcb	r6, [r3, #-3908]!
     710:	746e656d 	strvcbt	r6, [lr], #-1389
     714:	4d432f73 	stcmil	15, cr2, [r3, #-460]
     718:	6c632f55 	stcvsl	15, cr2, [r3], #-340
     71c:	2f737361 	svccs	0x00737361
     720:	33313032 	teqcc	r1, #50	; 0x32
     724:	6c61465f 	stcvsl	6, cr4, [r1], #-380
     728:	38312f6c 	ldmccda	r1!, {r2, r3, r5, r6, r8, r9, sl, fp, sp}
     72c:	3234332d 	eorccs	r3, r4, #-1275068416	; 0xb4000000
     730:	62614c2f 	rsbvs	r4, r1, #12032	; 0x2f00
     734:	726f6e2f 	rsbvc	r6, pc, #752	; 0x2f0
     738:	2f6e616d 	svccs	0x006e616d
     73c:	3462616c 	strccbt	r6, [r2], #-364
     740:	72656b2f 	rsbvc	r6, r5, #48128	; 0xbc00
     744:	2f6c656e 	svccs	0x006c656e
     748:	6c636e69 	stcvsl	14, cr6, [r3], #-420
     74c:	00656475 	rsbeq	r6, r5, r5, ror r4
     750:	78656800 	stmvcda	r5!, {fp, sp, lr}^
     754:	706d7564 	rsbvc	r7, sp, r4, ror #10
     758:	0100632e 	tsteq	r0, lr, lsr #6
     75c:	74630000 	strvcbt	r0, [r3]
     760:	2e657079 	mcrcs	0, 3, r7, cr5, cr9, {3}
     764:	00020068 	andeq	r0, r2, r8, rrx
     768:	70797400 	rsbvcs	r7, r9, r0, lsl #8
     76c:	682e7365 	stmvsda	lr!, {r0, r2, r5, r6, r8, r9, ip, sp, lr}
     770:	00000200 	andeq	r0, r0, r0, lsl #4
     774:	02050000 	andeq	r0, r5, #0	; 0x0
     778:	a30003ac 	movwge	r0, #940	; 0x3ac
     77c:	2e012c03 	cdpcs	12, 0, cr2, cr1, cr3, {0}
     780:	68322a32 	ldmvsda	r2!, {r1, r4, r5, r9, fp, sp}
     784:	2f2f4ba0 	svccs	0x002f4ba0
     788:	034c2f2d 	movteq	r2, #53037	; 0xcf2d
     78c:	2c68667a 	stccsl	6, cr6, [r8], #-488
     790:	842e0903 	strhit	r0, [lr], #-2307
     794:	68d24c4b 	ldmvsia	r2, {r0, r1, r3, r6, sl, fp, lr}^
     798:	6f03332c 	svcvs	0x0003332c
     79c:	4a130366 	bmi	4c153c <_start-0xa2b3eac4>
     7a0:	14022d2f 	strne	r2, [r2], #-3375
     7a4:	bf010100 	svclt	0x00010100
     7a8:	02000001 	andeq	r0, r0, #1	; 0x1
     7ac:	00015000 	andeq	r5, r1, r0
     7b0:	fb010200 	blx	40fba <_start-0xa2fbf046>
     7b4:	01000d0e 	tsteq	r0, lr, lsl #26
     7b8:	00010101 	andeq	r0, r1, r1, lsl #2
     7bc:	00010000 	andeq	r0, r1, r0
     7c0:	682f0100 	stmvsda	pc!, {r8}
     7c4:	2f656d6f 	svccs	0x00656d6f
     7c8:	68736f79 	ldmvsda	r3!, {r0, r3, r4, r5, r6, r8, r9, sl, fp, sp, lr}^
     7cc:	696b6169 	stmvsdb	fp!, {r0, r3, r5, r6, r8, sp, lr}^
     7d0:	6f72442f 	svcvs	0x0072442f
     7d4:	786f6270 	stmvcda	pc!, {r4, r5, r6, r9, sp, lr}^
     7d8:	636f442f 	cmnvs	pc, #788529152	; 0x2f000000
     7dc:	6e656d75 	mcrvs	13, 3, r6, cr5, cr5, {3}
     7e0:	432f7374 	teqmi	pc, #-805306367	; 0xd0000001
     7e4:	632f554d 	teqvs	pc, #322961408	; 0x13400000
     7e8:	7373616c 	cmnvc	r3, #27	; 0x1b
     7ec:	3130322f 	teqcc	r0, pc, lsr #4
     7f0:	61465f33 	cmpvs	r6, r3, lsr pc
     7f4:	312f6c6c 	teqcc	pc, ip, ror #24
     7f8:	34332d38 	ldrcct	r2, [r3], #-3384
     7fc:	614c2f32 	cmpvs	ip, r2, lsr pc
     800:	6f6e2f62 	svcvs	0x006e2f62
     804:	6e616d72 	mcrvs	13, 3, r6, cr1, cr2, {3}
     808:	62616c2f 	rsbvs	r6, r1, #12032	; 0x2f00
     80c:	656b2f34 	strvsb	r2, [fp, #-3892]!
     810:	6c656e72 	stcvsl	14, cr6, [r5], #-456
     814:	6f682f00 	svcvs	0x00682f00
     818:	792f656d 	stmvcdb	pc!, {r0, r2, r3, r5, r6, r8, sl, sp, lr}
     81c:	6968736f 	stmvsdb	r8!, {r0, r1, r2, r3, r5, r6, r8, r9, ip, sp, lr}^
     820:	2f696b61 	svccs	0x00696b61
     824:	706f7244 	rsbvc	r7, pc, r4, asr #4
     828:	2f786f62 	svccs	0x00786f62
     82c:	75636f44 	strvcb	r6, [r3, #-3908]!
     830:	746e656d 	strvcbt	r6, [lr], #-1389
     834:	4d432f73 	stcmil	15, cr2, [r3, #-460]
     838:	6c632f55 	stcvsl	15, cr2, [r3], #-340
     83c:	2f737361 	svccs	0x00737361
     840:	33313032 	teqcc	r1, #50	; 0x32
     844:	6c61465f 	stcvsl	6, cr4, [r1], #-380
     848:	38312f6c 	ldmccda	r1!, {r2, r3, r5, r6, r8, r9, sl, fp, sp}
     84c:	3234332d 	eorccs	r3, r4, #-1275068416	; 0xb4000000
     850:	62614c2f 	rsbvs	r4, r1, #12032	; 0x2f00
     854:	726f6e2f 	rsbvc	r6, pc, #752	; 0x2f0
     858:	2f6e616d 	svccs	0x006e616d
     85c:	3462616c 	strccbt	r6, [r2], #-364
     860:	72656b2f 	rsbvc	r6, r5, #48128	; 0xbc00
     864:	2f6c656e 	svccs	0x006c656e
     868:	6c636e69 	stcvsl	14, cr6, [r3], #-420
     86c:	2f656475 	svccs	0x00656475
     870:	006d7261 	rsbeq	r7, sp, r1, ror #4
     874:	6d6f682f 	stcvsl	8, cr6, [pc, #-188]!
     878:	6f792f65 	svcvs	0x00792f65
     87c:	61696873 	smcvs	38531
     880:	442f696b 	strmit	r6, [pc], #2411	; 888 <_start-0xa2fff778>
     884:	62706f72 	rsbvss	r6, r0, #456	; 0x1c8
     888:	442f786f 	strmit	r7, [pc], #2159	; 890 <_start-0xa2fff770>
     88c:	6d75636f 	ldcvsl	3, cr6, [r5, #-444]!
     890:	73746e65 	cmnvc	r4, #1616	; 0x650
     894:	554d432f 	strplb	r4, [sp, #-815]
     898:	616c632f 	cmnvs	ip, pc, lsr #6
     89c:	322f7373 	eorcc	r7, pc, #-872415231	; 0xcc000001
     8a0:	5f333130 	svcpl	0x00333130
     8a4:	6c6c6146 	stfvse	f6, [ip], #-280
     8a8:	2d38312f 	ldfcss	f3, [r8, #-188]!
     8ac:	2f323433 	svccs	0x00323433
     8b0:	2f62614c 	svccs	0x0062614c
     8b4:	6d726f6e 	ldcvsl	15, cr6, [r2, #-440]!
     8b8:	6c2f6e61 	stcvs	14, cr6, [pc], #-388
     8bc:	2f346261 	svccs	0x00346261
     8c0:	6e72656b 	cdpvs	5, 7, cr6, cr2, cr11, {3}
     8c4:	692f6c65 	stmvsdb	pc!, {r0, r2, r5, r6, sl, fp, sp, lr}
     8c8:	756c636e 	strvcb	r6, [ip, #-878]!
     8cc:	00006564 	andeq	r6, r0, r4, ror #10
     8d0:	69766564 	ldmvsdb	r6!, {r2, r5, r6, r8, sl, sp, lr}^
     8d4:	632e6563 	teqvs	lr, #415236096	; 0x18c00000
     8d8:	00000100 	andeq	r0, r0, r0, lsl #2
     8dc:	65637865 	strvsb	r7, [r3, #-2149]!
     8e0:	6f697470 	svcvs	0x00697470
     8e4:	00682e6e 	rsbeq	r2, r8, lr, ror #28
     8e8:	74000002 	strvc	r0, [r0], #-2
     8ec:	2e6b7361 	cdpcs	3, 6, cr7, cr11, cr1, {3}
     8f0:	00030068 	andeq	r0, r3, r8, rrx
     8f4:	70797400 	rsbvcs	r7, r9, r0, lsl #8
     8f8:	682e7365 	stmvsda	lr!, {r0, r2, r5, r6, r8, r9, ip, sp, lr}
     8fc:	00000300 	andeq	r0, r0, r0, lsl #6
     900:	02050000 	andeq	r0, r5, #0	; 0x0
     904:	a30004b0 	movwge	r0, #1200	; 0x4b0
     908:	4d013903 	stcmi	9, cr3, [r1, #-12]
     90c:	2d2d302d 	stccs	0, cr3, [sp, #-180]!
     910:	03326430 	teqeq	r2, #805306368	; 0x30000000
     914:	2f2d823d 	svccs	0x002d823d
     918:	2f2f8632 	svccs	0x002f8632
     91c:	2c306267 	lfmcs	f6, 4, [r0], #-412
     920:	665c0336 	undefined
     924:	0302042e 	movweq	r0, #9262	; 0x242e
     928:	04302e59 	ldreqt	r2, [r0], #-3673
     92c:	822c0301 	eorhi	r0, ip, #67108864	; 0x4000000
     930:	302c2208 	eorcc	r2, ip, r8, lsl #4
     934:	032e7a03 	teqeq	lr, #12288	; 0x3000
     938:	02048209 	andeq	r8, r4, #-1879048192	; 0x90000000
     93c:	302e4503 	eorcc	r4, lr, r3, lsl #10
     940:	3b030104 	blcc	c0d58 <_start-0xa2f3f2a8>
     944:	4a54034a 	bmi	1501674 <_start-0xa1afe98c>
     948:	0302042e 	movweq	r0, #9262	; 0x242e
     94c:	2f2f2e77 	svccs	0x002f2e77
     950:	0a030104 	beq	c0d68 <_start-0xa2f3f298>
     954:	4b504b2e 	blmi	1413614 <_start-0xa1bec9ec>
     958:	03020450 	movweq	r0, #9296	; 0x2450
     95c:	2f2f2e5e 	svccs	0x002f2e5e
     960:	22030104 	andcs	r0, r3, #1	; 0x1
     964:	0004022e 	andeq	r0, r4, lr, lsr #4
     968:	01020101 	tsteq	r2, r1, lsl #2
     96c:	00020000 	andeq	r0, r2, r0
     970:	000000e1 	andeq	r0, r0, r1, ror #1
     974:	0efb0102 	cdpeq	1, 15, cr0, cr11, cr2, {0}
     978:	0101000d 	tsteq	r1, sp
     97c:	00000101 	andeq	r0, r0, r1, lsl #2
     980:	00000100 	andeq	r0, r0, r0, lsl #2
     984:	6f682f01 	svcvs	0x00682f01
     988:	792f656d 	stmvcdb	pc!, {r0, r2, r3, r5, r6, r8, sl, sp, lr}
     98c:	6968736f 	stmvsdb	r8!, {r0, r1, r2, r3, r5, r6, r8, r9, ip, sp, lr}^
     990:	2f696b61 	svccs	0x00696b61
     994:	706f7244 	rsbvc	r7, pc, r4, asr #4
     998:	2f786f62 	svccs	0x00786f62
     99c:	75636f44 	strvcb	r6, [r3, #-3908]!
     9a0:	746e656d 	strvcbt	r6, [lr], #-1389
     9a4:	4d432f73 	stcmil	15, cr2, [r3, #-460]
     9a8:	6c632f55 	stcvsl	15, cr2, [r3], #-340
     9ac:	2f737361 	svccs	0x00737361
     9b0:	33313032 	teqcc	r1, #50	; 0x32
     9b4:	6c61465f 	stcvsl	6, cr4, [r1], #-380
     9b8:	38312f6c 	ldmccda	r1!, {r2, r3, r5, r6, r8, r9, sl, fp, sp}
     9bc:	3234332d 	eorccs	r3, r4, #-1275068416	; 0xb4000000
     9c0:	62614c2f 	rsbvs	r4, r1, #12032	; 0x2f00
     9c4:	726f6e2f 	rsbvc	r6, pc, #752	; 0x2f0
     9c8:	2f6e616d 	svccs	0x006e616d
     9cc:	3462616c 	strccbt	r6, [r2], #-364
     9d0:	72656b2f 	rsbvc	r6, r5, #48128	; 0xbc00
     9d4:	2f6c656e 	svccs	0x006c656e
     9d8:	6c636e69 	stcvsl	14, cr6, [r3], #-420
     9dc:	2f656475 	svccs	0x00656475
     9e0:	006d7261 	rsbeq	r7, sp, r1, ror #4
     9e4:	6d6f682f 	stcvsl	8, cr6, [pc, #-188]!
     9e8:	6f792f65 	svcvs	0x00792f65
     9ec:	61696873 	smcvs	38531
     9f0:	442f696b 	strmit	r6, [pc], #2411	; 9f8 <_start-0xa2fff608>
     9f4:	62706f72 	rsbvss	r6, r0, #456	; 0x1c8
     9f8:	442f786f 	strmit	r7, [pc], #2159	; a00 <_start-0xa2fff600>
     9fc:	6d75636f 	ldcvsl	3, cr6, [r5, #-444]!
     a00:	73746e65 	cmnvc	r4, #1616	; 0x650
     a04:	554d432f 	strplb	r4, [sp, #-815]
     a08:	616c632f 	cmnvs	ip, pc, lsr #6
     a0c:	322f7373 	eorcc	r7, pc, #-872415231	; 0xcc000001
     a10:	5f333130 	svcpl	0x00333130
     a14:	6c6c6146 	stfvse	f6, [ip], #-280
     a18:	2d38312f 	ldfcss	f3, [r8, #-188]!
     a1c:	2f323433 	svccs	0x00323433
     a20:	2f62614c 	svccs	0x0062614c
     a24:	6d726f6e 	ldcvsl	15, cr6, [r2, #-440]!
     a28:	6c2f6e61 	stcvs	14, cr6, [pc], #-388
     a2c:	2f346261 	svccs	0x00346261
     a30:	6e72656b 	cdpvs	5, 7, cr6, cr2, cr11, {3}
     a34:	692f6c65 	stmvsdb	pc!, {r0, r2, r5, r6, sl, fp, sp, lr}
     a38:	756c636e 	strvcb	r6, [ip, #-878]!
     a3c:	00006564 	andeq	r6, r0, r4, ror #10
     a40:	2e676572 	mcrcs	5, 3, r6, cr7, cr2, {3}
     a44:	00010068 	andeq	r0, r1, r8, rrx
     a48:	70797400 	rsbvcs	r7, r9, r0, lsl #8
     a4c:	682e7365 	stmvsda	lr!, {r0, r2, r5, r6, r8, r9, ip, sp, lr}
     a50:	00000200 	andeq	r0, r0, r0, lsl #4
     a54:	02050000 	andeq	r0, r5, #0	; 0x0
     a58:	a3000600 	movwge	r0, #1536	; 0x600
     a5c:	4b011303 	blmi	45670 <_start-0xa2fba990>
     a60:	322f2e32 	eorcc	r2, pc, #800	; 0x320
     a64:	324b2e2f 	subcc	r2, fp, #752	; 0x2f0
     a68:	024b2e2f 	subeq	r2, fp, #752	; 0x2f0
     a6c:	01010002 	tsteq	r1, r2
     a70:	000000f7 	streqd	r0, [r0], -r7
     a74:	00e10002 	rsceq	r0, r1, r2
     a78:	01020000 	tsteq	r2, r0
     a7c:	000d0efb 	streqd	r0, [sp], -fp
     a80:	01010101 	tsteq	r1, r1, lsl #2
     a84:	01000000 	tsteq	r0, r0
     a88:	2f010000 	svccs	0x00010000
     a8c:	656d6f68 	strvsb	r6, [sp, #-3944]!
     a90:	736f792f 	cmnvc	pc, #770048	; 0xbc000
     a94:	6b616968 	blvs	185b03c <_start-0xa17a4fc4>
     a98:	72442f69 	subvc	r2, r4, #420	; 0x1a4
     a9c:	6f62706f 	svcvs	0x0062706f
     aa0:	6f442f78 	svcvs	0x00442f78
     aa4:	656d7563 	strvsb	r7, [sp, #-1379]!
     aa8:	2f73746e 	svccs	0x0073746e
     aac:	2f554d43 	svccs	0x00554d43
     ab0:	73616c63 	cmnvc	r1, #25344	; 0x6300
     ab4:	30322f73 	eorccs	r2, r2, r3, ror pc
     ab8:	465f3331 	undefined
     abc:	2f6c6c61 	svccs	0x006c6c61
     ac0:	332d3831 	teqcc	sp, #3211264	; 0x310000
     ac4:	4c2f3234 	sfmmi	f3, 4, [pc], #-208
     ac8:	6e2f6261 	cdpvs	2, 2, cr6, cr15, cr1, {3}
     acc:	616d726f 	cmnvs	sp, pc, ror #4
     ad0:	616c2f6e 	cmnvs	ip, lr, ror #30
     ad4:	6b2f3462 	blvs	bcdc64 <_start-0xa243239c>
     ad8:	656e7265 	strvsb	r7, [lr, #-613]!
     adc:	6e692f6c 	cdpvs	15, 6, cr2, cr9, cr12, {3}
     ae0:	64756c63 	ldrvsbt	r6, [r5], #-3171
     ae4:	72612f65 	rsbvc	r2, r1, #404	; 0x194
     ae8:	682f006d 	stmvsda	pc!, {r0, r2, r3, r5, r6}
     aec:	2f656d6f 	svccs	0x00656d6f
     af0:	68736f79 	ldmvsda	r3!, {r0, r3, r4, r5, r6, r8, r9, sl, fp, sp, lr}^
     af4:	696b6169 	stmvsdb	fp!, {r0, r3, r5, r6, r8, sp, lr}^
     af8:	6f72442f 	svcvs	0x0072442f
     afc:	786f6270 	stmvcda	pc!, {r4, r5, r6, r9, sp, lr}^
     b00:	636f442f 	cmnvs	pc, #788529152	; 0x2f000000
     b04:	6e656d75 	mcrvs	13, 3, r6, cr5, cr5, {3}
     b08:	432f7374 	teqmi	pc, #-805306367	; 0xd0000001
     b0c:	632f554d 	teqvs	pc, #322961408	; 0x13400000
     b10:	7373616c 	cmnvc	r3, #27	; 0x1b
     b14:	3130322f 	teqcc	r0, pc, lsr #4
     b18:	61465f33 	cmpvs	r6, r3, lsr pc
     b1c:	312f6c6c 	teqcc	pc, ip, ror #24
     b20:	34332d38 	ldrcct	r2, [r3], #-3384
     b24:	614c2f32 	cmpvs	ip, r2, lsr pc
     b28:	6f6e2f62 	svcvs	0x006e2f62
     b2c:	6e616d72 	mcrvs	13, 3, r6, cr1, cr2, {3}
     b30:	62616c2f 	rsbvs	r6, r1, #12032	; 0x2f00
     b34:	656b2f34 	strvsb	r2, [fp, #-3892]!
     b38:	6c656e72 	stcvsl	14, cr6, [r5], #-456
     b3c:	636e692f 	cmnvs	lr, #770048	; 0xbc000
     b40:	6564756c 	strvsb	r7, [r4, #-1388]!
     b44:	73700000 	cmnvc	r0, #0	; 0x0
     b48:	00682e72 	rsbeq	r2, r8, r2, ror lr
     b4c:	74000001 	strvc	r0, [r0], #-1
     b50:	73657079 	cmnvc	r5, #121	; 0x79
     b54:	0200682e 	andeq	r6, r0, #3014656	; 0x2e0000
     b58:	00000000 	andeq	r0, r0, r0
     b5c:	06400205 	streqb	r0, [r0], -r5, lsl #4
     b60:	2403a300 	strcs	sl, [r3], #-768
     b64:	02023001 	andeq	r3, r2, #1	; 0x1
     b68:	92010100 	andls	r0, r1, #0	; 0x0
     b6c:	02000000 	andeq	r0, r0, #0	; 0x0
     b70:	00007d00 	andeq	r7, r0, r0, lsl #26
     b74:	fb010200 	blx	4137e <_start-0xa2fbec82>
     b78:	01000d0e 	tsteq	r0, lr, lsl #26
     b7c:	00010101 	andeq	r0, r1, r1, lsl #2
     b80:	00010000 	andeq	r0, r1, r0
     b84:	682f0100 	stmvsda	pc!, {r8}
     b88:	2f656d6f 	svccs	0x00656d6f
     b8c:	68736f79 	ldmvsda	r3!, {r0, r3, r4, r5, r6, r8, r9, sl, fp, sp, lr}^
     b90:	696b6169 	stmvsdb	fp!, {r0, r3, r5, r6, r8, sp, lr}^
     b94:	6f72442f 	svcvs	0x0072442f
     b98:	786f6270 	stmvcda	pc!, {r4, r5, r6, r9, sp, lr}^
     b9c:	636f442f 	cmnvs	pc, #788529152	; 0x2f000000
     ba0:	6e656d75 	mcrvs	13, 3, r6, cr5, cr5, {3}
     ba4:	432f7374 	teqmi	pc, #-805306367	; 0xd0000001
     ba8:	632f554d 	teqvs	pc, #322961408	; 0x13400000
     bac:	7373616c 	cmnvc	r3, #27	; 0x1b
     bb0:	3130322f 	teqcc	r0, pc, lsr #4
     bb4:	61465f33 	cmpvs	r6, r3, lsr pc
     bb8:	312f6c6c 	teqcc	pc, ip, ror #24
     bbc:	34332d38 	ldrcct	r2, [r3], #-3384
     bc0:	614c2f32 	cmpvs	ip, r2, lsr pc
     bc4:	6f6e2f62 	svcvs	0x006e2f62
     bc8:	6e616d72 	mcrvs	13, 3, r6, cr1, cr2, {3}
     bcc:	62616c2f 	rsbvs	r6, r1, #12032	; 0x2f00
     bd0:	656b2f34 	strvsb	r2, [fp, #-3892]!
     bd4:	6c656e72 	stcvsl	14, cr6, [r5], #-456
     bd8:	6d72612f 	ldfvse	f6, [r2, #-188]!
     bdc:	5f430000 	svcpl	0x00430000
     be0:	5f515249 	svcpl	0x00515249
     be4:	646e6148 	strvsbt	r6, [lr], #-328
     be8:	2e72656c 	cdpcs	5, 7, cr6, cr2, cr12, {3}
     bec:	00010063 	andeq	r0, r1, r3, rrx
     bf0:	05000000 	streq	r0, [r0]
     bf4:	0006a802 	andeq	sl, r6, r2, lsl #16
     bf8:	011003a3 	tsteq	r0, r3, lsr #7
     bfc:	01000202 	tsteq	r0, r2, lsl #4
     c00:	00014201 	andeq	r4, r1, r1, lsl #4
     c04:	ed000200 	sfm	f0, 4, [r0]
     c08:	02000000 	andeq	r0, r0, #0	; 0x0
     c0c:	0d0efb01 	vstreq	d15, [lr, #-4]
     c10:	01010100 	tsteq	r1, r0, lsl #2
     c14:	00000001 	andeq	r0, r0, r1
     c18:	01000001 	tsteq	r0, r1
     c1c:	6d6f682f 	stcvsl	8, cr6, [pc, #-188]!
     c20:	6f792f65 	svcvs	0x00792f65
     c24:	61696873 	smcvs	38531
     c28:	442f696b 	strmit	r6, [pc], #2411	; c30 <_start-0xa2fff3d0>
     c2c:	62706f72 	rsbvss	r6, r0, #456	; 0x1c8
     c30:	442f786f 	strmit	r7, [pc], #2159	; c38 <_start-0xa2fff3c8>
     c34:	6d75636f 	ldcvsl	3, cr6, [r5, #-444]!
     c38:	73746e65 	cmnvc	r4, #1616	; 0x650
     c3c:	554d432f 	strplb	r4, [sp, #-815]
     c40:	616c632f 	cmnvs	ip, pc, lsr #6
     c44:	322f7373 	eorcc	r7, pc, #-872415231	; 0xcc000001
     c48:	5f333130 	svcpl	0x00333130
     c4c:	6c6c6146 	stfvse	f6, [ip], #-280
     c50:	2d38312f 	ldfcss	f3, [r8, #-188]!
     c54:	2f323433 	svccs	0x00323433
     c58:	2f62614c 	svccs	0x0062614c
     c5c:	6d726f6e 	ldcvsl	15, cr6, [r2, #-440]!
     c60:	6c2f6e61 	stcvs	14, cr6, [pc], #-388
     c64:	2f346261 	svccs	0x00346261
     c68:	6e72656b 	cdpvs	5, 7, cr6, cr2, cr11, {3}
     c6c:	612f6c65 	teqvs	pc, r5, ror #24
     c70:	2f006d72 	svccs	0x00006d72
     c74:	656d6f68 	strvsb	r6, [sp, #-3944]!
     c78:	736f792f 	cmnvc	pc, #770048	; 0xbc000
     c7c:	6b616968 	blvs	185b224 <_start-0xa17a4ddc>
     c80:	72442f69 	subvc	r2, r4, #420	; 0x1a4
     c84:	6f62706f 	svcvs	0x0062706f
     c88:	6f442f78 	svcvs	0x00442f78
     c8c:	656d7563 	strvsb	r7, [sp, #-1379]!
     c90:	2f73746e 	svccs	0x0073746e
     c94:	2f554d43 	svccs	0x00554d43
     c98:	73616c63 	cmnvc	r1, #25344	; 0x6300
     c9c:	30322f73 	eorccs	r2, r2, r3, ror pc
     ca0:	465f3331 	undefined
     ca4:	2f6c6c61 	svccs	0x006c6c61
     ca8:	332d3831 	teqcc	sp, #3211264	; 0x310000
     cac:	4c2f3234 	sfmmi	f3, 4, [pc], #-208
     cb0:	6e2f6261 	cdpvs	2, 2, cr6, cr15, cr1, {3}
     cb4:	616d726f 	cmnvs	sp, pc, ror #4
     cb8:	616c2f6e 	cmnvs	ip, lr, ror #30
     cbc:	6b2f3462 	blvs	bcde4c <_start-0xa24321b4>
     cc0:	656e7265 	strvsb	r7, [lr, #-613]!
     cc4:	6e692f6c 	cdpvs	15, 6, cr2, cr9, cr12, {3}
     cc8:	64756c63 	ldrvsbt	r6, [r5], #-3171
     ccc:	43000065 	movwmi	r0, #101	; 0x65
     cd0:	4957535f 	ldmmidb	r7, {r0, r1, r2, r3, r4, r6, r8, r9, ip, lr}^
     cd4:	6e61485f 	mcrvs	8, 3, r4, cr1, cr15, {2}
     cd8:	72656c64 	rsbvc	r6, r5, #25600	; 0x6400
     cdc:	0100632e 	tsteq	r0, lr, lsr #6
     ce0:	79740000 	ldmvcdb	r4!, {}^
     ce4:	2e736570 	mrccs	5, 3, r6, cr3, cr0, {3}
     ce8:	00020068 	andeq	r0, r2, r8, rrx
     cec:	73617400 	cmnvc	r1, #0	; 0x0
     cf0:	00682e6b 	rsbeq	r2, r8, fp, ror #28
     cf4:	00000002 	andeq	r0, r0, r2
     cf8:	ac020500 	cfstr32ge	mvfx0, [r2], {0}
     cfc:	03a30006 	moveq	r0, #6	; 0x6
     d00:	6c030122 	stfvss	f0, [r3], {34}
     d04:	14032e4a 	strne	r2, [r3], #-3658
     d08:	172a022e 	strne	r0, [sl, -lr, lsr #4]!
     d0c:	032e2a03 	teqeq	lr, #12288	; 0x3000
     d10:	03342e56 	teqeq	r4, #1376	; 0x560
     d14:	5c032e24 	stcpl	14, cr2, [r3], {36}
     d18:	2003322e 	andcs	r3, r3, lr, lsr #4
     d1c:	2e640382 	cdpcs	3, 6, cr0, cr4, cr2, {4}
     d20:	4a170333 	bmi	5c19f4 <_start-0xa2a3e60c>
     d24:	032e6903 	teqeq	lr, #49152	; 0xc000
     d28:	6c032e17 	stcvs	14, cr2, [r3], {23}
     d2c:	1003322e 	andne	r3, r3, lr, lsr #4
     d30:	2e70032e 	cdpcs	3, 7, cr0, cr0, cr14, {1}
     d34:	2e0c0332 	mcrcs	3, 0, r0, cr12, cr2, {1}
     d38:	322e7403 	eorcc	r7, lr, #50331648	; 0x3000000
     d3c:	2e780336 	mrccs	3, 3, r0, cr8, cr6, {1}
     d40:	06026b31 	undefined
     d44:	98010100 	stmlsda	r1, {r8}
     d48:	02000001 	andeq	r0, r0, #1	; 0x1
     d4c:	00014300 	andeq	r4, r1, r0, lsl #6
     d50:	fb010200 	blx	4155a <_start-0xa2fbeaa6>
     d54:	01000d0e 	tsteq	r0, lr, lsl #26
     d58:	00010101 	andeq	r0, r1, r1, lsl #2
     d5c:	00010000 	andeq	r0, r1, r0
     d60:	682f0100 	stmvsda	pc!, {r8}
     d64:	2f656d6f 	svccs	0x00656d6f
     d68:	68736f79 	ldmvsda	r3!, {r0, r3, r4, r5, r6, r8, r9, sl, fp, sp, lr}^
     d6c:	696b6169 	stmvsdb	fp!, {r0, r3, r5, r6, r8, sp, lr}^
     d70:	6f72442f 	svcvs	0x0072442f
     d74:	786f6270 	stmvcda	pc!, {r4, r5, r6, r9, sp, lr}^
     d78:	636f442f 	cmnvs	pc, #788529152	; 0x2f000000
     d7c:	6e656d75 	mcrvs	13, 3, r6, cr5, cr5, {3}
     d80:	432f7374 	teqmi	pc, #-805306367	; 0xd0000001
     d84:	632f554d 	teqvs	pc, #322961408	; 0x13400000
     d88:	7373616c 	cmnvc	r3, #27	; 0x1b
     d8c:	3130322f 	teqcc	r0, pc, lsr #4
     d90:	61465f33 	cmpvs	r6, r3, lsr pc
     d94:	312f6c6c 	teqcc	pc, ip, ror #24
     d98:	34332d38 	ldrcct	r2, [r3], #-3384
     d9c:	614c2f32 	cmpvs	ip, r2, lsr pc
     da0:	6f6e2f62 	svcvs	0x006e2f62
     da4:	6e616d72 	mcrvs	13, 3, r6, cr1, cr2, {3}
     da8:	62616c2f 	rsbvs	r6, r1, #12032	; 0x2f00
     dac:	656b2f34 	strvsb	r2, [fp, #-3892]!
     db0:	6c656e72 	stcvsl	14, cr6, [r5], #-456
     db4:	6d72612f 	ldfvse	f6, [r2, #-188]!
     db8:	6f682f00 	svcvs	0x00682f00
     dbc:	792f656d 	stmvcdb	pc!, {r0, r2, r3, r5, r6, r8, sl, sp, lr}
     dc0:	6968736f 	stmvsdb	r8!, {r0, r1, r2, r3, r5, r6, r8, r9, ip, sp, lr}^
     dc4:	2f696b61 	svccs	0x00696b61
     dc8:	706f7244 	rsbvc	r7, pc, r4, asr #4
     dcc:	2f786f62 	svccs	0x00786f62
     dd0:	75636f44 	strvcb	r6, [r3, #-3908]!
     dd4:	746e656d 	strvcbt	r6, [lr], #-1389
     dd8:	4d432f73 	stcmil	15, cr2, [r3, #-460]
     ddc:	6c632f55 	stcvsl	15, cr2, [r3], #-340
     de0:	2f737361 	svccs	0x00737361
     de4:	33313032 	teqcc	r1, #50	; 0x32
     de8:	6c61465f 	stcvsl	6, cr4, [r1], #-380
     dec:	38312f6c 	ldmccda	r1!, {r2, r3, r5, r6, r8, r9, sl, fp, sp}
     df0:	3234332d 	eorccs	r3, r4, #-1275068416	; 0xb4000000
     df4:	62614c2f 	rsbvs	r4, r1, #12032	; 0x2f00
     df8:	726f6e2f 	rsbvc	r6, pc, #752	; 0x2f0
     dfc:	2f6e616d 	svccs	0x006e616d
     e00:	3462616c 	strccbt	r6, [r2], #-364
     e04:	72656b2f 	rsbvc	r6, r5, #48128	; 0xbc00
     e08:	2f6c656e 	svccs	0x006c656e
     e0c:	6c636e69 	stcvsl	14, cr6, [r3], #-420
     e10:	2f656475 	svccs	0x00656475
     e14:	006d7261 	rsbeq	r7, sp, r1, ror #4
     e18:	6d6f682f 	stcvsl	8, cr6, [pc, #-188]!
     e1c:	6f792f65 	svcvs	0x00792f65
     e20:	61696873 	smcvs	38531
     e24:	442f696b 	strmit	r6, [pc], #2411	; e2c <_start-0xa2fff1d4>
     e28:	62706f72 	rsbvss	r6, r0, #456	; 0x1c8
     e2c:	442f786f 	strmit	r7, [pc], #2159	; e34 <_start-0xa2fff1cc>
     e30:	6d75636f 	ldcvsl	3, cr6, [r5, #-444]!
     e34:	73746e65 	cmnvc	r4, #1616	; 0x650
     e38:	554d432f 	strplb	r4, [sp, #-815]
     e3c:	616c632f 	cmnvs	ip, pc, lsr #6
     e40:	322f7373 	eorcc	r7, pc, #-872415231	; 0xcc000001
     e44:	5f333130 	svcpl	0x00333130
     e48:	6c6c6146 	stfvse	f6, [ip], #-280
     e4c:	2d38312f 	ldfcss	f3, [r8, #-188]!
     e50:	2f323433 	svccs	0x00323433
     e54:	2f62614c 	svccs	0x0062614c
     e58:	6d726f6e 	ldcvsl	15, cr6, [r2, #-440]!
     e5c:	6c2f6e61 	stcvs	14, cr6, [pc], #-388
     e60:	2f346261 	svccs	0x00346261
     e64:	6e72656b 	cdpvs	5, 7, cr6, cr2, cr11, {3}
     e68:	692f6c65 	stmvsdb	pc!, {r0, r2, r5, r6, sl, fp, sp, lr}
     e6c:	756c636e 	strvcb	r6, [ip, #-878]!
     e70:	00006564 	andeq	r6, r0, r4, ror #10
     e74:	656d6974 	strvsb	r6, [sp, #-2420]!
     e78:	00632e72 	rsbeq	r2, r3, r2, ror lr
     e7c:	72000001 	andvc	r0, r0, #1	; 0x1
     e80:	682e6765 	stmvsda	lr!, {r0, r2, r5, r6, r8, r9, sl, sp, lr}
     e84:	00000200 	andeq	r0, r0, r0, lsl #4
     e88:	65707974 	ldrvsb	r7, [r0, #-2420]!
     e8c:	00682e73 	rsbeq	r2, r8, r3, ror lr
     e90:	00000003 	andeq	r0, r0, r3
     e94:	e4020500 	str	r0, [r2], #-1280
     e98:	03a30007 	moveq	r0, #7	; 0x7
     e9c:	02040123 	andeq	r0, r4, #-1073741816	; 0xc0000008
     ea0:	044a7503 	streqb	r7, [sl], #-1283
     ea4:	2e0b0301 	cdpcs	3, 0, cr0, cr11, cr1, {0}
     ea8:	75030204 	strvc	r0, [r3, #-516]
     eac:	0301042e 	movweq	r0, #5166	; 0x142e
     eb0:	02044a10 	andeq	r4, r4, #65536	; 0x10000
     eb4:	342e7003 	strcct	r7, [lr], #-3
     eb8:	11030104 	tstne	r3, r4, lsl #2
     ebc:	02048866 	andeq	r8, r4, #6684672	; 0x660000
     ec0:	042e6303 	streqt	r6, [lr], #-771
     ec4:	2e1d0301 	cdpcs	3, 1, cr0, cr13, cr1, {0}
     ec8:	63030204 	movwvs	r0, #12804	; 0x3204
     ecc:	01044566 	tsteq	r4, r6, ror #10
     ed0:	042e2f03 	streqt	r2, [lr], #-3843
     ed4:	2e560302 	cdpcs	3, 5, cr0, cr6, cr2, {0}
     ed8:	2e030104 	adfcss	f0, f3, f4
     edc:	0602662e 	streq	r6, [r2], -lr, lsr #12
     ee0:	37010100 	strcc	r0, [r1, -r0, lsl #2]
     ee4:	02000001 	andeq	r0, r0, #1	; 0x1
     ee8:	0000dc00 	andeq	sp, r0, r0, lsl #24
     eec:	fb010200 	blx	416f6 <_start-0xa2fbe90a>
     ef0:	01000d0e 	tsteq	r0, lr, lsl #26
     ef4:	00010101 	andeq	r0, r1, r1, lsl #2
     ef8:	00010000 	andeq	r0, r1, r0
     efc:	682f0100 	stmvsda	pc!, {r8}
     f00:	2f656d6f 	svccs	0x00656d6f
     f04:	68736f79 	ldmvsda	r3!, {r0, r3, r4, r5, r6, r8, r9, sl, fp, sp, lr}^
     f08:	696b6169 	stmvsdb	fp!, {r0, r3, r5, r6, r8, sp, lr}^
     f0c:	6f72442f 	svcvs	0x0072442f
     f10:	786f6270 	stmvcda	pc!, {r4, r5, r6, r9, sp, lr}^
     f14:	636f442f 	cmnvs	pc, #788529152	; 0x2f000000
     f18:	6e656d75 	mcrvs	13, 3, r6, cr5, cr5, {3}
     f1c:	432f7374 	teqmi	pc, #-805306367	; 0xd0000001
     f20:	632f554d 	teqvs	pc, #322961408	; 0x13400000
     f24:	7373616c 	cmnvc	r3, #27	; 0x1b
     f28:	3130322f 	teqcc	r0, pc, lsr #4
     f2c:	61465f33 	cmpvs	r6, r3, lsr pc
     f30:	312f6c6c 	teqcc	pc, ip, ror #24
     f34:	34332d38 	ldrcct	r2, [r3], #-3384
     f38:	614c2f32 	cmpvs	ip, r2, lsr pc
     f3c:	6f6e2f62 	svcvs	0x006e2f62
     f40:	6e616d72 	mcrvs	13, 3, r6, cr1, cr2, {3}
     f44:	62616c2f 	rsbvs	r6, r1, #12032	; 0x2f00
     f48:	656b2f34 	strvsb	r2, [fp, #-3892]!
     f4c:	6c656e72 	stcvsl	14, cr6, [r5], #-456
     f50:	7379732f 	cmnvc	r9, #-1140850688	; 0xbc000000
     f54:	6c6c6163 	stfvse	f6, [ip], #-396
     f58:	6f682f00 	svcvs	0x00682f00
     f5c:	792f656d 	stmvcdb	pc!, {r0, r2, r3, r5, r6, r8, sl, sp, lr}
     f60:	6968736f 	stmvsdb	r8!, {r0, r1, r2, r3, r5, r6, r8, r9, ip, sp, lr}^
     f64:	2f696b61 	svccs	0x00696b61
     f68:	706f7244 	rsbvc	r7, pc, r4, asr #4
     f6c:	2f786f62 	svccs	0x00786f62
     f70:	75636f44 	strvcb	r6, [r3, #-3908]!
     f74:	746e656d 	strvcbt	r6, [lr], #-1389
     f78:	4d432f73 	stcmil	15, cr2, [r3, #-460]
     f7c:	6c632f55 	stcvsl	15, cr2, [r3], #-340
     f80:	2f737361 	svccs	0x00737361
     f84:	33313032 	teqcc	r1, #50	; 0x32
     f88:	6c61465f 	stcvsl	6, cr4, [r1], #-380
     f8c:	38312f6c 	ldmccda	r1!, {r2, r3, r5, r6, r8, r9, sl, fp, sp}
     f90:	3234332d 	eorccs	r3, r4, #-1275068416	; 0xb4000000
     f94:	62614c2f 	rsbvs	r4, r1, #12032	; 0x2f00
     f98:	726f6e2f 	rsbvc	r6, pc, #752	; 0x2f0
     f9c:	2f6e616d 	svccs	0x006e616d
     fa0:	3462616c 	strccbt	r6, [r2], #-364
     fa4:	72656b2f 	rsbvc	r6, r5, #48128	; 0xbc00
     fa8:	2f6c656e 	svccs	0x006c656e
     fac:	6c636e69 	stcvsl	14, cr6, [r3], #-420
     fb0:	00656475 	rsbeq	r6, r5, r5, ror r4
     fb4:	2e6f6900 	cdpcs	9, 6, cr6, cr15, cr0, {0}
     fb8:	00010063 	andeq	r0, r1, r3, rrx
     fbc:	70797400 	rsbvcs	r7, r9, r0, lsl #8
     fc0:	682e7365 	stmvsda	lr!, {r0, r2, r5, r6, r8, r9, ip, sp, lr}
     fc4:	00000200 	andeq	r0, r0, r0, lsl #4
     fc8:	02050000 	andeq	r0, r5, #0	; 0x0
     fcc:	a30008b0 	movwge	r0, #2224	; 0x8b0
     fd0:	0100e103 	tsteq	r0, r3, lsl #2
     fd4:	2f4f2e29 	svccs	0x004f2e29
     fd8:	5d083188 	stfpls	f3, [r8, #-544]
     fdc:	4f2d2f2d 	svcmi	0x002d2f2d
     fe0:	7fb40368 	svcvc	0x00b40368
     fe4:	2e76034a 	cdpcs	3, 7, cr0, cr6, cr10, {2}
     fe8:	032e0a03 	teqeq	lr, #12288	; 0x3000
     fec:	0a036676 	beq	da9cc <_start-0xa2f25634>
     ff0:	8276032e 	rsbhis	r0, r6, #-1207959552	; 0xb8000000
     ff4:	4e2e0a03 	fmulsmi	s0, s28, s6
     ff8:	039e0a03 	orreqs	r0, lr, #12288	; 0x3000
     ffc:	66032e1a 	undefined
    1000:	2f4ba22e 	svccs	0x004ba22e
    1004:	03333050 	teqeq	r3, #80	; 0x50
    1008:	2f302e79 	svccs	0x00302e79
    100c:	03312b4b 	teqeq	r1, #76800	; 0x12c00
    1010:	032f4a0a 	teqeq	pc, #40960	; 0xa000
    1014:	22032e64 	andcs	r2, r3, #1600	; 0x640
    1018:	000402d6 	ldreqd	r0, [r4], -r6
    101c:	01b20101 	moveqs	r0, r1, lsl #2
    1020:	00020000 	andeq	r0, r2, r0
    1024:	00000156 	andeq	r0, r0, r6, asr r1
    1028:	0efb0102 	cdpeq	1, 15, cr0, cr11, cr2, {0}
    102c:	0101000d 	tsteq	r1, sp
    1030:	00000101 	andeq	r0, r0, r1, lsl #2
    1034:	00000100 	andeq	r0, r0, r0, lsl #2
    1038:	6f682f01 	svcvs	0x00682f01
    103c:	792f656d 	stmvcdb	pc!, {r0, r2, r3, r5, r6, r8, sl, sp, lr}
    1040:	6968736f 	stmvsdb	r8!, {r0, r1, r2, r3, r5, r6, r8, r9, ip, sp, lr}^
    1044:	2f696b61 	svccs	0x00696b61
    1048:	706f7244 	rsbvc	r7, pc, r4, asr #4
    104c:	2f786f62 	svccs	0x00786f62
    1050:	75636f44 	strvcb	r6, [r3, #-3908]!
    1054:	746e656d 	strvcbt	r6, [lr], #-1389
    1058:	4d432f73 	stcmil	15, cr2, [r3, #-460]
    105c:	6c632f55 	stcvsl	15, cr2, [r3], #-340
    1060:	2f737361 	svccs	0x00737361
    1064:	33313032 	teqcc	r1, #50	; 0x32
    1068:	6c61465f 	stcvsl	6, cr4, [r1], #-380
    106c:	38312f6c 	ldmccda	r1!, {r2, r3, r5, r6, r8, r9, sl, fp, sp}
    1070:	3234332d 	eorccs	r3, r4, #-1275068416	; 0xb4000000
    1074:	62614c2f 	rsbvs	r4, r1, #12032	; 0x2f00
    1078:	726f6e2f 	rsbvc	r6, pc, #752	; 0x2f0
    107c:	2f6e616d 	svccs	0x006e616d
    1080:	3462616c 	strccbt	r6, [r2], #-364
    1084:	72656b2f 	rsbvc	r6, r5, #48128	; 0xbc00
    1088:	2f6c656e 	svccs	0x006c656e
    108c:	63737973 	cmnvs	r3, #1884160	; 0x1cc000
    1090:	006c6c61 	rsbeq	r6, ip, r1, ror #24
    1094:	6d6f682f 	stcvsl	8, cr6, [pc, #-188]!
    1098:	6f792f65 	svcvs	0x00792f65
    109c:	61696873 	smcvs	38531
    10a0:	442f696b 	strmit	r6, [pc], #2411	; 10a8 <_start-0xa2ffef58>
    10a4:	62706f72 	rsbvss	r6, r0, #456	; 0x1c8
    10a8:	442f786f 	strmit	r7, [pc], #2159	; 10b0 <_start-0xa2ffef50>
    10ac:	6d75636f 	ldcvsl	3, cr6, [r5, #-444]!
    10b0:	73746e65 	cmnvc	r4, #1616	; 0x650
    10b4:	554d432f 	strplb	r4, [sp, #-815]
    10b8:	616c632f 	cmnvs	ip, pc, lsr #6
    10bc:	322f7373 	eorcc	r7, pc, #-872415231	; 0xcc000001
    10c0:	5f333130 	svcpl	0x00333130
    10c4:	6c6c6146 	stfvse	f6, [ip], #-280
    10c8:	2d38312f 	ldfcss	f3, [r8, #-188]!
    10cc:	2f323433 	svccs	0x00323433
    10d0:	2f62614c 	svccs	0x0062614c
    10d4:	6d726f6e 	ldcvsl	15, cr6, [r2, #-440]!
    10d8:	6c2f6e61 	stcvs	14, cr6, [pc], #-388
    10dc:	2f346261 	svccs	0x00346261
    10e0:	6e72656b 	cdpvs	5, 7, cr6, cr2, cr11, {3}
    10e4:	692f6c65 	stmvsdb	pc!, {r0, r2, r5, r6, sl, fp, sp, lr}
    10e8:	756c636e 	strvcb	r6, [ip, #-878]!
    10ec:	612f6564 	teqvs	pc, r4, ror #10
    10f0:	2f006d72 	svccs	0x00006d72
    10f4:	656d6f68 	strvsb	r6, [sp, #-3944]!
    10f8:	736f792f 	cmnvc	pc, #770048	; 0xbc000
    10fc:	6b616968 	blvs	185b6a4 <_start-0xa17a495c>
    1100:	72442f69 	subvc	r2, r4, #420	; 0x1a4
    1104:	6f62706f 	svcvs	0x0062706f
    1108:	6f442f78 	svcvs	0x00442f78
    110c:	656d7563 	strvsb	r7, [sp, #-1379]!
    1110:	2f73746e 	svccs	0x0073746e
    1114:	2f554d43 	svccs	0x00554d43
    1118:	73616c63 	cmnvc	r1, #25344	; 0x6300
    111c:	30322f73 	eorccs	r2, r2, r3, ror pc
    1120:	465f3331 	undefined
    1124:	2f6c6c61 	svccs	0x006c6c61
    1128:	332d3831 	teqcc	sp, #3211264	; 0x310000
    112c:	4c2f3234 	sfmmi	f3, 4, [pc], #-208
    1130:	6e2f6261 	cdpvs	2, 2, cr6, cr15, cr1, {3}
    1134:	616d726f 	cmnvs	sp, pc, ror #4
    1138:	616c2f6e 	cmnvs	ip, lr, ror #30
    113c:	6b2f3462 	blvs	bce2cc <_start-0xa2431d34>
    1140:	656e7265 	strvsb	r7, [lr, #-613]!
    1144:	6e692f6c 	cdpvs	15, 6, cr2, cr9, cr12, {3}
    1148:	64756c63 	ldrvsbt	r6, [r5], #-3171
    114c:	70000065 	andvc	r0, r0, r5, rrx
    1150:	2e636f72 	mcrcs	15, 3, r6, cr3, cr2, {3}
    1154:	00010063 	andeq	r0, r1, r3, rrx
    1158:	63786500 	cmnvs	r8, #0	; 0x0
    115c:	69747065 	ldmvsdb	r4!, {r0, r2, r5, r6, ip, sp, lr}^
    1160:	682e6e6f 	stmvsda	lr!, {r0, r1, r2, r3, r5, r6, r9, sl, fp, sp, lr}
    1164:	00000200 	andeq	r0, r0, r0, lsl #4
    1168:	65707974 	ldrvsb	r7, [r0, #-2420]!
    116c:	00682e73 	rsbeq	r2, r8, r3, ror lr
    1170:	74000003 	strvc	r0, [r0], #-3
    1174:	2e6b7361 	cdpcs	3, 6, cr7, cr11, cr1, {3}
    1178:	00030068 	andeq	r0, r3, r8, rrx
    117c:	05000000 	streq	r0, [r0]
    1180:	0009fc02 	andeq	pc, r9, r2, lsl #24
    1184:	00ff03a3 	rsceqs	r0, pc, r3, lsr #7
    1188:	042e2f01 	streqt	r2, [lr], #-3841
    118c:	2e400302 	cdpcs	3, 4, cr0, cr0, cr2, {0}
    1190:	03010430 	movweq	r0, #5168	; 0x1430
    1194:	2f2d8234 	svccs	0x002d8234
    1198:	68034c4d 	stmvsda	r3, {r0, r2, r3, r6, sl, fp, lr}
    119c:	2d2f2e4a 	stccs	14, cr2, [pc, #-296]!
    11a0:	824e032f 	subhi	r0, lr, #-1140850688	; 0xbc000000
    11a4:	4e4d2a4e 	fnmacsmi	s5, s26, s28
    11a8:	034a7803 	movteq	r7, #43011	; 0xa803
    11ac:	7403660d 	strvc	r6, [r3], #-1549
    11b0:	034e4e82 	movteq	r4, #61058	; 0xee82
    11b4:	492f826f 	stmmidb	pc!, {r0, r1, r2, r3, r5, r6, r9, pc}
    11b8:	2dba2303 	ldccs	3, cr2, [sl, #12]!
    11bc:	a1f20d03 	mvnges	r0, r3, lsl #26
    11c0:	03be2c2f 	moveqs	r2, #12032	; 0x2f00
    11c4:	03364a78 	teqeq	r6, #491520	; 0x78000
    11c8:	17032e78 	smlsdxne	r3, r8, lr, r2
    11cc:	024d674a 	subeq	r6, sp, #19398656	; 0x1280000
    11d0:	0101000e 	tsteq	r1, lr
    11d4:	00000098 	muleq	r0, r8, r0
    11d8:	00780002 	rsbeqs	r0, r8, r2
    11dc:	01020000 	tsteq	r2, r0
    11e0:	000d0efb 	streqd	r0, [sp], -fp
    11e4:	01010101 	tsteq	r1, r1, lsl #2
    11e8:	01000000 	tsteq	r0, r0
    11ec:	2f010000 	svccs	0x00010000
    11f0:	656d6f68 	strvsb	r6, [sp, #-3944]!
    11f4:	736f792f 	cmnvc	pc, #770048	; 0xbc000
    11f8:	6b616968 	blvs	185b7a0 <_start-0xa17a4860>
    11fc:	72442f69 	subvc	r2, r4, #420	; 0x1a4
    1200:	6f62706f 	svcvs	0x0062706f
    1204:	6f442f78 	svcvs	0x00442f78
    1208:	656d7563 	strvsb	r7, [sp, #-1379]!
    120c:	2f73746e 	svccs	0x0073746e
    1210:	2f554d43 	svccs	0x00554d43
    1214:	73616c63 	cmnvc	r1, #25344	; 0x6300
    1218:	30322f73 	eorccs	r2, r2, r3, ror pc
    121c:	465f3331 	undefined
    1220:	2f6c6c61 	svccs	0x006c6c61
    1224:	332d3831 	teqcc	sp, #3211264	; 0x310000
    1228:	4c2f3234 	sfmmi	f3, 4, [pc], #-208
    122c:	6e2f6261 	cdpvs	2, 2, cr6, cr15, cr1, {3}
    1230:	616d726f 	cmnvs	sp, pc, ror #4
    1234:	616c2f6e 	cmnvs	ip, lr, ror #30
    1238:	6b2f3462 	blvs	bce3c8 <_start-0xa2431c38>
    123c:	656e7265 	strvsb	r7, [lr, #-613]!
    1240:	79732f6c 	ldmvcdb	r3!, {r2, r3, r5, r6, r8, r9, sl, fp, sp}^
    1244:	6c616373 	stcvsl	3, cr6, [r1], #-460
    1248:	7400006c 	strvc	r0, [r0], #-108
    124c:	2e656d69 	cdpcs	13, 6, cr6, cr5, cr9, {3}
    1250:	00010063 	andeq	r0, r1, r3, rrx
    1254:	05000000 	streq	r0, [r0]
    1258:	000b8002 	andeq	r8, fp, r2
    125c:	011603a3 	tsteq	r6, r3, lsr #7
    1260:	0e03302e 	cdpeq	0, 0, cr3, cr3, cr14, {1}
    1264:	2d332a82 	fldmdbscs	r3!, {s4-s133}
    1268:	02834b2f 	addeq	r4, r3, #48128	; 0xbc00
    126c:	01010004 	tsteq	r1, r4
    1270:	000001d3 	ldreqd	r0, [r0], -r3
    1274:	01550002 	cmpeq	r5, r2
    1278:	01020000 	tsteq	r2, r0
    127c:	000d0efb 	streqd	r0, [sp], -fp
    1280:	01010101 	tsteq	r1, r1, lsl #2
    1284:	01000000 	tsteq	r0, r0
    1288:	2f010000 	svccs	0x00010000
    128c:	656d6f68 	strvsb	r6, [sp, #-3944]!
    1290:	736f792f 	cmnvc	pc, #770048	; 0xbc000
    1294:	6b616968 	blvs	185b83c <_start-0xa17a47c4>
    1298:	72442f69 	subvc	r2, r4, #420	; 0x1a4
    129c:	6f62706f 	svcvs	0x0062706f
    12a0:	6f442f78 	svcvs	0x00442f78
    12a4:	656d7563 	strvsb	r7, [sp, #-1379]!
    12a8:	2f73746e 	svccs	0x0073746e
    12ac:	2f554d43 	svccs	0x00554d43
    12b0:	73616c63 	cmnvc	r1, #25344	; 0x6300
    12b4:	30322f73 	eorccs	r2, r2, r3, ror pc
    12b8:	465f3331 	undefined
    12bc:	2f6c6c61 	svccs	0x006c6c61
    12c0:	332d3831 	teqcc	sp, #3211264	; 0x310000
    12c4:	4c2f3234 	sfmmi	f3, 4, [pc], #-208
    12c8:	6e2f6261 	cdpvs	2, 2, cr6, cr15, cr1, {3}
    12cc:	616d726f 	cmnvs	sp, pc, ror #4
    12d0:	616c2f6e 	cmnvs	ip, lr, ror #30
    12d4:	6b2f3462 	blvs	bce464 <_start-0xa2431b9c>
    12d8:	656e7265 	strvsb	r7, [lr, #-613]!
    12dc:	63732f6c 	cmnvs	r3, #432	; 0x1b0
    12e0:	00646568 	rsbeq	r6, r4, r8, ror #10
    12e4:	6d6f682f 	stcvsl	8, cr6, [pc, #-188]!
    12e8:	6f792f65 	svcvs	0x00792f65
    12ec:	61696873 	smcvs	38531
    12f0:	442f696b 	strmit	r6, [pc], #2411	; 12f8 <_start-0xa2ffed08>
    12f4:	62706f72 	rsbvss	r6, r0, #456	; 0x1c8
    12f8:	442f786f 	strmit	r7, [pc], #2159	; 1300 <_start-0xa2ffed00>
    12fc:	6d75636f 	ldcvsl	3, cr6, [r5, #-444]!
    1300:	73746e65 	cmnvc	r4, #1616	; 0x650
    1304:	554d432f 	strplb	r4, [sp, #-815]
    1308:	616c632f 	cmnvs	ip, pc, lsr #6
    130c:	322f7373 	eorcc	r7, pc, #-872415231	; 0xcc000001
    1310:	5f333130 	svcpl	0x00333130
    1314:	6c6c6146 	stfvse	f6, [ip], #-280
    1318:	2d38312f 	ldfcss	f3, [r8, #-188]!
    131c:	2f323433 	svccs	0x00323433
    1320:	2f62614c 	svccs	0x0062614c
    1324:	6d726f6e 	ldcvsl	15, cr6, [r2, #-440]!
    1328:	6c2f6e61 	stcvs	14, cr6, [pc], #-388
    132c:	2f346261 	svccs	0x00346261
    1330:	6e72656b 	cdpvs	5, 7, cr6, cr2, cr11, {3}
    1334:	692f6c65 	stmvsdb	pc!, {r0, r2, r5, r6, sl, fp, sp, lr}
    1338:	756c636e 	strvcb	r6, [ip, #-878]!
    133c:	612f6564 	teqvs	pc, r4, ror #10
    1340:	2f006d72 	svccs	0x00006d72
    1344:	656d6f68 	strvsb	r6, [sp, #-3944]!
    1348:	736f792f 	cmnvc	pc, #770048	; 0xbc000
    134c:	6b616968 	blvs	185b8f4 <_start-0xa17a470c>
    1350:	72442f69 	subvc	r2, r4, #420	; 0x1a4
    1354:	6f62706f 	svcvs	0x0062706f
    1358:	6f442f78 	svcvs	0x00442f78
    135c:	656d7563 	strvsb	r7, [sp, #-1379]!
    1360:	2f73746e 	svccs	0x0073746e
    1364:	2f554d43 	svccs	0x00554d43
    1368:	73616c63 	cmnvc	r1, #25344	; 0x6300
    136c:	30322f73 	eorccs	r2, r2, r3, ror pc
    1370:	465f3331 	undefined
    1374:	2f6c6c61 	svccs	0x006c6c61
    1378:	332d3831 	teqcc	sp, #3211264	; 0x310000
    137c:	4c2f3234 	sfmmi	f3, 4, [pc], #-208
    1380:	6e2f6261 	cdpvs	2, 2, cr6, cr15, cr1, {3}
    1384:	616d726f 	cmnvs	sp, pc, ror #4
    1388:	616c2f6e 	cmnvs	ip, lr, ror #30
    138c:	6b2f3462 	blvs	bce51c <_start-0xa2431ae4>
    1390:	656e7265 	strvsb	r7, [lr, #-613]!
    1394:	6e692f6c 	cdpvs	15, 6, cr2, cr9, cr12, {3}
    1398:	64756c63 	ldrvsbt	r6, [r5], #-3171
    139c:	73000065 	movwvc	r0, #101	; 0x65
    13a0:	64656863 	strvsbt	r6, [r5], #-2147
    13a4:	0100632e 	tsteq	r0, lr, lsr #6
    13a8:	78650000 	stmvcda	r5!, {}^
    13ac:	74706563 	ldrvcbt	r6, [r0], #-1379
    13b0:	2e6e6f69 	cdpcs	15, 6, cr6, cr14, cr9, {3}
    13b4:	00020068 	andeq	r0, r2, r8, rrx
    13b8:	70797400 	rsbvcs	r7, r9, r0, lsl #8
    13bc:	682e7365 	stmvsda	lr!, {r0, r2, r5, r6, r8, r9, ip, sp, lr}
    13c0:	00000300 	andeq	r0, r0, r0, lsl #6
    13c4:	6b736174 	blvs	1cd999c <_start-0xa1326664>
    13c8:	0300682e 	movweq	r6, #2094	; 0x82e
    13cc:	04000000 	streq	r0, [r0]
    13d0:	02050002 	andeq	r0, r5, #2	; 0x2
    13d4:	a3000bc8 	movwge	r0, #3016	; 0xbc8
    13d8:	30013803 	andcc	r3, r1, r3, lsl #16
    13dc:	316e0104 	cmncc	lr, r4, lsl #2
    13e0:	7903312f 	stmvcdb	r3, {r0, r1, r2, r3, r5, r8, ip, sp}
    13e4:	312f352e 	teqcc	pc, lr, lsr #10
    13e8:	032f312d 	teqeq	pc, #1073741835	; 0x4000000b
    13ec:	0f032e73 	svceq	0x00032e73
    13f0:	7a032c2e 	bvc	cc4b0 <_start-0xa2f33b50>
    13f4:	2f2f2f2e 	svccs	0x002f2f2e
    13f8:	2f302f30 	svccs	0x00302f30
    13fc:	4a36032f 	bmi	d820c0 <_start-0xa227df40>
    1400:	674b2f2e 	strvsb	r2, [fp, -lr, lsr #30]
    1404:	83838367 	orrhi	r8, r3, #-1677721599	; 0x9c000001
    1408:	83838383 	orrhi	r8, r3, #201326594	; 0xc000002
    140c:	2d4b6783 	stccsl	7, cr6, [fp, #-524]
    1410:	ac086303 	stcge	3, cr6, [r8], {3}
    1414:	692f4d4a 	stmvsdb	pc!, {r1, r3, r6, r8, sl, fp, lr}
    1418:	2a4c644c 	bcs	131a550 <_start-0xa1ce5ab0>
    141c:	032a6830 	teqeq	sl, #3145728	; 0x300000
    1420:	2f2e7fb3 	svccs	0x002e7fb3
    1424:	2f322932 	svccs	0x00322932
    1428:	312c2f48 	teqcc	ip, r8, asr #30
    142c:	00cf0330 	sbceq	r0, pc, r0, lsr r3
    1430:	d6570366 	ldrleb	r0, [r7], -r6, ror #6
    1434:	302f2934 	eorcc	r2, pc, r4, lsr r9
    1438:	2b4c302b 	blcs	130d4ec <_start-0xa1cf2b14>
    143c:	67683030 	undefined
    1440:	04022d2f 	streq	r2, [r2], #-3375
    1444:	ff010100 	undefined instruction 0xff010100
    1448:	02000000 	andeq	r0, r0, #0	; 0x0
    144c:	0000e900 	andeq	lr, r0, r0, lsl #18
    1450:	fb010200 	blx	41c5a <_start-0xa2fbe3a6>
    1454:	01000d0e 	tsteq	r0, lr, lsl #26
    1458:	00010101 	andeq	r0, r1, r1, lsl #2
    145c:	00010000 	andeq	r0, r1, r0
    1460:	682f0100 	stmvsda	pc!, {r8}
    1464:	2f656d6f 	svccs	0x00656d6f
    1468:	68736f79 	ldmvsda	r3!, {r0, r3, r4, r5, r6, r8, r9, sl, fp, sp, lr}^
    146c:	696b6169 	stmvsdb	fp!, {r0, r3, r5, r6, r8, sp, lr}^
    1470:	6f72442f 	svcvs	0x0072442f
    1474:	786f6270 	stmvcda	pc!, {r4, r5, r6, r9, sp, lr}^
    1478:	636f442f 	cmnvs	pc, #788529152	; 0x2f000000
    147c:	6e656d75 	mcrvs	13, 3, r6, cr5, cr5, {3}
    1480:	432f7374 	teqmi	pc, #-805306367	; 0xd0000001
    1484:	632f554d 	teqvs	pc, #322961408	; 0x13400000
    1488:	7373616c 	cmnvc	r3, #27	; 0x1b
    148c:	3130322f 	teqcc	r0, pc, lsr #4
    1490:	61465f33 	cmpvs	r6, r3, lsr pc
    1494:	312f6c6c 	teqcc	pc, ip, ror #24
    1498:	34332d38 	ldrcct	r2, [r3], #-3384
    149c:	614c2f32 	cmpvs	ip, r2, lsr pc
    14a0:	6f6e2f62 	svcvs	0x006e2f62
    14a4:	6e616d72 	mcrvs	13, 3, r6, cr1, cr2, {3}
    14a8:	62616c2f 	rsbvs	r6, r1, #12032	; 0x2f00
    14ac:	656b2f34 	strvsb	r2, [fp, #-3892]!
    14b0:	6c656e72 	stcvsl	14, cr6, [r5], #-456
    14b4:	6863732f 	stmvsda	r3!, {r0, r1, r2, r3, r5, r8, r9, ip, sp, lr}^
    14b8:	2f006465 	svccs	0x00006465
    14bc:	656d6f68 	strvsb	r6, [sp, #-3944]!
    14c0:	736f792f 	cmnvc	pc, #770048	; 0xbc000
    14c4:	6b616968 	blvs	185ba6c <_start-0xa17a4594>
    14c8:	72442f69 	subvc	r2, r4, #420	; 0x1a4
    14cc:	6f62706f 	svcvs	0x0062706f
    14d0:	6f442f78 	svcvs	0x00442f78
    14d4:	656d7563 	strvsb	r7, [sp, #-1379]!
    14d8:	2f73746e 	svccs	0x0073746e
    14dc:	2f554d43 	svccs	0x00554d43
    14e0:	73616c63 	cmnvc	r1, #25344	; 0x6300
    14e4:	30322f73 	eorccs	r2, r2, r3, ror pc
    14e8:	465f3331 	undefined
    14ec:	2f6c6c61 	svccs	0x006c6c61
    14f0:	332d3831 	teqcc	sp, #3211264	; 0x310000
    14f4:	4c2f3234 	sfmmi	f3, 4, [pc], #-208
    14f8:	6e2f6261 	cdpvs	2, 2, cr6, cr15, cr1, {3}
    14fc:	616d726f 	cmnvs	sp, pc, ror #4
    1500:	616c2f6e 	cmnvs	ip, lr, ror #30
    1504:	6b2f3462 	blvs	bce694 <_start-0xa243196c>
    1508:	656e7265 	strvsb	r7, [lr, #-613]!
    150c:	6e692f6c 	cdpvs	15, 6, cr2, cr9, cr12, {3}
    1510:	64756c63 	ldrvsbt	r6, [r5], #-3171
    1514:	75000065 	strvc	r0, [r0, #-101]
    1518:	65745f62 	ldrvsb	r5, [r4, #-3938]!
    151c:	632e7473 	teqvs	lr, #1929379840	; 0x73000000
    1520:	00000100 	andeq	r0, r0, r0, lsl #2
    1524:	6b736174 	blvs	1cd9afc <_start-0xa1326504>
    1528:	0200682e 	andeq	r6, r0, #3014656	; 0x2e0000
    152c:	79740000 	ldmvcdb	r4!, {}^
    1530:	2e736570 	mrccs	5, 3, r6, cr3, cr0, {3}
    1534:	00020068 	andeq	r0, r2, r8, rrx
    1538:	05000000 	streq	r0, [r0]
    153c:	000e3002 	andeq	r3, lr, r2
    1540:	012803a3 	smulwbeq	r8, r3, r3
    1544:	0002022e 	andeq	r0, r2, lr, lsr #4
    1548:	01470101 	cmpeq	r7, r1, lsl #2
    154c:	00020000 	andeq	r0, r2, r0
    1550:	000000ec 	andeq	r0, r0, ip, ror #1
    1554:	0efb0102 	cdpeq	1, 15, cr0, cr11, cr2, {0}
    1558:	0101000d 	tsteq	r1, sp
    155c:	00000101 	andeq	r0, r0, r1, lsl #2
    1560:	00000100 	andeq	r0, r0, r0, lsl #2
    1564:	6f682f01 	svcvs	0x00682f01
    1568:	792f656d 	stmvcdb	pc!, {r0, r2, r3, r5, r6, r8, sl, sp, lr}
    156c:	6968736f 	stmvsdb	r8!, {r0, r1, r2, r3, r5, r6, r8, r9, ip, sp, lr}^
    1570:	2f696b61 	svccs	0x00696b61
    1574:	706f7244 	rsbvc	r7, pc, r4, asr #4
    1578:	2f786f62 	svccs	0x00786f62
    157c:	75636f44 	strvcb	r6, [r3, #-3908]!
    1580:	746e656d 	strvcbt	r6, [lr], #-1389
    1584:	4d432f73 	stcmil	15, cr2, [r3, #-460]
    1588:	6c632f55 	stcvsl	15, cr2, [r3], #-340
    158c:	2f737361 	svccs	0x00737361
    1590:	33313032 	teqcc	r1, #50	; 0x32
    1594:	6c61465f 	stcvsl	6, cr4, [r1], #-380
    1598:	38312f6c 	ldmccda	r1!, {r2, r3, r5, r6, r8, r9, sl, fp, sp}
    159c:	3234332d 	eorccs	r3, r4, #-1275068416	; 0xb4000000
    15a0:	62614c2f 	rsbvs	r4, r1, #12032	; 0x2f00
    15a4:	726f6e2f 	rsbvc	r6, pc, #752	; 0x2f0
    15a8:	2f6e616d 	svccs	0x006e616d
    15ac:	3462616c 	strccbt	r6, [r2], #-364
    15b0:	72656b2f 	rsbvc	r6, r5, #48128	; 0xbc00
    15b4:	2f6c656e 	svccs	0x006c656e
    15b8:	65686373 	strvsb	r6, [r8, #-883]!
    15bc:	682f0064 	stmvsda	pc!, {r2, r5, r6}
    15c0:	2f656d6f 	svccs	0x00656d6f
    15c4:	68736f79 	ldmvsda	r3!, {r0, r3, r4, r5, r6, r8, r9, sl, fp, sp, lr}^
    15c8:	696b6169 	stmvsdb	fp!, {r0, r3, r5, r6, r8, sp, lr}^
    15cc:	6f72442f 	svcvs	0x0072442f
    15d0:	786f6270 	stmvcda	pc!, {r4, r5, r6, r9, sp, lr}^
    15d4:	636f442f 	cmnvs	pc, #788529152	; 0x2f000000
    15d8:	6e656d75 	mcrvs	13, 3, r6, cr5, cr5, {3}
    15dc:	432f7374 	teqmi	pc, #-805306367	; 0xd0000001
    15e0:	632f554d 	teqvs	pc, #322961408	; 0x13400000
    15e4:	7373616c 	cmnvc	r3, #27	; 0x1b
    15e8:	3130322f 	teqcc	r0, pc, lsr #4
    15ec:	61465f33 	cmpvs	r6, r3, lsr pc
    15f0:	312f6c6c 	teqcc	pc, ip, ror #24
    15f4:	34332d38 	ldrcct	r2, [r3], #-3384
    15f8:	614c2f32 	cmpvs	ip, r2, lsr pc
    15fc:	6f6e2f62 	svcvs	0x006e2f62
    1600:	6e616d72 	mcrvs	13, 3, r6, cr1, cr2, {3}
    1604:	62616c2f 	rsbvs	r6, r1, #12032	; 0x2f00
    1608:	656b2f34 	strvsb	r2, [fp, #-3892]!
    160c:	6c656e72 	stcvsl	14, cr6, [r5], #-456
    1610:	636e692f 	cmnvs	lr, #770048	; 0xbc000
    1614:	6564756c 	strvsb	r7, [r4, #-1388]!
    1618:	74630000 	strvcbt	r0, [r3]
    161c:	77735f78 	undefined
    1620:	68637469 	stmvsda	r3!, {r0, r3, r5, r6, sl, ip, sp, lr}^
    1624:	0100632e 	tsteq	r0, lr, lsr #6
    1628:	61740000 	cmnvs	r4, r0
    162c:	682e6b73 	stmvsda	lr!, {r0, r1, r4, r5, r6, r8, r9, fp, sp, lr}
    1630:	00000200 	andeq	r0, r0, r0, lsl #4
    1634:	65707974 	ldrvsb	r7, [r0, #-2420]!
    1638:	00682e73 	rsbeq	r2, r8, r3, ror lr
    163c:	00000002 	andeq	r0, r0, r2
    1640:	38020500 	stmccda	r2, {r8, sl}
    1644:	03a3000e 	moveq	r0, #14	; 0xe
    1648:	2f2e0126 	svccs	0x002e0126
    164c:	4a00d703 	bmi	37260 <_start-0xa2fc8da0>
    1650:	2e524b2e 	fmscdcs	d20, d2, d30
    1654:	31664e03 	cmncc	r6, r3, lsl #28
    1658:	302d2f2f 	eorcc	r2, sp, pc, lsr #30
    165c:	58032f2d 	stmplda	r3, {r0, r2, r3, r5, r8, r9, sl, fp, sp}
    1660:	2f84344a 	svccs	0x0084344a
    1664:	03821003 	orreq	r1, r2, #3	; 0x3
    1668:	2f322e71 	svccs	0x00322e71
    166c:	312b332d 	teqcc	fp, sp, lsr #6
    1670:	4b4b4b2f 	blmi	12d4334 <_start-0xa1d2bccc>
    1674:	032d4b4b 	teqeq	sp, #76800	; 0x12c00
    1678:	2f339e1b 	svccs	0x00339e1b
    167c:	032e1a03 	teqeq	lr, #12288	; 0x3000
    1680:	0b032e66 	bleq	cd020 <_start-0xa2f32fe0>
    1684:	2e0f032e 	cdpcs	3, 0, cr0, cr15, cr14, {1}
    1688:	032e6803 	teqeq	lr, #196608	; 0x30000
    168c:	2d2f2e09 	stccs	14, cr2, [pc, #-36]!
    1690:	01000402 	tsteq	r0, r2, lsl #8
    1694:	00014501 	andeq	r4, r1, r1, lsl #10
    1698:	eb000200 	bl	1ea0 <_start-0xa2ffe160>
    169c:	02000000 	andeq	r0, r0, #0	; 0x0
    16a0:	0d0efb01 	vstreq	d15, [lr, #-4]
    16a4:	01010100 	tsteq	r1, r0, lsl #2
    16a8:	00000001 	andeq	r0, r0, r1
    16ac:	01000001 	tsteq	r0, r1
    16b0:	6d6f682f 	stcvsl	8, cr6, [pc, #-188]!
    16b4:	6f792f65 	svcvs	0x00792f65
    16b8:	61696873 	smcvs	38531
    16bc:	442f696b 	strmit	r6, [pc], #2411	; 16c4 <_start-0xa2ffe93c>
    16c0:	62706f72 	rsbvss	r6, r0, #456	; 0x1c8
    16c4:	442f786f 	strmit	r7, [pc], #2159	; 16cc <_start-0xa2ffe934>
    16c8:	6d75636f 	ldcvsl	3, cr6, [r5, #-444]!
    16cc:	73746e65 	cmnvc	r4, #1616	; 0x650
    16d0:	554d432f 	strplb	r4, [sp, #-815]
    16d4:	616c632f 	cmnvs	ip, pc, lsr #6
    16d8:	322f7373 	eorcc	r7, pc, #-872415231	; 0xcc000001
    16dc:	5f333130 	svcpl	0x00333130
    16e0:	6c6c6146 	stfvse	f6, [ip], #-280
    16e4:	2d38312f 	ldfcss	f3, [r8, #-188]!
    16e8:	2f323433 	svccs	0x00323433
    16ec:	2f62614c 	svccs	0x0062614c
    16f0:	6d726f6e 	ldcvsl	15, cr6, [r2, #-440]!
    16f4:	6c2f6e61 	stcvs	14, cr6, [pc], #-388
    16f8:	2f346261 	svccs	0x00346261
    16fc:	6e72656b 	cdpvs	5, 7, cr6, cr2, cr11, {3}
    1700:	732f6c65 	teqvc	pc, #25856	; 0x6500
    1704:	64656863 	strvsbt	r6, [r5], #-2147
    1708:	6f682f00 	svcvs	0x00682f00
    170c:	792f656d 	stmvcdb	pc!, {r0, r2, r3, r5, r6, r8, sl, sp, lr}
    1710:	6968736f 	stmvsdb	r8!, {r0, r1, r2, r3, r5, r6, r8, r9, ip, sp, lr}^
    1714:	2f696b61 	svccs	0x00696b61
    1718:	706f7244 	rsbvc	r7, pc, r4, asr #4
    171c:	2f786f62 	svccs	0x00786f62
    1720:	75636f44 	strvcb	r6, [r3, #-3908]!
    1724:	746e656d 	strvcbt	r6, [lr], #-1389
    1728:	4d432f73 	stcmil	15, cr2, [r3, #-460]
    172c:	6c632f55 	stcvsl	15, cr2, [r3], #-340
    1730:	2f737361 	svccs	0x00737361
    1734:	33313032 	teqcc	r1, #50	; 0x32
    1738:	6c61465f 	stcvsl	6, cr4, [r1], #-380
    173c:	38312f6c 	ldmccda	r1!, {r2, r3, r5, r6, r8, r9, sl, fp, sp}
    1740:	3234332d 	eorccs	r3, r4, #-1275068416	; 0xb4000000
    1744:	62614c2f 	rsbvs	r4, r1, #12032	; 0x2f00
    1748:	726f6e2f 	rsbvc	r6, pc, #752	; 0x2f0
    174c:	2f6e616d 	svccs	0x006e616d
    1750:	3462616c 	strccbt	r6, [r2], #-364
    1754:	72656b2f 	rsbvc	r6, r5, #48128	; 0xbc00
    1758:	2f6c656e 	svccs	0x006c656e
    175c:	6c636e69 	stcvsl	14, cr6, [r3], #-420
    1760:	00656475 	rsbeq	r6, r5, r5, ror r4
    1764:	6e757200 	cdpvs	2, 7, cr7, cr5, cr0, {0}
    1768:	6575715f 	ldrvsb	r7, [r5, #-351]!
    176c:	632e6575 	teqvs	lr, #490733568	; 0x1d400000
    1770:	00000100 	andeq	r0, r0, r0, lsl #2
    1774:	6b736174 	blvs	1cd9d4c <_start-0xa13262b4>
    1778:	0200682e 	andeq	r6, r0, #3014656	; 0x2e0000
    177c:	79740000 	ldmvcdb	r4!, {}^
    1780:	2e736570 	mrccs	5, 3, r6, cr3, cr0, {3}
    1784:	00020068 	andeq	r0, r2, r8, rrx
    1788:	05000000 	streq	r0, [r0]
    178c:	000f8c02 	andeq	r8, pc, r2, lsl #24
    1790:	00c703a3 	sbceq	r0, r7, r3, lsr #7
    1794:	49306601 	ldmmidb	r0!, {r0, r9, sl, sp, lr}
    1798:	036b4886 	cmneq	fp, #8781824	; 0x860000
    179c:	0903ba0b 	stmeqdb	r3, {r0, r1, r3, r9, fp, ip, sp, pc}
    17a0:	2e77032e 	cdpcs	3, 7, cr0, cr7, cr14, {1}
    17a4:	312b4d34 	teqcc	fp, r4, lsr sp
    17a8:	312b312b 	teqcc	fp, fp, lsr #2
    17ac:	2e7a0331 	mrccs	3, 3, r0, cr10, cr1, {1}
    17b0:	16033034 	undefined
    17b4:	2e750382 	cdpcs	3, 7, cr0, cr5, cr2, {4}
    17b8:	03863152 	orreq	r3, r6, #-2147483628	; 0x80000014
    17bc:	0c032e73 	stceq	14, cr2, [r3], {115}
    17c0:	7a032b2e 	bvc	cc480 <_start-0xa2f33b80>
    17c4:	03312b2e 	teqeq	r1, #47104	; 0xb800
    17c8:	03682e0a 	cmneq	r8, #160	; 0xa0
    17cc:	be4a820a 	cdplt	2, 4, cr8, cr10, cr10, {0}
    17d0:	49bc30a0 	ldmmiib	ip!, {r5, r7, ip, sp}
    17d4:	2f4c492f 	svccs	0x004c492f
    17d8:	000c022d 	andeq	r0, ip, sp, lsr #4
    17dc:	01600101 	cmneq	r0, r1, lsl #2
    17e0:	00020000 	andeq	r0, r2, r0
    17e4:	000000f0 	streqd	r0, [r0], -r0
    17e8:	0efb0102 	cdpeq	1, 15, cr0, cr11, cr2, {0}
    17ec:	0101000d 	tsteq	r1, sp
    17f0:	00000101 	andeq	r0, r0, r1, lsl #2
    17f4:	00000100 	andeq	r0, r0, r0, lsl #2
    17f8:	6f682f01 	svcvs	0x00682f01
    17fc:	792f656d 	stmvcdb	pc!, {r0, r2, r3, r5, r6, r8, sl, sp, lr}
    1800:	6968736f 	stmvsdb	r8!, {r0, r1, r2, r3, r5, r6, r8, r9, ip, sp, lr}^
    1804:	2f696b61 	svccs	0x00696b61
    1808:	706f7244 	rsbvc	r7, pc, r4, asr #4
    180c:	2f786f62 	svccs	0x00786f62
    1810:	75636f44 	strvcb	r6, [r3, #-3908]!
    1814:	746e656d 	strvcbt	r6, [lr], #-1389
    1818:	4d432f73 	stcmil	15, cr2, [r3, #-460]
    181c:	6c632f55 	stcvsl	15, cr2, [r3], #-340
    1820:	2f737361 	svccs	0x00737361
    1824:	33313032 	teqcc	r1, #50	; 0x32
    1828:	6c61465f 	stcvsl	6, cr4, [r1], #-380
    182c:	38312f6c 	ldmccda	r1!, {r2, r3, r5, r6, r8, r9, sl, fp, sp}
    1830:	3234332d 	eorccs	r3, r4, #-1275068416	; 0xb4000000
    1834:	62614c2f 	rsbvs	r4, r1, #12032	; 0x2f00
    1838:	726f6e2f 	rsbvc	r6, pc, #752	; 0x2f0
    183c:	2f6e616d 	svccs	0x006e616d
    1840:	3462616c 	strccbt	r6, [r2], #-364
    1844:	72656b2f 	rsbvc	r6, r5, #48128	; 0xbc00
    1848:	2f6c656e 	svccs	0x006c656e
    184c:	6b636f6c 	blvs	18dd604 <_start-0xa17229fc>
    1850:	6f682f00 	svcvs	0x00682f00
    1854:	792f656d 	stmvcdb	pc!, {r0, r2, r3, r5, r6, r8, sl, sp, lr}
    1858:	6968736f 	stmvsdb	r8!, {r0, r1, r2, r3, r5, r6, r8, r9, ip, sp, lr}^
    185c:	2f696b61 	svccs	0x00696b61
    1860:	706f7244 	rsbvc	r7, pc, r4, asr #4
    1864:	2f786f62 	svccs	0x00786f62
    1868:	75636f44 	strvcb	r6, [r3, #-3908]!
    186c:	746e656d 	strvcbt	r6, [lr], #-1389
    1870:	4d432f73 	stcmil	15, cr2, [r3, #-460]
    1874:	6c632f55 	stcvsl	15, cr2, [r3], #-340
    1878:	2f737361 	svccs	0x00737361
    187c:	33313032 	teqcc	r1, #50	; 0x32
    1880:	6c61465f 	stcvsl	6, cr4, [r1], #-380
    1884:	38312f6c 	ldmccda	r1!, {r2, r3, r5, r6, r8, r9, sl, fp, sp}
    1888:	3234332d 	eorccs	r3, r4, #-1275068416	; 0xb4000000
    188c:	62614c2f 	rsbvs	r4, r1, #12032	; 0x2f00
    1890:	726f6e2f 	rsbvc	r6, pc, #752	; 0x2f0
    1894:	2f6e616d 	svccs	0x006e616d
    1898:	3462616c 	strccbt	r6, [r2], #-364
    189c:	72656b2f 	rsbvc	r6, r5, #48128	; 0xbc00
    18a0:	2f6c656e 	svccs	0x006c656e
    18a4:	6c636e69 	stcvsl	14, cr6, [r3], #-420
    18a8:	00656475 	rsbeq	r6, r5, r5, ror r4
    18ac:	74756d00 	ldrvcbt	r6, [r5], #-3328
    18b0:	632e7865 	teqvs	lr, #6619136	; 0x650000
    18b4:	00000100 	andeq	r0, r0, r0, lsl #2
    18b8:	65707974 	ldrvsb	r7, [r0, #-2420]!
    18bc:	00682e73 	rsbeq	r2, r8, r3, ror lr
    18c0:	74000002 	strvc	r0, [r0], #-2
    18c4:	2e6b7361 	cdpcs	3, 6, cr7, cr11, cr1, {3}
    18c8:	00020068 	andeq	r0, r2, r8, rrx
    18cc:	636f6c00 	cmnvs	pc, #0	; 0x0
    18d0:	00682e6b 	rsbeq	r2, r8, fp, ror #28
    18d4:	00000002 	andeq	r0, r0, r2
    18d8:	10020500 	andne	r0, r2, r0, lsl #10
    18dc:	03a30011 	moveq	r0, #17	; 0x11
    18e0:	3033011e 	eorccs	r0, r3, lr, lsl r1
    18e4:	302a2f2c 	eorcc	r2, sl, ip, lsr #30
    18e8:	6951294d 	ldmvsdb	r1, {r0, r2, r3, r6, r8, fp, sp}^
    18ec:	3048322e 	subcc	r3, r8, lr, lsr #4
    18f0:	09037e4c 	stmeqdb	r3, {r2, r3, r6, r9, sl, fp, ip, sp, lr}
    18f4:	302e4f82 	eorcc	r4, lr, r2, lsl #31
    18f8:	032b2f4c 	teqeq	fp, #304	; 0x130
    18fc:	6b2c4a0a 	blvs	b1412c <_start-0xa24ebed4>
    1900:	2a661f03 	bcs	1989514 <_start-0xa1676aec>
    1904:	87322a32 	undefined
    1908:	6c304830 	ldcvs	8, cr4, [r0], #-192
    190c:	4a7a0334 	bmi	1e825e4 <_start-0xa117da1c>
    1910:	2d2f2d31 	stccs	13, cr2, [pc, #-196]!
    1914:	692f342c 	stmvsdb	pc!, {r2, r3, r5, sl, ip, sp}
    1918:	6650032f 	ldrvsb	r0, [r0], -pc, lsr #6
    191c:	2f302f2d 	svccs	0x00302f2d
    1920:	4c2c304e 	stcmi	0, cr3, [ip], #-312
    1924:	4d2f4d4b 	stcmi	13, cr4, [pc, #-300]!
    1928:	6629032b 	strvst	r0, [r9], -fp, lsr #6
    192c:	322a322a 	eorcc	r3, sl, #-1610612734	; 0xa0000002
    1930:	0a033187 	beq	cdf54 <_start-0xa2f320ac>
    1934:	2e760382 	cdpcs	3, 7, cr0, cr6, cr2, {4}
    1938:	68322d35 	ldmvsda	r2!, {r0, r2, r4, r5, r8, sl, fp, sp}
    193c:	0006022f 	andeq	r0, r6, pc, lsr #4
    1940:	01050101 	tsteq	r5, r1, lsl #2
    1944:	00020000 	andeq	r0, r2, r0
    1948:	000000d8 	ldreqd	r0, [r0], -r8
    194c:	0efb0102 	cdpeq	1, 15, cr0, cr11, cr2, {0}
    1950:	0101000d 	tsteq	r1, sp
    1954:	00000101 	andeq	r0, r0, r1, lsl #2
    1958:	00000100 	andeq	r0, r0, r0, lsl #2
    195c:	6f682f01 	svcvs	0x00682f01
    1960:	792f656d 	stmvcdb	pc!, {r0, r2, r3, r5, r6, r8, sl, sp, lr}
    1964:	6968736f 	stmvsdb	r8!, {r0, r1, r2, r3, r5, r6, r8, r9, ip, sp, lr}^
    1968:	2f696b61 	svccs	0x00696b61
    196c:	706f7244 	rsbvc	r7, pc, r4, asr #4
    1970:	2f786f62 	svccs	0x00786f62
    1974:	75636f44 	strvcb	r6, [r3, #-3908]!
    1978:	746e656d 	strvcbt	r6, [lr], #-1389
    197c:	4d432f73 	stcmil	15, cr2, [r3, #-460]
    1980:	6c632f55 	stcvsl	15, cr2, [r3], #-340
    1984:	2f737361 	svccs	0x00737361
    1988:	33313032 	teqcc	r1, #50	; 0x32
    198c:	6c61465f 	stcvsl	6, cr4, [r1], #-380
    1990:	38312f6c 	ldmccda	r1!, {r2, r3, r5, r6, r8, r9, sl, fp, sp}
    1994:	3234332d 	eorccs	r3, r4, #-1275068416	; 0xb4000000
    1998:	62614c2f 	rsbvs	r4, r1, #12032	; 0x2f00
    199c:	726f6e2f 	rsbvc	r6, pc, #752	; 0x2f0
    19a0:	2f6e616d 	svccs	0x006e616d
    19a4:	3462616c 	strccbt	r6, [r2], #-364
    19a8:	6f62752f 	svcvs	0x0062752f
    19ac:	2f00746f 	svccs	0x0000746f
    19b0:	656d6f68 	strvsb	r6, [sp, #-3944]!
    19b4:	736f792f 	cmnvc	pc, #770048	; 0xbc000
    19b8:	6b616968 	blvs	185bf60 <_start-0xa17a40a0>
    19bc:	72442f69 	subvc	r2, r4, #420	; 0x1a4
    19c0:	6f62706f 	svcvs	0x0062706f
    19c4:	6f442f78 	svcvs	0x00442f78
    19c8:	656d7563 	strvsb	r7, [sp, #-1379]!
    19cc:	2f73746e 	svccs	0x0073746e
    19d0:	2f554d43 	svccs	0x00554d43
    19d4:	73616c63 	cmnvc	r1, #25344	; 0x6300
    19d8:	30322f73 	eorccs	r2, r2, r3, ror pc
    19dc:	465f3331 	undefined
    19e0:	2f6c6c61 	svccs	0x006c6c61
    19e4:	332d3831 	teqcc	sp, #3211264	; 0x310000
    19e8:	4c2f3234 	sfmmi	f3, 4, [pc], #-208
    19ec:	6e2f6261 	cdpvs	2, 2, cr6, cr15, cr1, {3}
    19f0:	616d726f 	cmnvs	sp, pc, ror #4
    19f4:	616c2f6e 	cmnvs	ip, lr, ror #30
    19f8:	752f3462 	strvc	r3, [pc, #-1122]!	; 159e <_start-0xa2ffea62>
    19fc:	746f6f62 	strvcbt	r6, [pc], #3938	; 1a04 <_start-0xa2ffe5fc>
    1a00:	636e692f 	cmnvs	lr, #770048	; 0xbc000
    1a04:	6564756c 	strvsb	r7, [r4, #-1388]!
    1a08:	74730000 	ldrvcbt	r0, [r3]
    1a0c:	2e736275 	mrccs	2, 3, r6, cr3, cr5, {3}
    1a10:	00010063 	andeq	r0, r1, r3, rrx
    1a14:	78655f00 	stmvcda	r5!, {r8, r9, sl, fp, ip, lr}^
    1a18:	74726f70 	ldrvcbt	r6, [r2], #-3952
    1a1c:	00682e73 	rsbeq	r2, r8, r3, ror lr
    1a20:	00000002 	andeq	r0, r0, r2
    1a24:	05000204 	streq	r0, [r0, #-516]
    1a28:	0012fc02 	andeqs	pc, r2, r2, lsl #24
    1a2c:	4b4b14a3 	blmi	12c6cc0 <_start-0xa1d39340>
    1a30:	4b4b4b4b 	blmi	12d4764 <_start-0xa1d2b89c>
    1a34:	4b4b4b4b 	blmi	12d4768 <_start-0xa1d2b898>
    1a38:	4b4b4b4b 	blmi	12d476c <_start-0xa1d2b894>
    1a3c:	01044b4b 	tsteq	r4, fp, asr #22
    1a40:	4f4a1b03 	svcmi	0x004a1b03
    1a44:	06026949 	streq	r6, [r2], -r9, asr #18
    1a48:	d4010100 	strle	r0, [r1], #-256
    1a4c:	02000000 	andeq	r0, r0, #0	; 0x0
    1a50:	00009700 	andeq	r9, r0, r0, lsl #14
    1a54:	fb010200 	blx	4225e <_start-0xa2fbdda2>
    1a58:	01000d0e 	tsteq	r0, lr, lsl #26
    1a5c:	00010101 	andeq	r0, r1, r1, lsl #2
    1a60:	00010000 	andeq	r0, r1, r0
    1a64:	612f0100 	teqvs	pc, r0, lsl #2
    1a68:	652f7366 	strvs	r7, [pc, #-870]!	; 170a <_start-0xa2ffe8f6>
    1a6c:	632e6563 	teqvs	lr, #415236096	; 0x18c00000
    1a70:	652e756d 	strvs	r7, [lr, #-1389]!
    1a74:	632f7564 	teqvs	pc, #419430400	; 0x19000000
    1a78:	7373616c 	cmnvc	r3, #27	; 0x1b
    1a7c:	3365652f 	cmncc	r5, #197132288	; 0xbc00000
    1a80:	672f3934 	undefined
    1a84:	74736d75 	ldrvcbt	r6, [r3], #-3445
    1a88:	682f7869 	stmvsda	pc!, {r0, r3, r5, r6, fp, ip, sp, lr}
    1a8c:	75672f67 	strvcb	r2, [r7, #-3943]!
    1a90:	6974736d 	ldmvsdb	r4!, {r0, r2, r3, r5, r6, r8, r9, ip, sp, lr}^
    1a94:	75622d78 	strvcb	r2, [r2, #-3448]!
    1a98:	72646c69 	rsbvc	r6, r4, #26880	; 0x6900
    1a9c:	2e746f6f 	cdpcs	15, 7, cr6, cr4, cr15, {3}
    1aa0:	736f7263 	cmnvc	pc, #805306374	; 0x30000006
    1aa4:	6f742f73 	svcvs	0x00742f73
    1aa8:	68636c6f 	stmvsda	r3!, {r0, r1, r2, r3, r5, r6, sl, fp, sp, lr}^
    1aac:	5f6e6961 	svcpl	0x006e6961
    1ab0:	6c697562 	cfstr64vs	mvdx7, [r9], #-392
    1ab4:	72615f64 	rsbvc	r5, r1, #400	; 0x190
    1ab8:	6f6e5f6d 	svcvs	0x006e5f6d
    1abc:	2f757066 	svccs	0x00757066
    1ac0:	2d636367 	stccsl	3, cr6, [r3, #-412]!
    1ac4:	2e312e34 	mrccs	14, 1, r2, cr1, cr4, {1}
    1ac8:	63672f31 	cmnvs	r7, #196	; 0xc4
    1acc:	6f632f63 	svcvs	0x00632f63
    1ad0:	6769666e 	strvsb	r6, [r9, -lr, ror #12]!
    1ad4:	6d72612f 	ldfvse	f6, [r2, #-188]!
    1ad8:	696c0000 	stmvsdb	ip!, {}^
    1adc:	75663162 	strvcb	r3, [r6, #-354]!
    1ae0:	2e73636e 	cdpcs	3, 7, cr6, cr3, cr14, {3}
    1ae4:	006d7361 	rsbeq	r7, sp, r1, ror #6
    1ae8:	00000001 	andeq	r0, r0, r1
    1aec:	ac020500 	cfstr32ge	mvfx0, [r2], {0}
    1af0:	03a30013 	moveq	r0, #19	; 0x13
    1af4:	2f0105d9 	svccs	0x000105d9
    1af8:	2f2f2f2f 	svccs	0x002f2f2f
    1afc:	7d8b032f 	stcvc	3, cr0, [fp, #188]
    1b00:	d629032e 	strlet	r0, [r9], -lr, lsr #6
    1b04:	0802d003 	stmeqda	r2, {r0, r1, ip, lr, pc}
    1b08:	2f302fe4 	svccs	0x00302fe4
    1b0c:	2f4c302f 	svccs	0x004c302f
    1b10:	7bd10332 	blvc	ff4427e0 <__bss_end__+0x5c3ffc18>
    1b14:	04ba0366 	ldreqt	r0, [sl], #870
    1b18:	2f2f2f2e 	svccs	0x002f2f2e
    1b1c:	02022f2f 	andeq	r2, r2, #188	; 0xbc
    1b20:	c5010100 	strgt	r0, [r1, #-256]
    1b24:	02000000 	andeq	r0, r0, #0	; 0x0
    1b28:	00009700 	andeq	r9, r0, r0, lsl #14
    1b2c:	fb010200 	blx	42336 <_start-0xa2fbdcca>
    1b30:	01000d0e 	tsteq	r0, lr, lsl #26
    1b34:	00010101 	andeq	r0, r1, r1, lsl #2
    1b38:	00010000 	andeq	r0, r1, r0
    1b3c:	612f0100 	teqvs	pc, r0, lsl #2
    1b40:	652f7366 	strvs	r7, [pc, #-870]!	; 17e2 <_start-0xa2ffe81e>
    1b44:	632e6563 	teqvs	lr, #415236096	; 0x18c00000
    1b48:	652e756d 	strvs	r7, [lr, #-1389]!
    1b4c:	632f7564 	teqvs	pc, #419430400	; 0x19000000
    1b50:	7373616c 	cmnvc	r3, #27	; 0x1b
    1b54:	3365652f 	cmncc	r5, #197132288	; 0xbc00000
    1b58:	672f3934 	undefined
    1b5c:	74736d75 	ldrvcbt	r6, [r3], #-3445
    1b60:	682f7869 	stmvsda	pc!, {r0, r3, r5, r6, fp, ip, sp, lr}
    1b64:	75672f67 	strvcb	r2, [r7, #-3943]!
    1b68:	6974736d 	ldmvsdb	r4!, {r0, r2, r3, r5, r6, r8, r9, ip, sp, lr}^
    1b6c:	75622d78 	strvcb	r2, [r2, #-3448]!
    1b70:	72646c69 	rsbvc	r6, r4, #26880	; 0x6900
    1b74:	2e746f6f 	cdpcs	15, 7, cr6, cr4, cr15, {3}
    1b78:	736f7263 	cmnvc	pc, #805306374	; 0x30000006
    1b7c:	6f742f73 	svcvs	0x00742f73
    1b80:	68636c6f 	stmvsda	r3!, {r0, r1, r2, r3, r5, r6, sl, fp, sp, lr}^
    1b84:	5f6e6961 	svcpl	0x006e6961
    1b88:	6c697562 	cfstr64vs	mvdx7, [r9], #-392
    1b8c:	72615f64 	rsbvc	r5, r1, #400	; 0x190
    1b90:	6f6e5f6d 	svcvs	0x006e5f6d
    1b94:	2f757066 	svccs	0x00757066
    1b98:	2d636367 	stccsl	3, cr6, [r3, #-412]!
    1b9c:	2e312e34 	mrccs	14, 1, r2, cr1, cr4, {1}
    1ba0:	63672f31 	cmnvs	r7, #196	; 0xc4
    1ba4:	6f632f63 	svcvs	0x00632f63
    1ba8:	6769666e 	strvsb	r6, [r9, -lr, ror #12]!
    1bac:	6d72612f 	ldfvse	f6, [r2, #-188]!
    1bb0:	696c0000 	stmvsdb	ip!, {}^
    1bb4:	75663162 	strvcb	r3, [r6, #-354]!
    1bb8:	2e73636e 	cdpcs	3, 7, cr6, cr3, cr14, {3}
    1bbc:	006d7361 	rsbeq	r7, sp, r1, ror #6
    1bc0:	00000001 	andeq	r0, r0, r1
    1bc4:	70020500 	andvc	r0, r2, r0, lsl #10
    1bc8:	03a30014 	moveq	r0, #20	; 0x14
    1bcc:	2f01069e 	svccs	0x0001069e
    1bd0:	2f2f2f2f 	svccs	0x002f2f2f
    1bd4:	7db7032f 	ldcvc	3, cr0, [r7, #188]!
    1bd8:	821d032e 	andhis	r0, sp, #-1207959552	; 0xb8000000
    1bdc:	0202b003 	andeq	fp, r2, #3	; 0x3
    1be0:	03320138 	teqeq	r2, #14	; 0xe
    1be4:	02667b96 	rsbeq	r7, r6, #153600	; 0x25800
    1be8:	01010002 	tsteq	r1, r2
    1bec:	000000b3 	streqh	r0, [r0], -r3
    1bf0:	00970002 	addeqs	r0, r7, r2
    1bf4:	01020000 	tsteq	r2, r0
    1bf8:	000d0efb 	streqd	r0, [sp], -fp
    1bfc:	01010101 	tsteq	r1, r1, lsl #2
    1c00:	01000000 	tsteq	r0, r0
    1c04:	2f010000 	svccs	0x00010000
    1c08:	2f736661 	svccs	0x00736661
    1c0c:	2e656365 	cdpcs	3, 6, cr6, cr5, cr5, {3}
    1c10:	2e756d63 	cdpcs	13, 7, cr6, cr5, cr3, {3}
    1c14:	2f756465 	svccs	0x00756465
    1c18:	73616c63 	cmnvc	r1, #25344	; 0x6300
    1c1c:	65652f73 	strvsb	r2, [r5, #-3955]!
    1c20:	2f393433 	svccs	0x00393433
    1c24:	736d7567 	cmnvc	sp, #432013312	; 0x19c00000
    1c28:	2f786974 	svccs	0x00786974
    1c2c:	672f6768 	strvs	r6, [pc, -r8, ror #14]!
    1c30:	74736d75 	ldrvcbt	r6, [r3], #-3445
    1c34:	622d7869 	eorvs	r7, sp, #6881280	; 0x690000
    1c38:	646c6975 	strvsbt	r6, [ip], #-2421
    1c3c:	746f6f72 	strvcbt	r6, [pc], #3954	; 1c44 <_start-0xa2ffe3bc>
    1c40:	6f72632e 	svcvs	0x0072632e
    1c44:	742f7373 	strvct	r7, [pc], #883	; 1c4c <_start-0xa2ffe3b4>
    1c48:	636c6f6f 	cmnvs	ip, #444	; 0x1bc
    1c4c:	6e696168 	powvsez	f6, f1, #0.0
    1c50:	6975625f 	ldmvsdb	r5!, {r0, r1, r2, r3, r4, r6, r9, sp, lr}^
    1c54:	615f646c 	cmpvs	pc, ip, ror #8
    1c58:	6e5f6d72 	mrcvs	13, 2, r6, cr15, cr2, {3}
    1c5c:	7570666f 	ldrvcb	r6, [r0, #-1647]!
    1c60:	6363672f 	cmnvs	r3, #12320768	; 0xbc0000
    1c64:	312e342d 	teqcc	lr, sp, lsr #8
    1c68:	672f312e 	strvs	r3, [pc, -lr, lsr #2]!
    1c6c:	632f6363 	teqvs	pc, #-1946157055	; 0x8c000001
    1c70:	69666e6f 	stmvsdb	r6!, {r0, r1, r2, r3, r5, r6, r9, sl, fp, sp, lr}^
    1c74:	72612f67 	rsbvc	r2, r1, #412	; 0x19c
    1c78:	6c00006d 	stcvs	0, cr0, [r0], {109}
    1c7c:	66316269 	ldrvst	r6, [r1], -r9, ror #4
    1c80:	73636e75 	cmnvc	r3, #1872	; 0x750
    1c84:	6d73612e 	ldfvse	f6, [r3, #-184]!
    1c88:	00000100 	andeq	r0, r0, r0, lsl #2
    1c8c:	02050000 	andeq	r0, r5, #0	; 0x0
    1c90:	a3001520 	movwge	r1, #1312	; 0x520
    1c94:	0107e503 	tsteq	r7, r3, lsl #10
    1c98:	db032f2f 	blle	cd95c <_start-0xa2f326a4>
    1c9c:	02022e79 	andeq	r2, r2, #1936	; 0x790
    1ca0:	Address 0x00001ca0 is out of bounds.

Disassembly of section .debug_frame:

00000000 <.debug_frame>:
   0:	0000000c 	andeq	r0, r0, ip
   4:	ffffffff 	undefined instruction 0xffffffff
   8:	7c010001 	stcvc	0, cr0, [r1], {1}
   c:	000d0c0e 	andeq	r0, sp, lr, lsl #24
  10:	0000001c 	andeq	r0, r0, ip, lsl r0
  14:	00000000 	andeq	r0, r0, r0
  18:	a3000008 	movwge	r0, #8	; 0x8
  1c:	0000002c 	andeq	r0, r0, ip, lsr #32
  20:	44100e44 	ldrmi	r0, [r0], #-3652
  24:	0183140e 	orreq	r1, r3, lr, lsl #8
  28:	03810282 	orreq	r0, r1, #536870920	; 0x20000008
  2c:	00000480 	andeq	r0, r0, r0, lsl #9
  30:	0000000c 	andeq	r0, r0, ip
  34:	ffffffff 	undefined instruction 0xffffffff
  38:	7c010001 	stcvc	0, cr0, [r1], {1}
  3c:	000d0c0e 	andeq	r0, sp, lr, lsl #24
  40:	00000014 	andeq	r0, r0, r4, lsl r0
  44:	00000030 	andeq	r0, r0, r0, lsr r0
  48:	a3000034 	movwge	r0, #52	; 0x34
  4c:	000000c0 	andeq	r0, r0, r0, asr #1
  50:	8e040e60 	cdphi	14, 0, cr0, cr4, cr0, {3}
  54:	00000001 	andeq	r0, r0, r1
  58:	00000018 	andeq	r0, r0, r8, lsl r0
  5c:	00000030 	andeq	r0, r0, r0, lsr r0
  60:	a30000f4 	movwge	r0, #244	; 0xf4
  64:	00000090 	muleq	r0, r0, r0
  68:	44080e44 	strmi	r0, [r8], #-3652
  6c:	018e1c0e 	orreq	r1, lr, lr, lsl #24
  70:	00000284 	andeq	r0, r0, r4, lsl #5
  74:	0000000c 	andeq	r0, r0, ip
  78:	ffffffff 	undefined instruction 0xffffffff
  7c:	7c010001 	stcvc	0, cr0, [r1], {1}
  80:	000d0c0e 	andeq	r0, sp, lr, lsl #24
  84:	0000000c 	andeq	r0, r0, ip
  88:	00000074 	andeq	r0, r0, r4, ror r0
  8c:	a3000184 	movwge	r0, #388	; 0x184
  90:	00000028 	andeq	r0, r0, r8, lsr #32
  94:	0000000c 	andeq	r0, r0, ip
  98:	00000074 	andeq	r0, r0, r4, ror r0
  9c:	a30001ac 	movwge	r0, #428	; 0x1ac
  a0:	0000001c 	andeq	r0, r0, ip, lsl r0
  a4:	0000000c 	andeq	r0, r0, ip
  a8:	ffffffff 	undefined instruction 0xffffffff
  ac:	7c010001 	stcvc	0, cr0, [r1], {1}
  b0:	000d0c0e 	andeq	r0, sp, lr, lsl #24
  b4:	0000000c 	andeq	r0, r0, ip
  b8:	000000a4 	andeq	r0, r0, r4, lsr #1
  bc:	a30001c8 	movwge	r0, #456	; 0x1c8
  c0:	00000044 	andeq	r0, r0, r4, asr #32
  c4:	0000000c 	andeq	r0, r0, ip
  c8:	ffffffff 	undefined instruction 0xffffffff
  cc:	7c010001 	stcvc	0, cr0, [r1], {1}
  d0:	000d0c0e 	andeq	r0, sp, lr, lsl #24
  d4:	00000014 	andeq	r0, r0, r4, lsl r0
  d8:	000000c4 	andeq	r0, r0, r4, asr #1
  dc:	a300020c 	movwge	r0, #524	; 0x20c
  e0:	00000014 	andeq	r0, r0, r4, lsl r0
  e4:	8e040e44 	cdphi	14, 0, cr0, cr4, cr4, {2}
  e8:	00000001 	andeq	r0, r0, r1
  ec:	0000000c 	andeq	r0, r0, ip
  f0:	ffffffff 	undefined instruction 0xffffffff
  f4:	7c010001 	stcvc	0, cr0, [r1], {1}
  f8:	000d0c0e 	andeq	r0, sp, lr, lsl #24
  fc:	0000000c 	andeq	r0, r0, ip
 100:	000000ec 	andeq	r0, r0, ip, ror #1
 104:	a3000220 	movwge	r0, #544	; 0x220
 108:	00000010 	andeq	r0, r0, r0, lsl r0
 10c:	0000000c 	andeq	r0, r0, ip
 110:	000000ec 	andeq	r0, r0, ip, ror #1
 114:	a3000230 	movwge	r0, #560	; 0x230
 118:	00000014 	andeq	r0, r0, r4, lsl r0
 11c:	0000000c 	andeq	r0, r0, ip
 120:	000000ec 	andeq	r0, r0, ip, ror #1
 124:	a3000244 	movwge	r0, #580	; 0x244
 128:	00000014 	andeq	r0, r0, r4, lsl r0
 12c:	0000000c 	andeq	r0, r0, ip
 130:	000000ec 	andeq	r0, r0, ip, ror #1
 134:	a3000258 	movwge	r0, #600	; 0x258
 138:	00000014 	andeq	r0, r0, r4, lsl r0
 13c:	0000000c 	andeq	r0, r0, ip
 140:	000000ec 	andeq	r0, r0, ip, ror #1
 144:	a300026c 	movwge	r0, #620	; 0x26c
 148:	00000014 	andeq	r0, r0, r4, lsl r0
 14c:	0000000c 	andeq	r0, r0, ip
 150:	000000ec 	andeq	r0, r0, ip, ror #1
 154:	a3000280 	movwge	r0, #640	; 0x280
 158:	00000014 	andeq	r0, r0, r4, lsl r0
 15c:	0000000c 	andeq	r0, r0, ip
 160:	000000ec 	andeq	r0, r0, ip, ror #1
 164:	a3000294 	movwge	r0, #660	; 0x294
 168:	00000034 	andeq	r0, r0, r4, lsr r0
 16c:	0000000c 	andeq	r0, r0, ip
 170:	000000ec 	andeq	r0, r0, ip, ror #1
 174:	a30002c8 	movwge	r0, #712	; 0x2c8
 178:	00000014 	andeq	r0, r0, r4, lsl r0
 17c:	0000000c 	andeq	r0, r0, ip
 180:	000000ec 	andeq	r0, r0, ip, ror #1
 184:	a30002dc 	movwge	r0, #732	; 0x2dc
 188:	00000028 	andeq	r0, r0, r8, lsr #32
 18c:	00000014 	andeq	r0, r0, r4, lsl r0
 190:	000000ec 	andeq	r0, r0, ip, ror #1
 194:	a3000304 	movwge	r0, #772	; 0x304
 198:	0000002c 	andeq	r0, r0, ip, lsr #32
 19c:	8e080e44 	cdphi	14, 0, cr0, cr8, cr4, {2}
 1a0:	00028401 	andeq	r8, r2, r1, lsl #8
 1a4:	0000000c 	andeq	r0, r0, ip
 1a8:	000000ec 	andeq	r0, r0, ip, ror #1
 1ac:	a3000330 	movwge	r0, #816	; 0x330
 1b0:	00000010 	andeq	r0, r0, r0, lsl r0
 1b4:	0000000c 	andeq	r0, r0, ip
 1b8:	000000ec 	andeq	r0, r0, ip, ror #1
 1bc:	a3000340 	movwge	r0, #832	; 0x340
 1c0:	00000034 	andeq	r0, r0, r4, lsr r0
 1c4:	00000014 	andeq	r0, r0, r4, lsl r0
 1c8:	000000ec 	andeq	r0, r0, ip, ror #1
 1cc:	a3000374 	movwge	r0, #884	; 0x374
 1d0:	00000028 	andeq	r0, r0, r8, lsr #32
 1d4:	8e040e4c 	cdphi	14, 0, cr0, cr4, cr12, {2}
 1d8:	00000001 	andeq	r0, r0, r1
 1dc:	0000000c 	andeq	r0, r0, ip
 1e0:	000000ec 	andeq	r0, r0, ip, ror #1
 1e4:	a300039c 	movwge	r0, #924	; 0x39c
 1e8:	00000010 	andeq	r0, r0, r0, lsl r0
 1ec:	0000000c 	andeq	r0, r0, ip
 1f0:	ffffffff 	undefined instruction 0xffffffff
 1f4:	7c010001 	stcvc	0, cr0, [r1], {1}
 1f8:	000d0c0e 	andeq	r0, sp, lr, lsl #24
 1fc:	0000001c 	andeq	r0, r0, ip, lsl r0
 200:	000001ec 	andeq	r0, r0, ip, ror #3
 204:	a30003ac 	movwge	r0, #940	; 0x3ac
 208:	00000104 	andeq	r0, r0, r4, lsl #2
 20c:	8e180e44 	cdphi	14, 1, cr0, cr8, cr4, {2}
 210:	87028a01 	strhi	r8, [r2, -r1, lsl #20]
 214:	85048603 	strhi	r8, [r4, #-1539]
 218:	00068405 	andeq	r8, r6, r5, lsl #8
 21c:	0000000c 	andeq	r0, r0, ip
 220:	ffffffff 	undefined instruction 0xffffffff
 224:	7c010001 	stcvc	0, cr0, [r1], {1}
 228:	000d0c0e 	andeq	r0, sp, lr, lsl #24
 22c:	0000000c 	andeq	r0, r0, ip
 230:	0000021c 	andeq	r0, r0, ip, lsl r2
 234:	a30004b0 	movwge	r0, #1200	; 0x4b0
 238:	0000003c 	andeq	r0, r0, ip, lsr r0
 23c:	00000018 	andeq	r0, r0, r8, lsl r0
 240:	0000021c 	andeq	r0, r0, ip, lsl r2
 244:	a30004ec 	movwge	r0, #1260	; 0x4ec
 248:	00000054 	andeq	r0, r0, r4, asr r0
 24c:	8e0c0e48 	cdphi	14, 0, cr0, cr12, cr8, {2}
 250:	84028501 	strhi	r8, [r2], #-1281
 254:	00000003 	andeq	r0, r0, r3
 258:	00000018 	andeq	r0, r0, r8, lsl r0
 25c:	0000021c 	andeq	r0, r0, ip, lsl r2
 260:	a3000540 	movwge	r0, #1344	; 0x540
 264:	00000074 	andeq	r0, r0, r4, ror r0
 268:	8e100e44 	cdphi	14, 1, cr0, cr0, cr4, {2}
 26c:	85028601 	strhi	r8, [r2, #-1537]
 270:	00048403 	andeq	r8, r4, r3, lsl #8
 274:	00000018 	andeq	r0, r0, r8, lsl r0
 278:	0000021c 	andeq	r0, r0, ip, lsl r2
 27c:	a30005b4 	movwge	r0, #1460	; 0x5b4
 280:	0000004c 	andeq	r0, r0, ip, asr #32
 284:	8e100e44 	cdphi	14, 1, cr0, cr0, cr4, {2}
 288:	85028601 	strhi	r8, [r2, #-1537]
 28c:	00048403 	andeq	r8, r4, r3, lsl #8
 290:	0000000c 	andeq	r0, r0, ip
 294:	ffffffff 	undefined instruction 0xffffffff
 298:	7c010001 	stcvc	0, cr0, [r1], {1}
 29c:	000d0c0e 	andeq	r0, sp, lr, lsl #24
 2a0:	0000000c 	andeq	r0, r0, ip
 2a4:	00000290 	muleq	r0, r0, r2
 2a8:	a3000600 	movwge	r0, #1536	; 0x600
 2ac:	0000000c 	andeq	r0, r0, ip
 2b0:	0000000c 	andeq	r0, r0, ip
 2b4:	00000290 	muleq	r0, r0, r2
 2b8:	a300060c 	movwge	r0, #1548	; 0x60c
 2bc:	0000000c 	andeq	r0, r0, ip
 2c0:	0000000c 	andeq	r0, r0, ip
 2c4:	00000290 	muleq	r0, r0, r2
 2c8:	a3000618 	movwge	r0, #1560	; 0x618
 2cc:	00000014 	andeq	r0, r0, r4, lsl r0
 2d0:	0000000c 	andeq	r0, r0, ip
 2d4:	00000290 	muleq	r0, r0, r2
 2d8:	a300062c 	movwge	r0, #1580	; 0x62c
 2dc:	00000014 	andeq	r0, r0, r4, lsl r0
 2e0:	0000000c 	andeq	r0, r0, ip
 2e4:	ffffffff 	undefined instruction 0xffffffff
 2e8:	7c010001 	stcvc	0, cr0, [r1], {1}
 2ec:	000d0c0e 	andeq	r0, sp, lr, lsl #24
 2f0:	0000000c 	andeq	r0, r0, ip
 2f4:	000002e0 	andeq	r0, r0, r0, ror #5
 2f8:	a3000640 	movwge	r0, #1600	; 0x640
 2fc:	00000008 	andeq	r0, r0, r8
 300:	0000000c 	andeq	r0, r0, ip
 304:	ffffffff 	undefined instruction 0xffffffff
 308:	7c010001 	stcvc	0, cr0, [r1], {1}
 30c:	000d0c0e 	andeq	r0, sp, lr, lsl #24
 310:	0000000c 	andeq	r0, r0, ip
 314:	00000300 	andeq	r0, r0, r0, lsl #6
 318:	a30006a8 	movwge	r0, #1704	; 0x6a8
 31c:	00000004 	andeq	r0, r0, r4
 320:	0000000c 	andeq	r0, r0, ip
 324:	ffffffff 	undefined instruction 0xffffffff
 328:	7c010001 	stcvc	0, cr0, [r1], {1}
 32c:	000d0c0e 	andeq	r0, sp, lr, lsl #24
 330:	00000014 	andeq	r0, r0, r4, lsl r0
 334:	00000320 	andeq	r0, r0, r0, lsr #6
 338:	a30006ac 	movwge	r0, #1708	; 0x6ac
 33c:	000000e8 	andeq	r0, r0, r8, ror #1
 340:	8e040e4c 	cdphi	14, 0, cr0, cr4, cr12, {2}
 344:	00000001 	andeq	r0, r0, r1
 348:	0000000c 	andeq	r0, r0, ip
 34c:	ffffffff 	undefined instruction 0xffffffff
 350:	7c010001 	stcvc	0, cr0, [r1], {1}
 354:	000d0c0e 	andeq	r0, sp, lr, lsl #24
 358:	0000000c 	andeq	r0, r0, ip
 35c:	00000348 	andeq	r0, r0, r8, asr #6
 360:	a30007e4 	movwge	r0, #2020	; 0x7e4
 364:	0000003c 	andeq	r0, r0, ip, lsr r0
 368:	0000000c 	andeq	r0, r0, ip
 36c:	00000348 	andeq	r0, r0, r8, asr #6
 370:	a3000820 	movwge	r0, #2080	; 0x820
 374:	00000040 	andeq	r0, r0, r0, asr #32
 378:	0000000c 	andeq	r0, r0, ip
 37c:	ffffffff 	undefined instruction 0xffffffff
 380:	7c010001 	stcvc	0, cr0, [r1], {1}
 384:	000d0c0e 	andeq	r0, sp, lr, lsl #24
 388:	00000018 	andeq	r0, r0, r8, lsl r0
 38c:	00000378 	andeq	r0, r0, r8, ror r3
 390:	a30008b0 	movwge	r0, #2224	; 0x8b0
 394:	0000007c 	andeq	r0, r0, ip, ror r0
 398:	8e100e48 	cdphi	14, 1, cr0, cr0, cr8, {2}
 39c:	85028601 	strhi	r8, [r2, #-1537]
 3a0:	00048403 	andeq	r8, r4, r3, lsl #8
 3a4:	0000001c 	andeq	r0, r0, ip, lsl r0
 3a8:	00000378 	andeq	r0, r0, r8, ror r3
 3ac:	a300092c 	movwge	r0, #2348	; 0x92c
 3b0:	000000d0 	ldreqd	r0, [r0], -r0
 3b4:	8e140e48 	cdphi	14, 1, cr0, cr4, cr8, {2}
 3b8:	86028701 	strhi	r8, [r2], -r1, lsl #14
 3bc:	84048503 	strhi	r8, [r4], #-1283
 3c0:	00000005 	andeq	r0, r0, r5
 3c4:	0000000c 	andeq	r0, r0, ip
 3c8:	ffffffff 	undefined instruction 0xffffffff
 3cc:	7c010001 	stcvc	0, cr0, [r1], {1}
 3d0:	000d0c0e 	andeq	r0, sp, lr, lsl #24
 3d4:	0000000c 	andeq	r0, r0, ip
 3d8:	000003c4 	andeq	r0, r0, r4, asr #7
 3dc:	a30009fc 	movwge	r0, #2556	; 0x9fc
 3e0:	00000020 	andeq	r0, r0, r0, lsr #32
 3e4:	00000014 	andeq	r0, r0, r4, lsl r0
 3e8:	000003c4 	andeq	r0, r0, r4, asr #7
 3ec:	a3000a1c 	movwge	r0, #2588	; 0xa1c
 3f0:	00000020 	andeq	r0, r0, r0, lsr #32
 3f4:	8e040e48 	cdphi	14, 0, cr0, cr4, cr8, {2}
 3f8:	00000001 	andeq	r0, r0, r1
 3fc:	00000018 	andeq	r0, r0, r8, lsl r0
 400:	000003c4 	andeq	r0, r0, r4, asr #7
 404:	a3000a3c 	movwge	r0, #2620	; 0xa3c
 408:	00000144 	andeq	r0, r0, r4, asr #2
 40c:	8e100e44 	cdphi	14, 1, cr0, cr0, cr4, {2}
 410:	85028601 	strhi	r8, [r2, #-1537]
 414:	00048403 	andeq	r8, r4, r3, lsl #8
 418:	0000000c 	andeq	r0, r0, ip
 41c:	ffffffff 	undefined instruction 0xffffffff
 420:	7c010001 	stcvc	0, cr0, [r1], {1}
 424:	000d0c0e 	andeq	r0, sp, lr, lsl #24
 428:	0000000c 	andeq	r0, r0, ip
 42c:	00000418 	andeq	r0, r0, r8, lsl r4
 430:	a3000b80 	movwge	r0, #2944	; 0xb80
 434:	00000018 	andeq	r0, r0, r8, lsl r0
 438:	00000014 	andeq	r0, r0, r4, lsl r0
 43c:	00000418 	andeq	r0, r0, r8, lsl r4
 440:	a3000b98 	movwge	r0, #2968	; 0xb98
 444:	00000030 	andeq	r0, r0, r0, lsr r0
 448:	8e080e48 	cdphi	14, 0, cr0, cr8, cr8, {2}
 44c:	00028401 	andeq	r8, r2, r1, lsl #8
 450:	0000000c 	andeq	r0, r0, ip
 454:	ffffffff 	undefined instruction 0xffffffff
 458:	7c010001 	stcvc	0, cr0, [r1], {1}
 45c:	000d0c0e 	andeq	r0, sp, lr, lsl #24
 460:	0000000c 	andeq	r0, r0, ip
 464:	00000450 	andeq	r0, r0, r0, asr r4
 468:	a3000bc8 	movwge	r0, #3016	; 0xbc8
 46c:	00000010 	andeq	r0, r0, r0, lsl r0
 470:	00000018 	andeq	r0, r0, r8, lsl r0
 474:	00000450 	andeq	r0, r0, r0, asr r4
 478:	a3000bd8 	movwge	r0, #3032	; 0xbd8
 47c:	00000060 	andeq	r0, r0, r0, rrx
 480:	8e100e54 	mrchi	14, 0, r0, cr0, cr4, {2}
 484:	85028601 	strhi	r8, [r2, #-1537]
 488:	00048403 	andeq	r8, r4, r3, lsl #8
 48c:	00000014 	andeq	r0, r0, r4, lsl r0
 490:	00000450 	andeq	r0, r0, r0, asr r4
 494:	a3000c38 	movwge	r0, #3128	; 0xc38
 498:	000000f8 	streqd	r0, [r0], -r8
 49c:	8e080e44 	cdphi	14, 0, cr0, cr8, cr4, {2}
 4a0:	00028401 	andeq	r8, r2, r1, lsl #8
 4a4:	00000020 	andeq	r0, r0, r0, lsr #32
 4a8:	00000450 	andeq	r0, r0, r0, asr r4
 4ac:	a3000d30 	movwge	r0, #3376	; 0xd30
 4b0:	000000ac 	andeq	r0, r0, ip, lsr #1
 4b4:	44180e44 	ldrmi	r0, [r8], #-3652
 4b8:	018e2c0e 	orreq	r2, lr, lr, lsl #24
 4bc:	0387028a 	orreq	r0, r7, #-1610612728	; 0xa0000008
 4c0:	05850486 	streq	r0, [r5, #1158]
 4c4:	00000684 	andeq	r0, r0, r4, lsl #13
 4c8:	00000018 	andeq	r0, r0, r8, lsl r0
 4cc:	00000450 	andeq	r0, r0, r0, asr r4
 4d0:	a3000ddc 	movwge	r0, #3548	; 0xddc
 4d4:	00000054 	andeq	r0, r0, r4, asr r0
 4d8:	8e0c0e44 	cdphi	14, 0, cr0, cr12, cr4, {2}
 4dc:	84028501 	strhi	r8, [r2], #-1281
 4e0:	00000003 	andeq	r0, r0, r3
 4e4:	0000000c 	andeq	r0, r0, ip
 4e8:	ffffffff 	undefined instruction 0xffffffff
 4ec:	7c010001 	stcvc	0, cr0, [r1], {1}
 4f0:	000d0c0e 	andeq	r0, sp, lr, lsl #24
 4f4:	0000000c 	andeq	r0, r0, ip
 4f8:	000004e4 	andeq	r0, r0, r4, ror #9
 4fc:	a3000e30 	movwge	r0, #3632	; 0xe30
 500:	00000008 	andeq	r0, r0, r8
 504:	0000000c 	andeq	r0, r0, ip
 508:	ffffffff 	undefined instruction 0xffffffff
 50c:	7c010001 	stcvc	0, cr0, [r1], {1}
 510:	000d0c0e 	andeq	r0, sp, lr, lsl #24
 514:	0000000c 	andeq	r0, r0, ip
 518:	00000504 	andeq	r0, r0, r4, lsl #10
 51c:	a3000e38 	movwge	r0, #3640	; 0xe38
 520:	00000010 	andeq	r0, r0, r0, lsl r0
 524:	0000000c 	andeq	r0, r0, ip
 528:	00000504 	andeq	r0, r0, r4, lsl #10
 52c:	a3000e48 	movwge	r0, #3656	; 0xe48
 530:	00000014 	andeq	r0, r0, r4, lsl r0
 534:	0000000c 	andeq	r0, r0, ip
 538:	00000504 	andeq	r0, r0, r4, lsl #10
 53c:	a3000e5c 	movwge	r0, #3676	; 0xe5c
 540:	00000010 	andeq	r0, r0, r0, lsl r0
 544:	00000014 	andeq	r0, r0, r4, lsl r0
 548:	00000504 	andeq	r0, r0, r4, lsl #10
 54c:	a3000e6c 	movwge	r0, #3692	; 0xe6c
 550:	00000024 	andeq	r0, r0, r4, lsr #32
 554:	8e040e44 	cdphi	14, 0, cr0, cr4, cr4, {2}
 558:	00000001 	andeq	r0, r0, r1
 55c:	00000018 	andeq	r0, r0, r8, lsl r0
 560:	00000504 	andeq	r0, r0, r4, lsl #10
 564:	a3000e90 	movwge	r0, #3728	; 0xe90
 568:	00000088 	andeq	r0, r0, r8, lsl #1
 56c:	8e100e44 	cdphi	14, 1, cr0, cr0, cr4, {2}
 570:	85028601 	strhi	r8, [r2, #-1537]
 574:	00048403 	andeq	r8, r4, r3, lsl #8
 578:	00000014 	andeq	r0, r0, r4, lsl r0
 57c:	00000504 	andeq	r0, r0, r4, lsl #10
 580:	a3000f18 	movwge	r0, #3864	; 0xf18
 584:	00000030 	andeq	r0, r0, r0, lsr r0
 588:	8e040e44 	cdphi	14, 0, cr0, cr4, cr4, {2}
 58c:	00000001 	andeq	r0, r0, r1
 590:	0000000c 	andeq	r0, r0, ip
 594:	ffffffff 	undefined instruction 0xffffffff
 598:	7c010001 	stcvc	0, cr0, [r1], {1}
 59c:	000d0c0e 	andeq	r0, sp, lr, lsl #24
 5a0:	0000000c 	andeq	r0, r0, ip
 5a4:	00000590 	muleq	r0, r0, r5
 5a8:	a3000f8c 	movwge	r0, #3980	; 0xf8c
 5ac:	00000054 	andeq	r0, r0, r4, asr r0
 5b0:	00000018 	andeq	r0, r0, r8, lsl r0
 5b4:	00000590 	muleq	r0, r0, r5
 5b8:	a3000fe0 	movwge	r0, #4064	; 0xfe0
 5bc:	0000004c 	andeq	r0, r0, ip, asr #32
 5c0:	8e100e44 	cdphi	14, 1, cr0, cr0, cr4, {2}
 5c4:	85028601 	strhi	r8, [r2, #-1537]
 5c8:	00048403 	andeq	r8, r4, r3, lsl #8
 5cc:	00000018 	andeq	r0, r0, r8, lsl r0
 5d0:	00000590 	muleq	r0, r0, r5
 5d4:	a300102c 	movwge	r1, #44	; 0x2c
 5d8:	00000058 	andeq	r0, r0, r8, asr r0
 5dc:	8e0c0e4c 	cdphi	14, 0, cr0, cr12, cr12, {2}
 5e0:	84028501 	strhi	r8, [r2], #-1281
 5e4:	00000003 	andeq	r0, r0, r3
 5e8:	0000000c 	andeq	r0, r0, ip
 5ec:	00000590 	muleq	r0, r0, r5
 5f0:	a3001084 	movwge	r1, #132	; 0x84
 5f4:	00000034 	andeq	r0, r0, r4, lsr r0
 5f8:	00000018 	andeq	r0, r0, r8, lsl r0
 5fc:	00000590 	muleq	r0, r0, r5
 600:	a30010b8 	movwge	r1, #184	; 0xb8
 604:	00000058 	andeq	r0, r0, r8, asr r0
 608:	8e0c0e44 	cdphi	14, 0, cr0, cr12, cr4, {2}
 60c:	84028501 	strhi	r8, [r2], #-1281
 610:	00000003 	andeq	r0, r0, r3
 614:	0000000c 	andeq	r0, r0, ip
 618:	ffffffff 	undefined instruction 0xffffffff
 61c:	7c010001 	stcvc	0, cr0, [r1], {1}
 620:	000d0c0e 	andeq	r0, sp, lr, lsl #24
 624:	0000000c 	andeq	r0, r0, ip
 628:	00000614 	andeq	r0, r0, r4, lsl r6
 62c:	a3001110 	movwge	r1, #272	; 0x110
 630:	00000038 	andeq	r0, r0, r8, lsr r0
 634:	0000000c 	andeq	r0, r0, ip
 638:	00000614 	andeq	r0, r0, r4, lsl r6
 63c:	a3001148 	movwge	r1, #328	; 0x148
 640:	00000044 	andeq	r0, r0, r4, asr #32
 644:	0000000c 	andeq	r0, r0, ip
 648:	00000614 	andeq	r0, r0, r4, lsl r6
 64c:	a300118c 	movwge	r1, #396	; 0x18c
 650:	0000003c 	andeq	r0, r0, ip, lsr r0
 654:	00000018 	andeq	r0, r0, r8, lsl r0
 658:	00000614 	andeq	r0, r0, r4, lsl r6
 65c:	a30011c8 	movwge	r1, #456	; 0x1c8
 660:	00000080 	andeq	r0, r0, r0, lsl #1
 664:	8e100e48 	cdphi	14, 1, cr0, cr0, cr8, {2}
 668:	85028601 	strhi	r8, [r2, #-1537]
 66c:	00048403 	andeq	r8, r4, r3, lsl #8
 670:	00000018 	andeq	r0, r0, r8, lsl r0
 674:	00000614 	andeq	r0, r0, r4, lsl r6
 678:	a3001248 	movwge	r1, #584	; 0x248
 67c:	00000054 	andeq	r0, r0, r4, asr r0
 680:	8e0c0e48 	cdphi	14, 0, cr0, cr12, cr8, {2}
 684:	84028501 	strhi	r8, [r2], #-1281
 688:	00000003 	andeq	r0, r0, r3
 68c:	00000018 	andeq	r0, r0, r8, lsl r0
 690:	00000614 	andeq	r0, r0, r4, lsl r6
 694:	a300129c 	movwge	r1, #668	; 0x29c
 698:	00000060 	andeq	r0, r0, r0, rrx
 69c:	8e100e48 	cdphi	14, 1, cr0, cr0, cr8, {2}
 6a0:	85028601 	strhi	r8, [r2, #-1537]
 6a4:	00048403 	andeq	r8, r4, r3, lsl #8
 6a8:	0000000c 	andeq	r0, r0, ip
 6ac:	ffffffff 	undefined instruction 0xffffffff
 6b0:	7c010001 	stcvc	0, cr0, [r1], {1}
 6b4:	000d0c0e 	andeq	r0, sp, lr, lsl #24
 6b8:	0000000c 	andeq	r0, r0, ip
 6bc:	000006a8 	andeq	r0, r0, r8, lsr #13
 6c0:	a30012fc 	movwge	r1, #764	; 0x2fc
 6c4:	00000088 	andeq	r0, r0, r8, lsl #1
 6c8:	0000000c 	andeq	r0, r0, ip
 6cc:	000006a8 	andeq	r0, r0, r8, lsr #13
 6d0:	a3001384 	movwge	r1, #900	; 0x384
 6d4:	00000028 	andeq	r0, r0, r8, lsr #32
 6d8:	0000000c 	andeq	r0, r0, ip
 6dc:	ffffffff 	undefined instruction 0xffffffff
 6e0:	7c010001 	stcvc	0, cr0, [r1], {1}
 6e4:	000d0c0e 	andeq	r0, sp, lr, lsl #24
 6e8:	00000014 	andeq	r0, r0, r4, lsl r0
 6ec:	000006d8 	ldreqd	r0, [r0], -r8
 6f0:	a30013ac 	movwge	r1, #940	; 0x3ac
 6f4:	000000ac 	andeq	r0, r0, ip, lsr #1
 6f8:	028ea002 	addeq	sl, lr, #2	; 0x2
 6fc:	0000080e 	andeq	r0, r0, lr, lsl #16
 700:	0000000c 	andeq	r0, r0, ip
 704:	ffffffff 	undefined instruction 0xffffffff
 708:	7c010001 	stcvc	0, cr0, [r1], {1}
 70c:	000d0c0e 	andeq	r0, sp, lr, lsl #24
 710:	00000014 	andeq	r0, r0, r4, lsl r0
 714:	00000700 	andeq	r0, r0, r0, lsl #14
 718:	a3001470 	movwge	r1, #1136	; 0x470
 71c:	000000b0 	streqh	r0, [r0], -r0
 720:	028ea402 	addeq	sl, lr, #33554432	; 0x2000000
 724:	0000080e 	andeq	r0, r0, lr, lsl #16
Disassembly of section .debug_str:

00000000 <.debug_str>:
   0:	696e6170 	stmvsdb	lr!, {r4, r5, r6, r8, sp, lr}^
   4:	69640063 	stmvsdb	r4!, {r0, r1, r5, r6}^
   8:	6c626173 	stfvse	f6, [r2], #-460
   c:	6e695f65 	cdpvs	15, 6, cr5, cr9, cr5, {3}
  10:	72726574 	rsbvcs	r6, r2, #486539264	; 0x1d000000
  14:	73747075 	cmnvc	r4, #117	; 0x75
  18:	5f617600 	svcpl	0x00617600
  1c:	7473696c 	ldrvcbt	r6, [r3], #-2412
  20:	736e7500 	cmnvc	lr, #0	; 0x0
  24:	656e6769 	strvsb	r6, [lr, #-1897]!
  28:	68632064 	stmvsda	r3!, {r2, r5, r6, sp}^
  2c:	73007261 	movwvc	r7, #609	; 0x261
  30:	74726f68 	ldrvcbt	r6, [r2], #-3944
  34:	736e7520 	cmnvc	lr, #134217728	; 0x8000000
  38:	656e6769 	strvsb	r6, [lr, #-1897]!
  3c:	6e692064 	cdpvs	0, 6, cr2, cr9, cr4, {3}
  40:	68730074 	ldmvsda	r3!, {r2, r4, r5, r6}^
  44:	2074726f 	rsbcss	r7, r4, pc, ror #4
  48:	00746e69 	rsbeqs	r6, r4, r9, ror #28
  4c:	676e6f6c 	strvsb	r6, [lr, -ip, ror #30]!
  50:	6e6f6c20 	cdpvs	12, 6, cr6, cr15, cr0, {1}
  54:	6e752067 	cdpvs	0, 7, cr2, cr5, cr7, {3}
  58:	6e676973 	mcrvs	9, 3, r6, cr7, cr3, {3}
  5c:	69206465 	stmvsdb	r0!, {r0, r2, r5, r6, sl, sp, lr}
  60:	4700746e 	strmi	r7, [r0, -lr, ror #8]
  64:	4320554e 	teqmi	r0, #327155712	; 0x13800000
  68:	312e3420 	teqcc	lr, r0, lsr #8
  6c:	6c00312e 	stfvss	f3, [r0], {46}
  70:	20676e6f 	rsbcs	r6, r7, pc, ror #28
  74:	676e6f6c 	strvsb	r6, [lr, -ip, ror #30]!
  78:	746e6920 	strvcbt	r6, [lr], #-2336
  7c:	6f682f00 	svcvs	0x00682f00
  80:	792f656d 	stmvcdb	pc!, {r0, r2, r3, r5, r6, r8, sl, sp, lr}
  84:	6968736f 	stmvsdb	r8!, {r0, r1, r2, r3, r5, r6, r8, r9, ip, sp, lr}^
  88:	2f696b61 	svccs	0x00696b61
  8c:	706f7244 	rsbvc	r7, pc, r4, asr #4
  90:	2f786f62 	svccs	0x00786f62
  94:	75636f44 	strvcb	r6, [r3, #-3908]!
  98:	746e656d 	strvcbt	r6, [lr], #-1389
  9c:	4d432f73 	stcmil	15, cr2, [r3, #-460]
  a0:	6c632f55 	stcvsl	15, cr2, [r3], #-340
  a4:	2f737361 	svccs	0x00737361
  a8:	33313032 	teqcc	r1, #50	; 0x32
  ac:	6c61465f 	stcvsl	6, cr4, [r1], #-380
  b0:	38312f6c 	ldmccda	r1!, {r2, r3, r5, r6, r8, r9, sl, fp, sp}
  b4:	3234332d 	eorccs	r3, r4, #-1275068416	; 0xb4000000
  b8:	62614c2f 	rsbvs	r4, r1, #12032	; 0x2f00
  bc:	726f6e2f 	rsbvc	r6, pc, #752	; 0x2f0
  c0:	2f6e616d 	svccs	0x006e616d
  c4:	3462616c 	strccbt	r6, [r2], #-364
  c8:	72656b2f 	rsbvc	r6, r5, #48128	; 0xbc00
  cc:	2f6c656e 	svccs	0x006c656e
  d0:	65737361 	ldrvsb	r7, [r3, #-865]!
  d4:	632e7472 	teqvs	lr, #1912602624	; 0x72000000
  d8:	6e697500 	cdpvs	5, 6, cr7, cr9, cr0, {0}
  dc:	5f323374 	svcpl	0x00323374
  e0:	6d6b0074 	stcvsl	0, cr0, [fp, #-464]!
  e4:	006e6961 	rsbeq	r6, lr, r1, ror #18
  e8:	706d756a 	rsbvc	r7, sp, sl, ror #10
  ec:	72746e65 	rsbvcs	r6, r4, #1616	; 0x650
  f0:	64646179 	strvsbt	r6, [r4], #-377
  f4:	65760072 	ldrvsb	r0, [r6, #-114]!
  f8:	74705f63 	ldrvcbt	r5, [r0], #-3939
  fc:	65720072 	ldrvsb	r0, [r2, #-114]!
 100:	72775f67 	rsbvcs	r5, r7, #412	; 0x19c
 104:	00657469 	rsbeq	r7, r5, r9, ror #8
 108:	6f63706f 	svcvs	0x0063706f
 10c:	74006564 	strvc	r6, [r0], #-1380
 110:	5f6b7361 	svcpl	0x006b7361
 114:	42550074 	submis	r0, r5, #116	; 0x74
 118:	5f544f4f 	svcpl	0x00544f4f
 11c:	646e6168 	strvsbt	r6, [lr], #-360
 120:	5f72656c 	svcpl	0x0072656c
 124:	72646461 	rsbvc	r6, r4, #1627389952	; 0x61000000
 128:	69616d00 	stmvsdb	r1!, {r8, sl, fp, sp, lr}^
 12c:	61745f6e 	cmnvs	r4, lr, ror #30
 130:	55006b73 	strpl	r6, [r0, #-2931]
 134:	544f4f42 	strplb	r4, [pc], #3906	; 13c <_start-0xa2fffec4>
 138:	4957535f 	ldmmidb	r7, {r0, r1, r2, r3, r4, r6, r8, r9, ip, lr}^
 13c:	4444415f 	strmib	r4, [r4], #-351
 140:	74730052 	ldrvcbt	r0, [r3], #-82
 144:	5f6b6361 	svcpl	0x006b6361
 148:	00736f70 	rsbeqs	r6, r3, r0, ror pc
 14c:	7366666f 	cmnvc	r6, #116391936	; 0x6f00000
 150:	53007465 	movwpl	r7, #1125	; 0x465
 154:	725f4356 	subvcs	r4, pc, #1476395009	; 0x58000001
 158:	61740038 	cmnvs	r4, r8, lsr r0
 15c:	665f6b73 	undefined
 160:	745f6e75 	ldrvcb	r6, [pc], #3701	; 168 <_start-0xa2fffe98>
 164:	73756300 	cmnvc	r5, #0	; 0x0
 168:	5f6d6f74 	svcpl	0x006d6f74
 16c:	646e6168 	strvsbt	r6, [lr], #-360
 170:	0072656c 	rsbeqs	r6, r2, ip, ror #10
 174:	76677261 	strvcbt	r7, [r7], -r1, ror #4
 178:	6f6c6700 	svcvs	0x006c6700
 17c:	5f6c6162 	svcpl	0x006c6162
 180:	61746164 	cmnvs	r4, r4, ror #2
 184:	67726100 	ldrvsb	r6, [r2, -r0, lsl #2]!
 188:	682f0063 	stmvsda	pc!, {r0, r1, r5, r6}
 18c:	2f656d6f 	svccs	0x00656d6f
 190:	68736f79 	ldmvsda	r3!, {r0, r3, r4, r5, r6, r8, r9, sl, fp, sp, lr}^
 194:	696b6169 	stmvsdb	fp!, {r0, r3, r5, r6, r8, sp, lr}^
 198:	6f72442f 	svcvs	0x0072442f
 19c:	786f6270 	stmvcda	pc!, {r4, r5, r6, r9, sp, lr}^
 1a0:	636f442f 	cmnvs	pc, #788529152	; 0x2f000000
 1a4:	6e656d75 	mcrvs	13, 3, r6, cr5, cr5, {3}
 1a8:	432f7374 	teqmi	pc, #-805306367	; 0xd0000001
 1ac:	632f554d 	teqvs	pc, #322961408	; 0x13400000
 1b0:	7373616c 	cmnvc	r3, #27	; 0x1b
 1b4:	3130322f 	teqcc	r0, pc, lsr #4
 1b8:	61465f33 	cmpvs	r6, r3, lsr pc
 1bc:	312f6c6c 	teqcc	pc, ip, ror #24
 1c0:	34332d38 	ldrcct	r2, [r3], #-3384
 1c4:	614c2f32 	cmpvs	ip, r2, lsr pc
 1c8:	6f6e2f62 	svcvs	0x006e2f62
 1cc:	6e616d72 	mcrvs	13, 3, r6, cr1, cr2, {3}
 1d0:	62616c2f 	rsbvs	r6, r1, #12032	; 0x2f00
 1d4:	656b2f34 	strvsb	r2, [fp, #-3892]!
 1d8:	6c656e72 	stcvsl	14, cr6, [r5], #-456
 1dc:	69616d2f 	stmvsdb	r1!, {r0, r1, r2, r3, r5, r8, sl, fp, sp, lr}^
 1e0:	00632e6e 	rsbeq	r2, r3, lr, ror #28
 1e4:	4f4f4255 	svcmi	0x004f4255
 1e8:	52495f54 	subpl	r5, r9, #336	; 0x150
 1ec:	4e495f51 	mcrmi	15, 2, r5, cr9, cr1, {2}
 1f0:	00315453 	eoreqs	r5, r1, r3, asr r4
 1f4:	74617473 	strvcbt	r7, [r1], #-1139
 1f8:	6c007375 	stcvs	3, cr7, [r0], {117}
 1fc:	64626d61 	strvsbt	r6, [r2], #-3425
 200:	42550061 	submis	r0, r5, #97	; 0x61
 204:	5f544f4f 	svcpl	0x00544f4f
 208:	76005053 	undefined
 20c:	705f6365 	subvcs	r6, pc, r5, ror #6
 210:	5500736f 	strpl	r7, [r0, #-879]
 214:	544f4f42 	strplb	r4, [pc], #3906	; 21c <_start-0xa2fffde4>
 218:	4957535f 	ldmmidb	r7, {r0, r1, r2, r3, r4, r6, r8, r9, ip, lr}^
 21c:	534e495f 	movtpl	r4, #59743	; 0xe95f
 220:	55003154 	strpl	r3, [r0, #-340]
 224:	544f4f42 	strplb	r4, [pc], #3906	; 22c <_start-0xa2fffdd4>
 228:	4957535f 	ldmmidb	r7, {r0, r1, r2, r3, r4, r6, r8, r9, ip, lr}^
 22c:	534e495f 	movtpl	r4, #59743	; 0xe95f
 230:	55003254 	strpl	r3, [r0, #-596]
 234:	544f4f42 	strplb	r4, [pc], #3906	; 23c <_start-0xa2fffdc4>
 238:	5152495f 	cmppl	r2, pc, asr r9
 23c:	4444415f 	strmib	r4, [r4], #-351
 240:	6e690052 	mcrvs	0, 3, r0, cr9, cr2, {2}
 244:	6c617473 	cfstrdvs	mvd7, [r1], #-460
 248:	61685f6c 	cmnvs	r8, ip, ror #30
 24c:	656c646e 	strvsb	r6, [ip, #-1134]!
 250:	42550072 	submis	r0, r5, #114	; 0x72
 254:	5f544f4f 	svcpl	0x00544f4f
 258:	5f515249 	svcpl	0x00515249
 25c:	54534e49 	ldrplb	r4, [r3], #-3657
 260:	6c690032 	stcvsl	0, cr0, [r9], #-200
 264:	0032676f 	eoreqs	r6, r2, pc, ror #14
 268:	5f6d7573 	svcpl	0x006d7573
 26c:	69676572 	stmvsdb	r7!, {r1, r4, r5, r6, r8, sl, sp, lr}^
 270:	2f006e6f 	svccs	0x00006e6f
 274:	656d6f68 	strvsb	r6, [sp, #-3944]!
 278:	736f792f 	cmnvc	pc, #770048	; 0xbc000
 27c:	6b616968 	blvs	185a824 <_start-0xa17a57dc>
 280:	72442f69 	subvc	r2, r4, #420	; 0x1a4
 284:	6f62706f 	svcvs	0x0062706f
 288:	6f442f78 	svcvs	0x00442f78
 28c:	656d7563 	strvsb	r7, [sp, #-1379]!
 290:	2f73746e 	svccs	0x0073746e
 294:	2f554d43 	svccs	0x00554d43
 298:	73616c63 	cmnvc	r1, #25344	; 0x6300
 29c:	30322f73 	eorccs	r2, r2, r3, ror pc
 2a0:	465f3331 	undefined
 2a4:	2f6c6c61 	svccs	0x006c6c61
 2a8:	332d3831 	teqcc	sp, #3211264	; 0x310000
 2ac:	4c2f3234 	sfmmi	f3, 4, [pc], #-208
 2b0:	6e2f6261 	cdpvs	2, 2, cr6, cr15, cr1, {3}
 2b4:	616d726f 	cmnvs	sp, pc, ror #4
 2b8:	616c2f6e 	cmnvs	ip, lr, ror #30
 2bc:	6b2f3462 	blvs	bcd44c <_start-0xa2432bb4>
 2c0:	656e7265 	strvsb	r7, [lr, #-613]!
 2c4:	616d2f6c 	cmnvs	sp, ip, ror #30
 2c8:	632e6874 	teqvs	lr, #7602176	; 0x740000
 2cc:	73657200 	cmnvc	r5, #0	; 0x0
 2d0:	00746c75 	rsbeqs	r6, r4, r5, ror ip
 2d4:	5f6d756e 	svcpl	0x006d756e
 2d8:	64726f77 	ldrvsbt	r6, [r2], #-3959
 2dc:	682f0073 	stmvsda	pc!, {r0, r1, r4, r5, r6}
 2e0:	2f656d6f 	svccs	0x00656d6f
 2e4:	68736f79 	ldmvsda	r3!, {r0, r3, r4, r5, r6, r8, r9, sl, fp, sp, lr}^
 2e8:	696b6169 	stmvsdb	fp!, {r0, r3, r5, r6, r8, sp, lr}^
 2ec:	6f72442f 	svcvs	0x0072442f
 2f0:	786f6270 	stmvcda	pc!, {r4, r5, r6, r9, sp, lr}^
 2f4:	636f442f 	cmnvs	pc, #788529152	; 0x2f000000
 2f8:	6e656d75 	mcrvs	13, 3, r6, cr5, cr5, {3}
 2fc:	432f7374 	teqmi	pc, #-805306367	; 0xd0000001
 300:	632f554d 	teqvs	pc, #322961408	; 0x13400000
 304:	7373616c 	cmnvc	r3, #27	; 0x1b
 308:	3130322f 	teqcc	r0, pc, lsr #4
 30c:	61465f33 	cmpvs	r6, r3, lsr pc
 310:	312f6c6c 	teqcc	pc, ip, ror #24
 314:	34332d38 	ldrcct	r2, [r3], #-3384
 318:	614c2f32 	cmpvs	ip, r2, lsr pc
 31c:	6f6e2f62 	svcvs	0x006e2f62
 320:	6e616d72 	mcrvs	13, 3, r6, cr1, cr2, {3}
 324:	62616c2f 	rsbvs	r6, r1, #12032	; 0x2f00
 328:	656b2f34 	strvsb	r2, [fp, #-3892]!
 32c:	6c656e72 	stcvsl	14, cr6, [r5], #-456
 330:	6d656d2f 	stcvsl	13, cr6, [r5, #-188]!
 334:	63656863 	cmnvs	r5, #6488064	; 0x630000
 338:	00632e6b 	rsbeq	r2, r3, fp, ror #28
 33c:	5f6d656d 	svcpl	0x006d656d
 340:	72617473 	rsbvc	r7, r1, #1929379840	; 0x73000000
 344:	61620074 	smcvs	8196
 348:	76006573 	undefined
 34c:	64696c61 	strvsbt	r6, [r9], #-3169
 350:	6464615f 	strvsbt	r6, [r4], #-351
 354:	6f620072 	svcvs	0x00620072
 358:	00646e75 	rsbeq	r6, r4, r5, ror lr
 35c:	5f6d656d 	svcpl	0x006d656d
 360:	00646e65 	rsbeq	r6, r4, r5, ror #28
 364:	746e6975 	strvcbt	r6, [lr], #-2421
 368:	5f727470 	svcpl	0x00727470
 36c:	61720074 	cmnvs	r2, r4, ror r0
 370:	00657369 	rsbeq	r7, r5, r9, ror #6
 374:	6d6f682f 	stcvsl	8, cr6, [pc, #-188]!
 378:	6f792f65 	svcvs	0x00792f65
 37c:	61696873 	smcvs	38531
 380:	442f696b 	strmit	r6, [pc], #2411	; 388 <_start-0xa2fffc78>
 384:	62706f72 	rsbvss	r6, r0, #456	; 0x1c8
 388:	442f786f 	strmit	r7, [pc], #2159	; 390 <_start-0xa2fffc70>
 38c:	6d75636f 	ldcvsl	3, cr6, [r5, #-444]!
 390:	73746e65 	cmnvc	r4, #1616	; 0x650
 394:	554d432f 	strplb	r4, [sp, #-815]
 398:	616c632f 	cmnvs	ip, pc, lsr #6
 39c:	322f7373 	eorcc	r7, pc, #-872415231	; 0xcc000001
 3a0:	5f333130 	svcpl	0x00333130
 3a4:	6c6c6146 	stfvse	f6, [ip], #-280
 3a8:	2d38312f 	ldfcss	f3, [r8, #-188]!
 3ac:	2f323433 	svccs	0x00323433
 3b0:	2f62614c 	svccs	0x0062614c
 3b4:	6d726f6e 	ldcvsl	15, cr6, [r2, #-440]!
 3b8:	6c2f6e61 	stcvs	14, cr6, [pc], #-388
 3bc:	2f346261 	svccs	0x00346261
 3c0:	6e72656b 	cdpvs	5, 7, cr6, cr2, cr11, {3}
 3c4:	722f6c65 	eorvc	r6, pc, #25856	; 0x6500
 3c8:	65736961 	ldrvsb	r6, [r3, #-2401]!
 3cc:	6900632e 	stmvsdb	r0, {r1, r2, r3, r5, r8, r9, sp, lr}
 3d0:	69727073 	ldmvsdb	r2!, {r0, r1, r4, r5, r6, ip, sp, lr}^
 3d4:	6900746e 	stmvsdb	r0, {r1, r2, r3, r5, r6, sl, ip, sp, lr}
 3d8:	746e6373 	strvcbt	r6, [lr], #-883
 3dc:	2f006c72 	svccs	0x00006c72
 3e0:	656d6f68 	strvsb	r6, [sp, #-3944]!
 3e4:	736f792f 	cmnvc	pc, #770048	; 0xbc000
 3e8:	6b616968 	blvs	185a990 <_start-0xa17a5670>
 3ec:	72442f69 	subvc	r2, r4, #420	; 0x1a4
 3f0:	6f62706f 	svcvs	0x0062706f
 3f4:	6f442f78 	svcvs	0x00442f78
 3f8:	656d7563 	strvsb	r7, [sp, #-1379]!
 3fc:	2f73746e 	svccs	0x0073746e
 400:	2f554d43 	svccs	0x00554d43
 404:	73616c63 	cmnvc	r1, #25344	; 0x6300
 408:	30322f73 	eorccs	r2, r2, r3, ror pc
 40c:	465f3331 	undefined
 410:	2f6c6c61 	svccs	0x006c6c61
 414:	332d3831 	teqcc	sp, #3211264	; 0x310000
 418:	4c2f3234 	sfmmi	f3, 4, [pc], #-208
 41c:	6e2f6261 	cdpvs	2, 2, cr6, cr15, cr1, {3}
 420:	616d726f 	cmnvs	sp, pc, ror #4
 424:	616c2f6e 	cmnvs	ip, lr, ror #30
 428:	6b2f3462 	blvs	bcd5b8 <_start-0xa2432a48>
 42c:	656e7265 	strvsb	r7, [lr, #-613]!
 430:	74632f6c 	strvcbt	r2, [r3], #-3948
 434:	2e657079 	mcrcs	0, 3, r7, cr5, cr9, {3}
 438:	73690063 	cmnvc	r9, #99	; 0x63
 43c:	70617267 	rsbvc	r7, r1, r7, ror #4
 440:	73690068 	cmnvc	r9, #104	; 0x68
 444:	65776f6c 	ldrvsb	r6, [r7, #-3948]!
 448:	73690072 	cmnvc	r9, #114	; 0x72
 44c:	756e6c61 	strvcb	r6, [lr, #-3169]!
 450:	7369006d 	cmnvc	r9, #109	; 0x6d
 454:	69676964 	stmvsdb	r7!, {r2, r5, r6, r8, fp, sp, lr}^
 458:	73690074 	cmnvc	r9, #116	; 0x74
 45c:	68706c61 	ldmvsda	r0!, {r0, r5, r6, sl, fp, sp, lr}^
 460:	6f740061 	svcvs	0x00740061
 464:	65776f6c 	ldrvsb	r6, [r7, #-3948]!
 468:	73690072 	cmnvc	r9, #114	; 0x72
 46c:	69637361 	stmvsdb	r3!, {r0, r5, r6, r8, r9, ip, sp, lr}^
 470:	73690069 	cmnvc	r9, #105	; 0x69
 474:	636e7570 	cmnvs	lr, #469762048	; 0x1c000000
 478:	73690074 	cmnvc	r9, #116	; 0x74
 47c:	63617073 	cmnvs	r1, #115	; 0x73
 480:	6f740065 	svcvs	0x00740065
 484:	65707075 	ldrvsb	r7, [r0, #-117]!
 488:	73690072 	cmnvc	r9, #114	; 0x72
 48c:	65707075 	ldrvsb	r7, [r0, #-117]!
 490:	73690072 	cmnvc	r9, #114	; 0x72
 494:	67696478 	undefined
 498:	68007469 	stmvsda	r0, {r0, r3, r5, r6, sl, ip, sp, lr}
 49c:	75647865 	strvcb	r7, [r4, #-2149]!
 4a0:	2f00706d 	svccs	0x0000706d
 4a4:	656d6f68 	strvsb	r6, [sp, #-3944]!
 4a8:	736f792f 	cmnvc	pc, #770048	; 0xbc000
 4ac:	6b616968 	blvs	185aa54 <_start-0xa17a55ac>
 4b0:	72442f69 	subvc	r2, r4, #420	; 0x1a4
 4b4:	6f62706f 	svcvs	0x0062706f
 4b8:	6f442f78 	svcvs	0x00442f78
 4bc:	656d7563 	strvsb	r7, [sp, #-1379]!
 4c0:	2f73746e 	svccs	0x0073746e
 4c4:	2f554d43 	svccs	0x00554d43
 4c8:	73616c63 	cmnvc	r1, #25344	; 0x6300
 4cc:	30322f73 	eorccs	r2, r2, r3, ror pc
 4d0:	465f3331 	undefined
 4d4:	2f6c6c61 	svccs	0x006c6c61
 4d8:	332d3831 	teqcc	sp, #3211264	; 0x310000
 4dc:	4c2f3234 	sfmmi	f3, 4, [pc], #-208
 4e0:	6e2f6261 	cdpvs	2, 2, cr6, cr15, cr1, {3}
 4e4:	616d726f 	cmnvs	sp, pc, ror #4
 4e8:	616c2f6e 	cmnvs	ip, lr, ror #30
 4ec:	6b2f3462 	blvs	bcd67c <_start-0xa2432984>
 4f0:	656e7265 	strvsb	r7, [lr, #-613]!
 4f4:	65682f6c 	strvsb	r2, [r8, #-3948]!
 4f8:	6d756478 	cfldrdvs	mvd6, [r5, #-480]!
 4fc:	00632e70 	rsbeq	r2, r3, r0, ror lr
 500:	646c6f68 	strvsbt	r6, [ip], #-3944
 504:	6f6c5f73 	svcvs	0x006c5f73
 508:	75006b63 	strvc	r6, [r0, #-2915]
 50c:	38746e69 	ldmccda	r4!, {r0, r3, r5, r6, r9, sl, fp, sp, lr}^
 510:	6400745f 	strvs	r7, [r0], #-1119
 514:	745f7665 	ldrvcb	r7, [pc], #1637	; 51c <_start-0xa2fffae4>
 518:	78656e00 	stmvcda	r5!, {r9, sl, fp, sp, lr}^
 51c:	616d5f74 	smcvs	54772
 520:	00686374 	rsbeq	r6, r8, r4, ror r3
 524:	65656c73 	strvsb	r6, [r5, #-3187]!
 528:	65757170 	ldrvsb	r7, [r5, #-368]!
 52c:	775f6575 	undefined
 530:	00656b61 	rsbeq	r6, r5, r1, ror #22
 534:	62616e65 	rsbvs	r6, r1, #1616	; 0x650
 538:	695f656c 	ldmvsdb	pc, {r2, r3, r5, r6, r8, sl, sp, lr}^
 53c:	7265746e 	rsbvc	r7, r5, #1845493760	; 0x6e000000
 540:	74707572 	ldrvcbt	r7, [r0], #-1394
 544:	682f0073 	stmvsda	pc!, {r0, r1, r4, r5, r6}
 548:	2f656d6f 	svccs	0x00656d6f
 54c:	68736f79 	ldmvsda	r3!, {r0, r3, r4, r5, r6, r8, r9, sl, fp, sp, lr}^
 550:	696b6169 	stmvsdb	fp!, {r0, r3, r5, r6, r8, sp, lr}^
 554:	6f72442f 	svcvs	0x0072442f
 558:	786f6270 	stmvcda	pc!, {r4, r5, r6, r9, sp, lr}^
 55c:	636f442f 	cmnvs	pc, #788529152	; 0x2f000000
 560:	6e656d75 	mcrvs	13, 3, r6, cr5, cr5, {3}
 564:	432f7374 	teqmi	pc, #-805306367	; 0xd0000001
 568:	632f554d 	teqvs	pc, #322961408	; 0x13400000
 56c:	7373616c 	cmnvc	r3, #27	; 0x1b
 570:	3130322f 	teqcc	r0, pc, lsr #4
 574:	61465f33 	cmpvs	r6, r3, lsr pc
 578:	312f6c6c 	teqcc	pc, ip, ror #24
 57c:	34332d38 	ldrcct	r2, [r3], #-3384
 580:	614c2f32 	cmpvs	ip, r2, lsr pc
 584:	6f6e2f62 	svcvs	0x006e2f62
 588:	6e616d72 	mcrvs	13, 3, r6, cr1, cr2, {3}
 58c:	62616c2f 	rsbvs	r6, r1, #12032	; 0x2f00
 590:	656b2f34 	strvsb	r2, [fp, #-3892]!
 594:	6c656e72 	stcvsl	14, cr6, [r5], #-456
 598:	7665642f 	strvcbt	r6, [r5], -pc, lsr #8
 59c:	2e656369 	cdpcs	3, 6, cr6, cr5, cr9, {3}
 5a0:	65640063 	strvsb	r0, [r4, #-99]!
 5a4:	72665f76 	rsbvc	r5, r6, #472	; 0x1d8
 5a8:	6b007165 	blvs	1cb44 <_start-0xa2fe34bc>
 5ac:	63617473 	cmnvs	r1, #1929379840	; 0x73000000
 5b0:	69685f6b 	stmvsdb	r8!, {r0, r1, r3, r5, r6, r8, r9, sl, fp, ip, lr}^
 5b4:	6b006867 	blvs	1a758 <_start-0xa2fe58a8>
 5b8:	63617473 	cmnvs	r1, #1929379840	; 0x73000000
 5bc:	6564006b 	strvsb	r0, [r4, #-107]!
 5c0:	65636976 	strvsb	r6, [r3, #-2422]!
 5c4:	696d0073 	stmvsdb	sp!, {r0, r1, r4, r5, r6}^
 5c8:	73696c6c 	cmnvc	r9, #27648	; 0x6c00
 5cc:	76656400 	strvcbt	r6, [r5], -r0, lsl #8
 5d0:	6470755f 	ldrvsbt	r7, [r0], #-1375
 5d4:	00657461 	rsbeq	r7, r5, r1, ror #8
 5d8:	72727563 	rsbvcs	r7, r2, #415236096	; 0x18c00000
 5dc:	74616e00 	strvcbt	r6, [r1], #-3584
 5e0:	5f657669 	svcpl	0x00657669
 5e4:	6f697270 	svcvs	0x00697270
 5e8:	656c7300 	strvsb	r7, [ip, #-768]!
 5ec:	715f7065 	cmpvc	pc, r5, rrx
 5f0:	65756575 	ldrvsb	r6, [r5, #-1397]!
 5f4:	76656400 	strvcbt	r6, [r5], -r0, lsl #8
 5f8:	696e695f 	stmvsdb	lr!, {r0, r1, r2, r3, r4, r6, r8, fp, sp, lr}^
 5fc:	72660074 	rsbvc	r0, r6, #116	; 0x74
 600:	00746e6f 	rsbeqs	r6, r4, pc, ror #28
 604:	65686373 	strvsb	r6, [r8, #-883]!
 608:	6f635f64 	svcvs	0x00635f64
 60c:	7865746e 	stmvcda	r5!, {r1, r2, r3, r5, r6, sl, ip, sp, lr}^
 610:	65640074 	strvsb	r0, [r4, #-116]!
 614:	61775f76 	cmnvs	r7, r6, ror pc
 618:	6e007469 	cdpvs	4, 0, cr7, cr0, cr9, {3}
 61c:	00747865 	rsbeqs	r7, r4, r5, ror #16
 620:	5f676572 	svcpl	0x00676572
 624:	64616572 	strvsbt	r6, [r1], #-1394
 628:	616c6600 	cmnvs	ip, r0, lsl #12
 62c:	2f007367 	svccs	0x00007367
 630:	656d6f68 	strvsb	r6, [sp, #-3944]!
 634:	736f792f 	cmnvc	pc, #770048	; 0xbc000
 638:	6b616968 	blvs	185abe0 <_start-0xa17a5420>
 63c:	72442f69 	subvc	r2, r4, #420	; 0x1a4
 640:	6f62706f 	svcvs	0x0062706f
 644:	6f442f78 	svcvs	0x00442f78
 648:	656d7563 	strvsb	r7, [sp, #-1379]!
 64c:	2f73746e 	svccs	0x0073746e
 650:	2f554d43 	svccs	0x00554d43
 654:	73616c63 	cmnvc	r1, #25344	; 0x6300
 658:	30322f73 	eorccs	r2, r2, r3, ror pc
 65c:	465f3331 	undefined
 660:	2f6c6c61 	svccs	0x006c6c61
 664:	332d3831 	teqcc	sp, #3211264	; 0x310000
 668:	4c2f3234 	sfmmi	f3, 4, [pc], #-208
 66c:	6e2f6261 	cdpvs	2, 2, cr6, cr15, cr1, {3}
 670:	616d726f 	cmnvs	sp, pc, ror #4
 674:	616c2f6e 	cmnvs	ip, lr, ror #30
 678:	6b2f3462 	blvs	bcd808 <_start-0xa24327f8>
 67c:	656e7265 	strvsb	r7, [lr, #-613]!
 680:	72612f6c 	rsbvc	r2, r1, #432	; 0x1b0
 684:	65722f6d 	ldrvsb	r2, [r2, #-3949]!
 688:	00632e67 	rsbeq	r2, r3, r7, ror #28
 68c:	5f676572 	svcpl	0x00676572
 690:	61656c63 	cmnvs	r5, r3, ror #24
 694:	65720072 	ldrvsb	r0, [r2, #-114]!
 698:	65735f67 	ldrvsb	r5, [r3, #-3943]!
 69c:	682f0074 	stmvsda	pc!, {r2, r4, r5, r6}
 6a0:	2f656d6f 	svccs	0x00656d6f
 6a4:	68736f79 	ldmvsda	r3!, {r0, r3, r4, r5, r6, r8, r9, sl, fp, sp, lr}^
 6a8:	696b6169 	stmvsdb	fp!, {r0, r3, r5, r6, r8, sp, lr}^
 6ac:	6f72442f 	svcvs	0x0072442f
 6b0:	786f6270 	stmvcda	pc!, {r4, r5, r6, r9, sp, lr}^
 6b4:	636f442f 	cmnvs	pc, #788529152	; 0x2f000000
 6b8:	6e656d75 	mcrvs	13, 3, r6, cr5, cr5, {3}
 6bc:	432f7374 	teqmi	pc, #-805306367	; 0xd0000001
 6c0:	632f554d 	teqvs	pc, #322961408	; 0x13400000
 6c4:	7373616c 	cmnvc	r3, #27	; 0x1b
 6c8:	3130322f 	teqcc	r0, pc, lsr #4
 6cc:	61465f33 	cmpvs	r6, r3, lsr pc
 6d0:	312f6c6c 	teqcc	pc, ip, ror #24
 6d4:	34332d38 	ldrcct	r2, [r3], #-3384
 6d8:	614c2f32 	cmpvs	ip, r2, lsr pc
 6dc:	6f6e2f62 	svcvs	0x006e2f62
 6e0:	6e616d72 	mcrvs	13, 3, r6, cr1, cr2, {3}
 6e4:	62616c2f 	rsbvs	r6, r1, #12032	; 0x2f00
 6e8:	656b2f34 	strvsb	r2, [fp, #-3892]!
 6ec:	6c656e72 	stcvsl	14, cr6, [r5], #-456
 6f0:	6d72612f 	ldfvse	f6, [r2, #-188]!
 6f4:	7273702f 	rsbvcs	r7, r3, #47	; 0x2f
 6f8:	7200632e 	andvc	r6, r0, #-1207959552	; 0xb8000000
 6fc:	5f646165 	svcpl	0x00646165
 700:	72737063 	rsbvcs	r7, r3, #99	; 0x63
 704:	495f4300 	ldmmidb	pc, {r8, r9, lr}^
 708:	485f5152 	ldmmida	pc, {r1, r4, r6, r8, ip, lr}^
 70c:	6c646e61 	stcvsl	14, cr6, [r4], #-388
 710:	2f007265 	svccs	0x00007265
 714:	656d6f68 	strvsb	r6, [sp, #-3944]!
 718:	736f792f 	cmnvc	pc, #770048	; 0xbc000
 71c:	6b616968 	blvs	185acc4 <_start-0xa17a533c>
 720:	72442f69 	subvc	r2, r4, #420	; 0x1a4
 724:	6f62706f 	svcvs	0x0062706f
 728:	6f442f78 	svcvs	0x00442f78
 72c:	656d7563 	strvsb	r7, [sp, #-1379]!
 730:	2f73746e 	svccs	0x0073746e
 734:	2f554d43 	svccs	0x00554d43
 738:	73616c63 	cmnvc	r1, #25344	; 0x6300
 73c:	30322f73 	eorccs	r2, r2, r3, ror pc
 740:	465f3331 	undefined
 744:	2f6c6c61 	svccs	0x006c6c61
 748:	332d3831 	teqcc	sp, #3211264	; 0x310000
 74c:	4c2f3234 	sfmmi	f3, 4, [pc], #-208
 750:	6e2f6261 	cdpvs	2, 2, cr6, cr15, cr1, {3}
 754:	616d726f 	cmnvs	sp, pc, ror #4
 758:	616c2f6e 	cmnvs	ip, lr, ror #30
 75c:	6b2f3462 	blvs	bcd8ec <_start-0xa2432714>
 760:	656e7265 	strvsb	r7, [lr, #-613]!
 764:	72612f6c 	rsbvc	r2, r1, #432	; 0x1b0
 768:	5f432f6d 	svcpl	0x00432f6d
 76c:	5f515249 	svcpl	0x00515249
 770:	646e6148 	strvsbt	r6, [lr], #-328
 774:	2e72656c 	cdpcs	5, 7, cr6, cr2, cr12, {3}
 778:	756d0063 	strvcb	r0, [sp, #-99]!
 77c:	00786574 	rsbeqs	r6, r8, r4, ror r5
 780:	57535f43 	ldrplb	r5, [r3, -r3, asr #30]
 784:	61485f49 	cmpvs	r8, r9, asr #30
 788:	656c646e 	strvsb	r6, [ip, #-1134]!
 78c:	65720072 	ldrvsb	r0, [r2, #-114]!
 790:	73007367 	movwvc	r7, #871	; 0x367
 794:	6e5f6977 	mrcvs	9, 2, r6, cr15, cr7, {3}
 798:	2f006d75 	svccs	0x00006d75
 79c:	656d6f68 	strvsb	r6, [sp, #-3944]!
 7a0:	736f792f 	cmnvc	pc, #770048	; 0xbc000
 7a4:	6b616968 	blvs	185ad4c <_start-0xa17a52b4>
 7a8:	72442f69 	subvc	r2, r4, #420	; 0x1a4
 7ac:	6f62706f 	svcvs	0x0062706f
 7b0:	6f442f78 	svcvs	0x00442f78
 7b4:	656d7563 	strvsb	r7, [sp, #-1379]!
 7b8:	2f73746e 	svccs	0x0073746e
 7bc:	2f554d43 	svccs	0x00554d43
 7c0:	73616c63 	cmnvc	r1, #25344	; 0x6300
 7c4:	30322f73 	eorccs	r2, r2, r3, ror pc
 7c8:	465f3331 	undefined
 7cc:	2f6c6c61 	svccs	0x006c6c61
 7d0:	332d3831 	teqcc	sp, #3211264	; 0x310000
 7d4:	4c2f3234 	sfmmi	f3, 4, [pc], #-208
 7d8:	6e2f6261 	cdpvs	2, 2, cr6, cr15, cr1, {3}
 7dc:	616d726f 	cmnvs	sp, pc, ror #4
 7e0:	616c2f6e 	cmnvs	ip, lr, ror #30
 7e4:	6b2f3462 	blvs	bcd974 <_start-0xa243268c>
 7e8:	656e7265 	strvsb	r7, [lr, #-613]!
 7ec:	72612f6c 	rsbvc	r2, r1, #432	; 0x1b0
 7f0:	5f432f6d 	svcpl	0x00432f6d
 7f4:	5f495753 	svcpl	0x00495753
 7f8:	646e6148 	strvsbt	r6, [lr], #-328
 7fc:	2e72656c 	cdpcs	5, 7, cr6, cr2, cr12, {3}
 800:	756e0063 	strvcb	r0, [lr, #-99]!
 804:	61745f6d 	cmnvs	r4, sp, ror #30
 808:	00736b73 	rsbeqs	r6, r3, r3, ror fp
 80c:	657a6973 	ldrvsb	r6, [sl, #-2419]!
 810:	6f682f00 	svcvs	0x00682f00
 814:	792f656d 	stmvcdb	pc!, {r0, r2, r3, r5, r6, r8, sl, sp, lr}
 818:	6968736f 	stmvsdb	r8!, {r0, r1, r2, r3, r5, r6, r8, r9, ip, sp, lr}^
 81c:	2f696b61 	svccs	0x00696b61
 820:	706f7244 	rsbvc	r7, pc, r4, asr #4
 824:	2f786f62 	svccs	0x00786f62
 828:	75636f44 	strvcb	r6, [r3, #-3908]!
 82c:	746e656d 	strvcbt	r6, [lr], #-1389
 830:	4d432f73 	stcmil	15, cr2, [r3, #-460]
 834:	6c632f55 	stcvsl	15, cr2, [r3], #-340
 838:	2f737361 	svccs	0x00737361
 83c:	33313032 	teqcc	r1, #50	; 0x32
 840:	6c61465f 	stcvsl	6, cr4, [r1], #-380
 844:	38312f6c 	ldmccda	r1!, {r2, r3, r5, r6, r8, r9, sl, fp, sp}
 848:	3234332d 	eorccs	r3, r4, #-1275068416	; 0xb4000000
 84c:	62614c2f 	rsbvs	r4, r1, #12032	; 0x2f00
 850:	726f6e2f 	rsbvc	r6, pc, #752	; 0x2f0
 854:	2f6e616d 	svccs	0x006e616d
 858:	3462616c 	strccbt	r6, [r2], #-364
 85c:	72656b2f 	rsbvc	r6, r5, #48128	; 0xbc00
 860:	2f6c656e 	svccs	0x006c656e
 864:	2f6d7261 	svccs	0x006d7261
 868:	656d6974 	strvsb	r6, [sp, #-2420]!
 86c:	00632e72 	rsbeq	r2, r3, r2, ror lr
 870:	656d6974 	strvsb	r6, [sp, #-2420]!
 874:	6e695f72 	mcrvs	15, 3, r5, cr9, cr2, {3}
 878:	69740063 	ldmvsdb	r4!, {r0, r1, r5, r6}^
 87c:	5f72656d 	svcpl	0x0072656d
 880:	74696e69 	strvcbt	r6, [r9], #-3689
 884:	6d736f00 	ldcvsl	15, cr6, [r3]
 888:	6f635f72 	svcvs	0x00635f72
 88c:	00746e75 	rsbeqs	r6, r4, r5, ror lr
 890:	7273736f 	rsbvcs	r7, r3, #-1140850687	; 0xbc000001
 894:	6d756e00 	ldcvsl	14, cr6, [r5]
 898:	6d69745f 	cfstrdvs	mvd7, [r9, #-380]!
 89c:	745f7265 	ldrvcb	r7, [pc], #613	; 8a4 <_start-0xa2fff75c>
 8a0:	006b6369 	rsbeq	r6, fp, r9, ror #6
 8a4:	64616572 	strvsbt	r6, [r1], #-1394
 8a8:	7379735f 	cmnvc	r9, #2080374785	; 0x7c000001
 8ac:	6c6c6163 	stfvse	f6, [ip], #-396
 8b0:	69737300 	ldmvsdb	r3!, {r8, r9, ip, sp, lr}^
 8b4:	745f657a 	ldrvcb	r6, [pc], #1402	; 8bc <_start-0xa2fff744>
 8b8:	75626300 	strvcb	r6, [r2, #-768]!
 8bc:	75620066 	strvcb	r0, [r2, #-102]!
 8c0:	6e655f66 	cdpvs	15, 6, cr5, cr5, cr6, {3}
 8c4:	5f620064 	svcpl	0x00620064
 8c8:	64616572 	strvsbt	r6, [r1], #-1394
 8cc:	69727700 	ldmvsdb	r2!, {r8, r9, sl, ip, sp, lr}^
 8d0:	735f6574 	cmpvc	pc, #486539264	; 0x1d000000
 8d4:	61637379 	smcvs	14137
 8d8:	2f006c6c 	svccs	0x00006c6c
 8dc:	656d6f68 	strvsb	r6, [sp, #-3944]!
 8e0:	736f792f 	cmnvc	pc, #770048	; 0xbc000
 8e4:	6b616968 	blvs	185ae8c <_start-0xa17a5174>
 8e8:	72442f69 	subvc	r2, r4, #420	; 0x1a4
 8ec:	6f62706f 	svcvs	0x0062706f
 8f0:	6f442f78 	svcvs	0x00442f78
 8f4:	656d7563 	strvsb	r7, [sp, #-1379]!
 8f8:	2f73746e 	svccs	0x0073746e
 8fc:	2f554d43 	svccs	0x00554d43
 900:	73616c63 	cmnvc	r1, #25344	; 0x6300
 904:	30322f73 	eorccs	r2, r2, r3, ror pc
 908:	465f3331 	undefined
 90c:	2f6c6c61 	svccs	0x006c6c61
 910:	332d3831 	teqcc	sp, #3211264	; 0x310000
 914:	4c2f3234 	sfmmi	f3, 4, [pc], #-208
 918:	6e2f6261 	cdpvs	2, 2, cr6, cr15, cr1, {3}
 91c:	616d726f 	cmnvs	sp, pc, ror #4
 920:	616c2f6e 	cmnvs	ip, lr, ror #30
 924:	6b2f3462 	blvs	bcdab4 <_start-0xa243254c>
 928:	656e7265 	strvsb	r7, [lr, #-613]!
 92c:	79732f6c 	ldmvcdb	r3!, {r2, r3, r5, r6, r8, r9, sl, fp, sp}^
 930:	6c616373 	stcvsl	3, cr6, [r1], #-460
 934:	6f692f6c 	svcvs	0x00692f6c
 938:	6200632e 	andvs	r6, r0, #-1207959552	; 0xb8000000
 93c:	625f6675 	subvss	r6, pc, #122683392	; 0x7500000
 940:	6e696765 	cdpvs	7, 6, cr6, cr9, cr5, {3}
 944:	65766500 	ldrvsb	r6, [r6, #-1280]!
 948:	775f746e 	ldrvcb	r7, [pc, -lr, ror #8]
 94c:	00746961 	rsbeqs	r6, r4, r1, ror #18
 950:	65686373 	strvsb	r6, [r8, #-883]!
 954:	616c7564 	cmnvs	ip, r4, ror #10
 958:	00656c62 	rsbeq	r6, r5, r2, ror #24
 95c:	61656c63 	cmnvs	r5, r3, ror #24
 960:	61745f72 	cmnvs	r4, r2, ror pc
 964:	00736b73 	rsbeqs	r6, r3, r3, ror fp
 968:	74737973 	ldrvcbt	r7, [r3], #-2419
 96c:	705f6d65 	subvcs	r6, pc, r5, ror #26
 970:	6b736174 	blvs	1cd8f48 <_start-0xa13270b8>
 974:	6e690073 	mcrvs	0, 3, r0, cr9, cr3, {3}
 978:	696c6176 	stmvsdb	ip!, {r1, r2, r4, r5, r6, r8, sp, lr}^
 97c:	79735f64 	ldmvcdb	r3!, {r2, r5, r6, r8, r9, sl, fp, ip, lr}^
 980:	6c616373 	stcvsl	3, cr6, [r1], #-460
 984:	6174006c 	cmnvs	r4, ip, rrx
 988:	635f6b73 	cmpvs	pc, #117760	; 0x1cc00
 98c:	74616572 	strvcbt	r6, [r1], #-1394
 990:	70540065 	subvcs	r0, r4, r5, rrx
 994:	6f697265 	svcvs	0x00697265
 998:	6e690064 	cdpvs	0, 6, cr0, cr9, cr4, {3}
 99c:	74726573 	ldrvcbt	r6, [r2], #-1395
 9a0:	5f6e6f69 	svcpl	0x006e6f69
 9a4:	74726f73 	ldrvcbt	r6, [r2], #-3955
 9a8:	72726500 	rsbvcs	r6, r2, #0	; 0x0
 9ac:	2f00726f 	svccs	0x0000726f
 9b0:	656d6f68 	strvsb	r6, [sp, #-3944]!
 9b4:	736f792f 	cmnvc	pc, #770048	; 0xbc000
 9b8:	6b616968 	blvs	185af60 <_start-0xa17a50a0>
 9bc:	72442f69 	subvc	r2, r4, #420	; 0x1a4
 9c0:	6f62706f 	svcvs	0x0062706f
 9c4:	6f442f78 	svcvs	0x00442f78
 9c8:	656d7563 	strvsb	r7, [sp, #-1379]!
 9cc:	2f73746e 	svccs	0x0073746e
 9d0:	2f554d43 	svccs	0x00554d43
 9d4:	73616c63 	cmnvc	r1, #25344	; 0x6300
 9d8:	30322f73 	eorccs	r2, r2, r3, ror pc
 9dc:	465f3331 	undefined
 9e0:	2f6c6c61 	svccs	0x006c6c61
 9e4:	332d3831 	teqcc	sp, #3211264	; 0x310000
 9e8:	4c2f3234 	sfmmi	f3, 4, [pc], #-208
 9ec:	6e2f6261 	cdpvs	2, 2, cr6, cr15, cr1, {3}
 9f0:	616d726f 	cmnvs	sp, pc, ror #4
 9f4:	616c2f6e 	cmnvs	ip, lr, ror #30
 9f8:	6b2f3462 	blvs	bcdb88 <_start-0xa2432478>
 9fc:	656e7265 	strvsb	r7, [lr, #-613]!
 a00:	79732f6c 	ldmvcdb	r3!, {r2, r3, r5, r6, r8, r9, sl, fp, sp}^
 a04:	6c616373 	stcvsl	3, cr6, [r1], #-460
 a08:	72702f6c 	rsbvcs	r2, r0, #432	; 0x1b0
 a0c:	632e636f 	teqvs	lr, #-1140850687	; 0xbc000001
 a10:	726f7300 	rsbvc	r7, pc, #0	; 0x0
 a14:	61745f74 	cmnvs	r4, r4, ror pc
 a18:	00736b73 	rsbeqs	r6, r3, r3, ror fp
 a1c:	6c6c6163 	stfvse	f6, [ip], #-396
 a20:	6d756e5f 	ldcvsl	14, cr6, [r5, #-380]!
 a24:	656c7300 	strvsb	r7, [ip, #-768]!
 a28:	735f7065 	cmpvc	pc, #101	; 0x65
 a2c:	61637379 	smcvs	14137
 a30:	74006c6c 	strvc	r6, [r0], #-3180
 a34:	5f656d69 	svcpl	0x00656d69
 a38:	63737973 	cmnvs	r3, #1884160	; 0x1cc000
 a3c:	006c6c61 	rsbeq	r6, ip, r1, ror #24
 a40:	6d6f682f 	stcvsl	8, cr6, [pc, #-188]!
 a44:	6f792f65 	svcvs	0x00792f65
 a48:	61696873 	smcvs	38531
 a4c:	442f696b 	strmit	r6, [pc], #2411	; a54 <_start-0xa2fff5ac>
 a50:	62706f72 	rsbvss	r6, r0, #456	; 0x1c8
 a54:	442f786f 	strmit	r7, [pc], #2159	; a5c <_start-0xa2fff5a4>
 a58:	6d75636f 	ldcvsl	3, cr6, [r5, #-444]!
 a5c:	73746e65 	cmnvc	r4, #1616	; 0x650
 a60:	554d432f 	strplb	r4, [sp, #-815]
 a64:	616c632f 	cmnvs	ip, pc, lsr #6
 a68:	322f7373 	eorcc	r7, pc, #-872415231	; 0xcc000001
 a6c:	5f333130 	svcpl	0x00333130
 a70:	6c6c6146 	stfvse	f6, [ip], #-280
 a74:	2d38312f 	ldfcss	f3, [r8, #-188]!
 a78:	2f323433 	svccs	0x00323433
 a7c:	2f62614c 	svccs	0x0062614c
 a80:	6d726f6e 	ldcvsl	15, cr6, [r2, #-440]!
 a84:	6c2f6e61 	stcvs	14, cr6, [pc], #-388
 a88:	2f346261 	svccs	0x00346261
 a8c:	6e72656b 	cdpvs	5, 7, cr6, cr2, cr11, {3}
 a90:	732f6c65 	teqvc	pc, #25856	; 0x6500
 a94:	61637379 	smcvs	14137
 a98:	742f6c6c 	strvct	r6, [pc], #3180	; aa0 <_start-0xa2fff560>
 a9c:	2e656d69 	cdpcs	13, 6, cr6, cr5, cr9, {3}
 aa0:	61740063 	cmnvs	r4, r3, rrx
 aa4:	74656772 	strvcbt	r6, [r5], #-1906
 aa8:	6d69745f 	cfstrdvs	mvd7, [r9, #-380]!
 aac:	74730065 	ldrvcbt	r0, [r3], #-101
 ab0:	5f747261 	svcpl	0x00747261
 ab4:	656d6974 	strvsb	r6, [sp, #-2420]!
 ab8:	65736d00 	ldrvsb	r6, [r3, #-3328]!
 abc:	6c610063 	stcvsl	0, cr0, [r1], #-396
 ac0:	61636f6c 	cmnvs	r3, ip, ror #30
 ac4:	745f6574 	ldrvcb	r6, [pc], #1396	; acc <_start-0xa2fff534>
 ac8:	736b7361 	cmnvc	fp, #-2080374783	; 0x84000001
 acc:	73797300 	cmnvc	r9, #0	; 0x0
 ad0:	5f6d6574 	svcpl	0x006d6574
 ad4:	00626374 	rsbeq	r6, r2, r4, ror r3
 ad8:	656c6469 	strvsb	r6, [ip, #-1129]!
 adc:	72617400 	rsbvc	r7, r1, #0	; 0x0
 ae0:	5f746567 	svcpl	0x00746567
 ae4:	00626374 	rsbeq	r6, r2, r4, ror r3
 ae8:	656c6469 	strvsb	r6, [ip, #-1129]!
 aec:	7361745f 	cmnvc	r1, #1593835520	; 0x5f000000
 af0:	6469006b 	strvsbt	r0, [r9], #-107
 af4:	695f656c 	ldmvsdb	pc, {r2, r3, r5, r6, r8, sl, sp, lr}^
 af8:	0074696e 	rsbeqs	r6, r4, lr, ror #18
 afc:	6d6f682f 	stcvsl	8, cr6, [pc, #-188]!
 b00:	6f792f65 	svcvs	0x00792f65
 b04:	61696873 	smcvs	38531
 b08:	442f696b 	strmit	r6, [pc], #2411	; b10 <_start-0xa2fff4f0>
 b0c:	62706f72 	rsbvss	r6, r0, #456	; 0x1c8
 b10:	442f786f 	strmit	r7, [pc], #2159	; b18 <_start-0xa2fff4e8>
 b14:	6d75636f 	ldcvsl	3, cr6, [r5, #-444]!
 b18:	73746e65 	cmnvc	r4, #1616	; 0x650
 b1c:	554d432f 	strplb	r4, [sp, #-815]
 b20:	616c632f 	cmnvs	ip, pc, lsr #6
 b24:	322f7373 	eorcc	r7, pc, #-872415231	; 0xcc000001
 b28:	5f333130 	svcpl	0x00333130
 b2c:	6c6c6146 	stfvse	f6, [ip], #-280
 b30:	2d38312f 	ldfcss	f3, [r8, #-188]!
 b34:	2f323433 	svccs	0x00323433
 b38:	2f62614c 	svccs	0x0062614c
 b3c:	6d726f6e 	ldcvsl	15, cr6, [r2, #-440]!
 b40:	6c2f6e61 	stcvs	14, cr6, [pc], #-388
 b44:	2f346261 	svccs	0x00346261
 b48:	6e72656b 	cdpvs	5, 7, cr6, cr2, cr11, {3}
 b4c:	732f6c65 	teqvc	pc, #25856	; 0x6500
 b50:	64656863 	strvsbt	r6, [r5], #-2147
 b54:	6863732f 	stmvsda	r3!, {r0, r1, r2, r3, r5, r8, r9, ip, sp, lr}^
 b58:	632e6465 	teqvs	lr, #1694498816	; 0x65000000
 b5c:	68637300 	stmvsda	r3!, {r8, r9, ip, sp, lr}^
 b60:	695f6465 	ldmvsdb	pc, {r0, r2, r5, r6, sl, sp, lr}^
 b64:	0074696e 	rsbeqs	r6, r4, lr, ror #18
 b68:	5f626374 	svcpl	0x00626374
 b6c:	75626564 	strvcb	r6, [r2, #-1380]!
 b70:	63740067 	cmnvs	r4, #103	; 0x67
 b74:	6e695f62 	cdpvs	15, 6, cr5, cr9, cr2, {3}
 b78:	2f007469 	svccs	0x00007469
 b7c:	656d6f68 	strvsb	r6, [sp, #-3944]!
 b80:	736f792f 	cmnvc	pc, #770048	; 0xbc000
 b84:	6b616968 	blvs	185b12c <_start-0xa17a4ed4>
 b88:	72442f69 	subvc	r2, r4, #420	; 0x1a4
 b8c:	6f62706f 	svcvs	0x0062706f
 b90:	6f442f78 	svcvs	0x00442f78
 b94:	656d7563 	strvsb	r7, [sp, #-1379]!
 b98:	2f73746e 	svccs	0x0073746e
 b9c:	2f554d43 	svccs	0x00554d43
 ba0:	73616c63 	cmnvc	r1, #25344	; 0x6300
 ba4:	30322f73 	eorccs	r2, r2, r3, ror pc
 ba8:	465f3331 	undefined
 bac:	2f6c6c61 	svccs	0x006c6c61
 bb0:	332d3831 	teqcc	sp, #3211264	; 0x310000
 bb4:	4c2f3234 	sfmmi	f3, 4, [pc], #-208
 bb8:	6e2f6261 	cdpvs	2, 2, cr6, cr15, cr1, {3}
 bbc:	616d726f 	cmnvs	sp, pc, ror #4
 bc0:	616c2f6e 	cmnvs	ip, lr, ror #30
 bc4:	6b2f3462 	blvs	bcdd54 <_start-0xa24322ac>
 bc8:	656e7265 	strvsb	r7, [lr, #-613]!
 bcc:	63732f6c 	cmnvs	r3, #432	; 0x1b0
 bd0:	2f646568 	svccs	0x00646568
 bd4:	745f6275 	ldrvcb	r6, [pc], #629	; bdc <_start-0xa2fff424>
 bd8:	2e747365 	cdpcs	3, 7, cr7, cr4, cr5, {3}
 bdc:	73610063 	cmnvc	r1, #99	; 0x63
 be0:	6e676973 	mcrvs	9, 3, r6, cr7, cr3, {3}
 be4:	6863735f 	stmvsda	r3!, {r0, r1, r2, r3, r4, r6, r8, r9, ip, sp, lr}^
 be8:	6c756465 	cfldrdvs	mvd6, [r5], #-404
 bec:	69640065 	stmvsdb	r4!, {r0, r2, r5, r6}^
 bf0:	74617073 	strvcbt	r7, [r1], #-115
 bf4:	695f6863 	ldmvsdb	pc, {r0, r1, r5, r6, fp, sp, lr}^
 bf8:	0074696e 	rsbeqs	r6, r4, lr, ror #18
 bfc:	5f746567 	svcpl	0x00746567
 c00:	5f727563 	svcpl	0x00727563
 c04:	00626374 	rsbeq	r6, r2, r4, ror r3
 c08:	70736964 	rsbvcs	r6, r3, r4, ror #18
 c0c:	68637461 	stmvsda	r3!, {r0, r5, r6, sl, ip, sp, lr}^
 c10:	736f6e5f 	cmnvc	pc, #1520	; 0x5f0
 c14:	00657661 	rsbeq	r7, r5, r1, ror #12
 c18:	70736964 	rsbvcs	r6, r3, r4, ror #18
 c1c:	68637461 	stmvsda	r3!, {r0, r5, r6, sl, ip, sp, lr}^
 c20:	656c735f 	strvsb	r7, [ip, #-863]!
 c24:	2f007065 	svccs	0x00007065
 c28:	656d6f68 	strvsb	r6, [sp, #-3944]!
 c2c:	736f792f 	cmnvc	pc, #770048	; 0xbc000
 c30:	6b616968 	blvs	185b1d8 <_start-0xa17a4e28>
 c34:	72442f69 	subvc	r2, r4, #420	; 0x1a4
 c38:	6f62706f 	svcvs	0x0062706f
 c3c:	6f442f78 	svcvs	0x00442f78
 c40:	656d7563 	strvsb	r7, [sp, #-1379]!
 c44:	2f73746e 	svccs	0x0073746e
 c48:	2f554d43 	svccs	0x00554d43
 c4c:	73616c63 	cmnvc	r1, #25344	; 0x6300
 c50:	30322f73 	eorccs	r2, r2, r3, ror pc
 c54:	465f3331 	undefined
 c58:	2f6c6c61 	svccs	0x006c6c61
 c5c:	332d3831 	teqcc	sp, #3211264	; 0x310000
 c60:	4c2f3234 	sfmmi	f3, 4, [pc], #-208
 c64:	6e2f6261 	cdpvs	2, 2, cr6, cr15, cr1, {3}
 c68:	616d726f 	cmnvs	sp, pc, ror #4
 c6c:	616c2f6e 	cmnvs	ip, lr, ror #30
 c70:	6b2f3462 	blvs	bcde00 <_start-0xa2432200>
 c74:	656e7265 	strvsb	r7, [lr, #-613]!
 c78:	63732f6c 	cmnvs	r3, #432	; 0x1b0
 c7c:	2f646568 	svccs	0x00646568
 c80:	5f787463 	svcpl	0x00787463
 c84:	74697773 	strvcbt	r7, [r9], #-1907
 c88:	632e6863 	teqvs	lr, #6488064	; 0x630000
 c8c:	73696400 	cmnvc	r9, #0	; 0x0
 c90:	63746170 	cmnvs	r4, #28	; 0x1c
 c94:	61735f68 	cmnvs	r3, r8, ror #30
 c98:	74006576 	strvc	r6, [r0], #-1398
 c9c:	5f706d65 	svcpl	0x00706d65
 ca0:	5f727563 	svcpl	0x00727563
 ca4:	00626374 	rsbeq	r6, r2, r4, ror r3
 ca8:	7478656e 	ldrvcbt	r6, [r8], #-1390
 cac:	7361745f 	cmnvc	r1, #1593835520	; 0x5f000000
 cb0:	72705f6b 	rsbvcs	r5, r0, #428	; 0x1ac
 cb4:	67006f69 	strvs	r6, [r0, -r9, ror #30]
 cb8:	635f7465 	cmpvs	pc, #1694498816	; 0x65000000
 cbc:	705f7275 	subvcs	r7, pc, r5, ror r2
 cc0:	006f6972 	rsbeq	r6, pc, r2, ror r9
 cc4:	5f6e7572 	svcpl	0x006e7572
 cc8:	7473696c 	ldrvcbt	r6, [r3], #-2412
 ccc:	6e757200 	cdpvs	2, 7, cr7, cr5, cr0, {0}
 cd0:	75657571 	strvcb	r7, [r5, #-1393]!
 cd4:	65725f65 	ldrvsb	r5, [r2, #-3941]!
 cd8:	65766f6d 	ldrvsb	r6, [r6, #-3949]!
 cdc:	69727000 	ldmvsdb	r2!, {ip, sp, lr}^
 ce0:	6e755f6f 	cdpvs	15, 7, cr5, cr5, cr15, {3}
 ce4:	5f70616d 	svcpl	0x0070616d
 ce8:	6c626174 	stfvse	f6, [r2], #-464
 cec:	72700065 	rsbvcs	r0, r0, #101	; 0x65
 cf0:	69746e69 	ldmvsdb	r4!, {r0, r3, r5, r6, r9, sl, fp, sp, lr}^
 cf4:	69680074 	stmvsdb	r8!, {r2, r4, r5, r6}^
 cf8:	73656867 	cmnvc	r5, #6750208	; 0x670000
 cfc:	72705f74 	rsbvcs	r5, r0, #464	; 0x1d0
 d00:	72006f69 	andvc	r6, r0, #420	; 0x1a4
 d04:	75716e75 	ldrvcb	r6, [r1, #-3701]!
 d08:	5f657565 	svcpl	0x00657565
 d0c:	00646461 	rsbeq	r6, r4, r1, ror #8
 d10:	5f706d74 	svcpl	0x00706d74
 d14:	00626374 	rsbeq	r6, r2, r4, ror r3
 d18:	716e7572 	smcvc	59218
 d1c:	65756575 	ldrvsb	r6, [r5, #-1397]!
 d20:	696e695f 	stmvsdb	lr!, {r0, r1, r2, r3, r4, r6, r8, fp, sp, lr}^
 d24:	682f0074 	stmvsda	pc!, {r2, r4, r5, r6}
 d28:	2f656d6f 	svccs	0x00656d6f
 d2c:	68736f79 	ldmvsda	r3!, {r0, r3, r4, r5, r6, r8, r9, sl, fp, sp, lr}^
 d30:	696b6169 	stmvsdb	fp!, {r0, r3, r5, r6, r8, sp, lr}^
 d34:	6f72442f 	svcvs	0x0072442f
 d38:	786f6270 	stmvcda	pc!, {r4, r5, r6, r9, sp, lr}^
 d3c:	636f442f 	cmnvs	pc, #788529152	; 0x2f000000
 d40:	6e656d75 	mcrvs	13, 3, r6, cr5, cr5, {3}
 d44:	432f7374 	teqmi	pc, #-805306367	; 0xd0000001
 d48:	632f554d 	teqvs	pc, #322961408	; 0x13400000
 d4c:	7373616c 	cmnvc	r3, #27	; 0x1b
 d50:	3130322f 	teqcc	r0, pc, lsr #4
 d54:	61465f33 	cmpvs	r6, r3, lsr pc
 d58:	312f6c6c 	teqcc	pc, ip, ror #24
 d5c:	34332d38 	ldrcct	r2, [r3], #-3384
 d60:	614c2f32 	cmpvs	ip, r2, lsr pc
 d64:	6f6e2f62 	svcvs	0x006e2f62
 d68:	6e616d72 	mcrvs	13, 3, r6, cr1, cr2, {3}
 d6c:	62616c2f 	rsbvs	r6, r1, #12032	; 0x2f00
 d70:	656b2f34 	strvsb	r2, [fp, #-3892]!
 d74:	6c656e72 	stcvsl	14, cr6, [r5], #-456
 d78:	6863732f 	stmvsda	r3!, {r0, r1, r2, r3, r5, r8, r9, ip, sp, lr}^
 d7c:	722f6465 	eorvc	r6, pc, #1694498816	; 0x65000000
 d80:	715f6e75 	cmpvc	pc, r5, ror lr
 d84:	65756575 	ldrvsb	r6, [r5, #-1397]!
 d88:	6700632e 	strvs	r6, [r0, -lr, lsr #6]
 d8c:	70756f72 	rsbvcs	r6, r5, r2, ror pc
 d90:	6e75725f 	mrcvs	2, 3, r7, cr5, cr15, {2}
 d94:	7469625f 	strvcbt	r6, [r9], #-607
 d98:	534f0073 	movtpl	r0, #61555	; 0xf073
 d9c:	58424354 	stmplda	r2, {r2, r4, r6, r8, r9, lr}^
 da0:	54534f00 	ldrplb	r4, [r3], #-3840
 da4:	00594243 	subeqs	r4, r9, r3, asr #4
 da8:	6574756d 	ldrvsb	r7, [r4, #-1389]!
 dac:	72635f78 	rsbvc	r5, r3, #480	; 0x1e0
 db0:	65746165 	ldrvsb	r6, [r4, #-357]!
 db4:	74756d00 	ldrvcbt	r6, [r5], #-3328
 db8:	755f7865 	ldrvcb	r7, [pc, #-2149]	; 55b <_start-0xa2fffaa5>
 dbc:	636f6c6e 	cmnvs	pc, #28160	; 0x6e00
 dc0:	4146006b 	cmpmi	r6, fp, rrx
 dc4:	0045534c 	subeq	r5, r5, ip, asr #6
 dc8:	636f4c62 	cmnvs	pc, #25088	; 0x6200
 dcc:	756d006b 	strvcb	r0, [sp, #-107]!
 dd0:	5f786574 	svcpl	0x00786574
 dd4:	75657571 	strvcb	r7, [r5, #-1393]!
 dd8:	64615f65 	strvsbt	r5, [r1], #-3941
 ddc:	53700064 	cmnpl	r0, #100	; 0x64
 de0:	7065656c 	rsbvc	r6, r5, ip, ror #10
 de4:	6575715f 	ldrvsb	r7, [r5, #-351]!
 de8:	62006575 	andvs	r6, r0, #490733568	; 0x1d400000
 dec:	5f6c6f6f 	svcpl	0x006c6f6f
 df0:	756d0065 	strvcb	r0, [sp, #-101]!
 df4:	5f786574 	svcpl	0x00786574
 df8:	6b636f6c 	blvs	18dcbb0 <_start-0xa1723450>
 dfc:	74756d00 	ldrvcbt	r6, [r5], #-3328
 e00:	715f7865 	cmpvc	pc, r5, ror #16
 e04:	65756575 	ldrvsb	r6, [r5, #-1397]!
 e08:	6d65725f 	sfmvs	f7, 2, [r5, #-380]!
 e0c:	0065766f 	rsbeq	r7, r5, pc, ror #12
 e10:	61764162 	cmnvs	r6, r2, ror #2
 e14:	62616c69 	rsbvs	r6, r1, #26880	; 0x6900
 e18:	5400656c 	strpl	r6, [r0], #-1388
 e1c:	00455552 	subeq	r5, r5, r2, asr r5
 e20:	6d6f682f 	stcvsl	8, cr6, [pc, #-188]!
 e24:	6f792f65 	svcvs	0x00792f65
 e28:	61696873 	smcvs	38531
 e2c:	442f696b 	strmit	r6, [pc], #2411	; e34 <_start-0xa2fff1cc>
 e30:	62706f72 	rsbvss	r6, r0, #456	; 0x1c8
 e34:	442f786f 	strmit	r7, [pc], #2159	; e3c <_start-0xa2fff1c4>
 e38:	6d75636f 	ldcvsl	3, cr6, [r5, #-444]!
 e3c:	73746e65 	cmnvc	r4, #1616	; 0x650
 e40:	554d432f 	strplb	r4, [sp, #-815]
 e44:	616c632f 	cmnvs	ip, pc, lsr #6
 e48:	322f7373 	eorcc	r7, pc, #-872415231	; 0xcc000001
 e4c:	5f333130 	svcpl	0x00333130
 e50:	6c6c6146 	stfvse	f6, [ip], #-280
 e54:	2d38312f 	ldfcss	f3, [r8, #-188]!
 e58:	2f323433 	svccs	0x00323433
 e5c:	2f62614c 	svccs	0x0062614c
 e60:	6d726f6e 	ldcvsl	15, cr6, [r2, #-440]!
 e64:	6c2f6e61 	stcvs	14, cr6, [pc], #-388
 e68:	2f346261 	svccs	0x00346261
 e6c:	6e72656b 	cdpvs	5, 7, cr6, cr2, cr11, {3}
 e70:	6c2f6c65 	stcvs	12, cr6, [pc], #-404
 e74:	2f6b636f 	svccs	0x006b636f
 e78:	6574756d 	ldrvsb	r7, [r4, #-1389]!
 e7c:	00632e78 	rsbeq	r2, r3, r8, ror lr
 e80:	754d7467 	strvcb	r7, [sp, #-1127]
 e84:	00786574 	rsbeqs	r6, r8, r4, ror r5
 e88:	6574756d 	ldrvsb	r7, [r4, #-1389]!
 e8c:	6e695f78 	mcrvs	15, 3, r5, cr9, cr8, {3}
 e90:	6d007469 	cfstrsvs	mvf7, [r0, #-420]
 e94:	78657475 	stmvcda	r5!, {r0, r2, r4, r5, r6, sl, ip, sp, lr}^
 e98:	7000745f 	andvc	r7, r0, pc, asr r4
 e9c:	646c6f48 	strvsbt	r6, [ip], #-3912
 ea0:	5f676e69 	svcpl	0x00676e69
 ea4:	00626354 	rsbeq	r6, r2, r4, asr r3
 ea8:	73625f5f 	cmnvc	r2, #380	; 0x17c
 eac:	74735f73 	ldrvcbt	r5, [r3], #-3955
 eb0:	00747261 	rsbeqs	r7, r4, r1, ror #4
 eb4:	5f707061 	svcpl	0x00707061
 eb8:	72617473 	rsbvc	r7, r1, #1929379840	; 0x73000000
 ebc:	00707574 	rsbeqs	r7, r0, r4, ror r5
 ec0:	6d6d7564 	cfstr64vs	mvdx7, [sp, #-400]!
 ec4:	682f0079 	stmvsda	pc!, {r0, r3, r4, r5, r6}
 ec8:	2f656d6f 	svccs	0x00656d6f
 ecc:	68736f79 	ldmvsda	r3!, {r0, r3, r4, r5, r6, r8, r9, sl, fp, sp, lr}^
 ed0:	696b6169 	stmvsdb	fp!, {r0, r3, r5, r6, r8, sp, lr}^
 ed4:	6f72442f 	svcvs	0x0072442f
 ed8:	786f6270 	stmvcda	pc!, {r4, r5, r6, r9, sp, lr}^
 edc:	636f442f 	cmnvs	pc, #788529152	; 0x2f000000
 ee0:	6e656d75 	mcrvs	13, 3, r6, cr5, cr5, {3}
 ee4:	432f7374 	teqmi	pc, #-805306367	; 0xd0000001
 ee8:	632f554d 	teqvs	pc, #322961408	; 0x13400000
 eec:	7373616c 	cmnvc	r3, #27	; 0x1b
 ef0:	3130322f 	teqcc	r0, pc, lsr #4
 ef4:	61465f33 	cmpvs	r6, r3, lsr pc
 ef8:	312f6c6c 	teqcc	pc, ip, ror #24
 efc:	34332d38 	ldrcct	r2, [r3], #-3384
 f00:	614c2f32 	cmpvs	ip, r2, lsr pc
 f04:	6f6e2f62 	svcvs	0x006e2f62
 f08:	6e616d72 	mcrvs	13, 3, r6, cr1, cr2, {3}
 f0c:	62616c2f 	rsbvs	r6, r1, #12032	; 0x2f00
 f10:	62752f34 	rsbvss	r2, r5, #208	; 0xd0
 f14:	2f746f6f 	svccs	0x00746f6f
 f18:	62757473 	rsbvss	r7, r5, #1929379840	; 0x73000000
 f1c:	00632e73 	rsbeq	r2, r3, r3, ror lr
Disassembly of section .debug_loc:

00000000 <.debug_loc>:
   0:	00000000 	andeq	r0, r0, r0
   4:	00000004 	andeq	r0, r0, r4
   8:	045d0001 	ldreqb	r0, [sp], #-1
   c:	08000000 	stmeqda	r0, {}
  10:	02000000 	andeq	r0, r0, #0	; 0x0
  14:	08107d00 	ldmeqda	r0, {r8, sl, fp, ip, sp, lr}
  18:	2c000000 	stccs	0, cr0, [r0], {0}
  1c:	02000000 	andeq	r0, r0, #0	; 0x0
  20:	00147d00 	andeqs	r7, r4, r0, lsl #26
  24:	00000000 	andeq	r0, r0, r0
  28:	1c000000 	stcne	0, cr0, [r0], {0}
  2c:	20000000 	andcs	r0, r0, r0
  30:	01000000 	tsteq	r0, r0
  34:	00005300 	andeq	r5, r0, r0, lsl #6
	...
  40:	00200000 	eoreq	r0, r0, r0
  44:	00010000 	andeq	r0, r1, r0
  48:	0000205d 	andeq	r2, r0, sp, asr r0
  4c:	0000c000 	andeq	ip, r0, r0
  50:	7d000200 	sfmvc	f0, 4, [r0]
  54:	00000004 	andeq	r0, r0, r4
	...
  60:	00001000 	andeq	r1, r0, r0
  64:	50000100 	andpl	r0, r0, r0, lsl #2
  68:	00000010 	andeq	r0, r0, r0, lsl r0
  6c:	000000c0 	andeq	r0, r0, r0, asr #1
  70:	005c0001 	subeqs	r0, ip, r1
  74:	00000000 	andeq	r0, r0, r0
  78:	38000000 	stmccda	r0, {}
  7c:	98000000 	stmlsda	r0, {}
  80:	01000000 	tsteq	r0, r0
  84:	00005000 	andeq	r5, r0, r0
  88:	00000000 	andeq	r0, r0, r0
  8c:	00c00000 	sbceq	r0, r0, r0
  90:	00c40000 	sbceq	r0, r4, r0
  94:	00010000 	andeq	r0, r1, r0
  98:	0000c45d 	andeq	ip, r0, sp, asr r4
  9c:	0000c800 	andeq	ip, r0, r0, lsl #16
  a0:	7d000200 	sfmvc	f0, 4, [r0]
  a4:	0000c808 	andeq	ip, r0, r8, lsl #16
  a8:	00015000 	andeq	r5, r1, r0
  ac:	7d000200 	sfmvc	f0, 4, [r0]
  b0:	0000001c 	andeq	r0, r0, ip, lsl r0
  b4:	00000000 	andeq	r0, r0, r0
  b8:	0000c000 	andeq	ip, r0, r0
  bc:	0000d000 	andeq	sp, r0, r0
  c0:	50000100 	andpl	r0, r0, r0, lsl #2
	...
  cc:	000000c0 	andeq	r0, r0, r0, asr #1
  d0:	000000d0 	ldreqd	r0, [r0], -r0
  d4:	00510001 	subeqs	r0, r1, r1
  d8:	00000000 	andeq	r0, r0, r0
  dc:	c0000000 	andgt	r0, r0, r0
  e0:	d0000000 	andle	r0, r0, r0
  e4:	01000000 	tsteq	r0, r0
  e8:	00d05200 	sbceqs	r5, r0, r0, lsl #4
  ec:	00e80000 	rsceq	r0, r8, r0
  f0:	00010000 	andeq	r0, r1, r0
  f4:	00000054 	andeq	r0, r0, r4, asr r0
  f8:	00000000 	andeq	r0, r0, r0
  fc:	00012800 	andeq	r2, r1, r0, lsl #16
 100:	00012c00 	andeq	r2, r1, r0, lsl #24
 104:	53000100 	movwpl	r0, #256	; 0x100
	...
 114:	00000024 	andeq	r0, r0, r4, lsr #32
 118:	00500001 	subeqs	r0, r0, r1
 11c:	00000000 	andeq	r0, r0, r0
 120:	28000000 	stmcsda	r0, {}
 124:	40000000 	andmi	r0, r0, r0
 128:	01000000 	tsteq	r0, r0
 12c:	00005000 	andeq	r5, r0, r0
	...
 138:	00400000 	subeq	r0, r0, r0
 13c:	00010000 	andeq	r0, r1, r0
 140:	00000050 	andeq	r0, r0, r0, asr r0
	...
 14c:	00002800 	andeq	r2, r0, r0, lsl #16
 150:	52000100 	andpl	r0, r0, #0	; 0x0
 154:	0000003c 	andeq	r0, r0, ip, lsr r0
 158:	00000044 	andeq	r0, r0, r4, asr #32
 15c:	00520001 	subeqs	r0, r2, r1
	...
 168:	10000000 	andne	r0, r0, r0
 16c:	01000000 	tsteq	r0, r0
 170:	00105300 	andeqs	r5, r0, r0, lsl #6
 174:	00440000 	subeq	r0, r4, r0
 178:	00010000 	andeq	r0, r1, r0
 17c:	0000005c 	andeq	r0, r0, ip, asr r0
	...
 188:	00000400 	andeq	r0, r0, r0, lsl #8
 18c:	5d000100 	stfpls	f0, [r0]
 190:	00000004 	andeq	r0, r0, r4
 194:	00000014 	andeq	r0, r0, r4, lsl r0
 198:	047d0002 	ldreqbt	r0, [sp], #-2
	...
 1a8:	0000000c 	andeq	r0, r0, ip
 1ac:	00500001 	subeqs	r0, r0, r1
 1b0:	00000000 	andeq	r0, r0, r0
 1b4:	10000000 	andne	r0, r0, r0
 1b8:	14000000 	strne	r0, [r0]
 1bc:	01000000 	tsteq	r0, r0
 1c0:	00005000 	andeq	r5, r0, r0
 1c4:	00000000 	andeq	r0, r0, r0
 1c8:	00240000 	eoreq	r0, r4, r0
 1cc:	00280000 	eoreq	r0, r8, r0
 1d0:	00010000 	andeq	r0, r1, r0
 1d4:	00000050 	andeq	r0, r0, r0, asr r0
 1d8:	00000000 	andeq	r0, r0, r0
 1dc:	00003800 	andeq	r3, r0, r0, lsl #16
 1e0:	00003c00 	andeq	r3, r0, r0, lsl #24
 1e4:	50000100 	andpl	r0, r0, r0, lsl #2
	...
 1f0:	0000004c 	andeq	r0, r0, ip, asr #32
 1f4:	00000050 	andeq	r0, r0, r0, asr r0
 1f8:	00500001 	subeqs	r0, r0, r1
 1fc:	00000000 	andeq	r0, r0, r0
 200:	60000000 	andvs	r0, r0, r0
 204:	64000000 	strvs	r0, [r0]
 208:	01000000 	tsteq	r0, r0
 20c:	00005000 	andeq	r5, r0, r0
 210:	00000000 	andeq	r0, r0, r0
 214:	00740000 	rsbeqs	r0, r4, r0
 218:	009c0000 	addeqs	r0, ip, r0
 21c:	00010000 	andeq	r0, r1, r0
 220:	0000a050 	andeq	sl, r0, r0, asr r0
 224:	0000a400 	andeq	sl, r0, r0, lsl #8
 228:	50000100 	andpl	r0, r0, r0, lsl #2
	...
 234:	000000a8 	andeq	r0, r0, r8, lsr #1
 238:	000000ac 	andeq	r0, r0, ip, lsr #1
 23c:	00500001 	subeqs	r0, r0, r1
 240:	00000000 	andeq	r0, r0, r0
 244:	bc000000 	stclt	0, cr0, [r0], {0}
 248:	bc000000 	stclt	0, cr0, [r0], {0}
 24c:	01000000 	tsteq	r0, r0
 250:	00005000 	andeq	r5, r0, r0
 254:	00000000 	andeq	r0, r0, r0
 258:	00e40000 	rsceq	r0, r4, r0
 25c:	00e80000 	rsceq	r0, r8, r0
 260:	00010000 	andeq	r0, r1, r0
 264:	0000e85d 	andeq	lr, r0, sp, asr r8
 268:	00011000 	andeq	r1, r1, r0
 26c:	7d000200 	sfmvc	f0, 4, [r0]
 270:	00000008 	andeq	r0, r0, r8
 274:	00000000 	andeq	r0, r0, r0
 278:	0000e400 	andeq	lr, r0, r0, lsl #8
 27c:	0000f000 	andeq	pc, r0, r0
 280:	50000100 	andpl	r0, r0, r0, lsl #2
 284:	000000f0 	streqd	r0, [r0], -r0
 288:	000000f8 	streqd	r0, [r0], -r8
 28c:	00540001 	subeqs	r0, r4, r1
 290:	00000000 	andeq	r0, r0, r0
 294:	10000000 	andne	r0, r0, r0
 298:	1c000001 	stcne	0, cr0, [r0], {1}
 29c:	01000001 	tsteq	r0, r1
 2a0:	00005000 	andeq	r5, r0, r0
 2a4:	00000000 	andeq	r0, r0, r0
 2a8:	01200000 	teqeq	r0, r0
 2ac:	01380000 	teqeq	r8, r0
 2b0:	00010000 	andeq	r0, r1, r0
 2b4:	00014c50 	andeq	r4, r1, r0, asr ip
 2b8:	00015000 	andeq	r5, r1, r0
 2bc:	50000100 	andpl	r0, r0, r0, lsl #2
	...
 2c8:	00000154 	andeq	r0, r0, r4, asr r1
 2cc:	00000160 	andeq	r0, r0, r0, ror #2
 2d0:	605d0001 	subvss	r0, sp, r1
 2d4:	7c000001 	stcvc	0, cr0, [r0], {1}
 2d8:	02000001 	andeq	r0, r0, #1	; 0x1
 2dc:	00047d00 	andeq	r7, r4, r0, lsl #26
 2e0:	00000000 	andeq	r0, r0, r0
 2e4:	54000000 	strpl	r0, [r0]
 2e8:	6c000001 	stcvs	0, cr0, [r0], {1}
 2ec:	01000001 	tsteq	r0, r1
 2f0:	01745000 	cmneq	r4, r0
 2f4:	01780000 	cmneq	r8, r0
 2f8:	00010000 	andeq	r0, r1, r0
 2fc:	00000050 	andeq	r0, r0, r0, asr r0
 300:	00000000 	andeq	r0, r0, r0
 304:	00017c00 	andeq	r7, r1, r0, lsl #24
 308:	00018800 	andeq	r8, r1, r0, lsl #16
 30c:	50000100 	andpl	r0, r0, r0, lsl #2
	...
 31c:	00000004 	andeq	r0, r0, r4
 320:	045d0001 	ldreqb	r0, [sp], #-1
 324:	04000000 	streq	r0, [r0]
 328:	02000001 	andeq	r0, r0, #1	; 0x1
 32c:	00187d00 	andeqs	r7, r8, r0, lsl #26
	...
 338:	0c000000 	stceq	0, cr0, [r0], {0}
 33c:	01000000 	tsteq	r0, r0
 340:	000c5000 	andeq	r5, ip, r0
 344:	01040000 	tsteq	r4, r0
 348:	00010000 	andeq	r0, r1, r0
 34c:	0000005a 	andeq	r0, r0, sl, asr r0
	...
 358:	00001400 	andeq	r1, r0, r0, lsl #8
 35c:	51000100 	tstpl	r0, r0, lsl #2
 360:	00000014 	andeq	r0, r0, r4, lsl r0
 364:	00000104 	andeq	r0, r0, r4, lsl #2
 368:	00570001 	subeqs	r0, r7, r1
 36c:	00000000 	andeq	r0, r0, r0
 370:	18000000 	stmneda	r0, {}
 374:	2c000000 	stccs	0, cr0, [r0], {0}
 378:	01000000 	tsteq	r0, r0
 37c:	002c5500 	eoreq	r5, ip, r0, lsl #10
 380:	007c0000 	rsbeqs	r0, ip, r0
 384:	00010000 	andeq	r0, r1, r0
 388:	00000054 	andeq	r0, r0, r4, asr r0
 38c:	00000000 	andeq	r0, r0, r0
 390:	00003c00 	andeq	r3, r0, r0, lsl #24
 394:	00004400 	andeq	r4, r0, r0, lsl #8
 398:	5d000100 	stfpls	f0, [r0]
 39c:	00000044 	andeq	r0, r0, r4, asr #32
 3a0:	00000090 	muleq	r0, r0, r0
 3a4:	0c7d0002 	ldceql	0, cr0, [sp], #-8
	...
 3b0:	0000003c 	andeq	r0, r0, ip, lsr r0
 3b4:	00000058 	andeq	r0, r0, r8, asr r0
 3b8:	78500001 	ldmvcda	r0, {r0}^
 3bc:	80000000 	andhi	r0, r0, r0
 3c0:	01000000 	tsteq	r0, r0
 3c4:	00005000 	andeq	r5, r0, r0
 3c8:	00000000 	andeq	r0, r0, r0
 3cc:	00900000 	addeqs	r0, r0, r0
 3d0:	00940000 	addeqs	r0, r4, r0
 3d4:	00010000 	andeq	r0, r1, r0
 3d8:	0000945d 	andeq	r9, r0, sp, asr r4
 3dc:	00010400 	andeq	r0, r1, r0, lsl #8
 3e0:	7d000200 	sfmvc	f0, 4, [r0]
 3e4:	00000010 	andeq	r0, r0, r0, lsl r0
 3e8:	00000000 	andeq	r0, r0, r0
 3ec:	00009000 	andeq	r9, r0, r0
 3f0:	0000ac00 	andeq	sl, r0, r0, lsl #24
 3f4:	50000100 	andpl	r0, r0, r0, lsl #2
 3f8:	000000ac 	andeq	r0, r0, ip, lsr #1
 3fc:	000000c8 	andeq	r0, r0, r8, asr #1
 400:	c8560001 	ldmgtda	r6, {r0}^
 404:	cc000000 	stcgt	0, cr0, [r0], {0}
 408:	01000000 	tsteq	r0, r0
 40c:	00cc5000 	sbceq	r5, ip, r0
 410:	01040000 	tsteq	r4, r0
 414:	00010000 	andeq	r0, r1, r0
 418:	00000056 	andeq	r0, r0, r6, asr r0
 41c:	00000000 	andeq	r0, r0, r0
 420:	00009c00 	andeq	r9, r0, r0, lsl #24
 424:	0000a000 	andeq	sl, r0, r0
 428:	53000100 	movwpl	r0, #256	; 0x100
	...
 434:	000000f4 	streqd	r0, [r0], -r4
 438:	000000f8 	streqd	r0, [r0], -r8
 43c:	00530001 	subeqs	r0, r3, r1
 440:	00000000 	andeq	r0, r0, r0
 444:	04000000 	streq	r0, [r0]
 448:	08000001 	stmeqda	r0, {r0}
 44c:	01000001 	tsteq	r0, r1
 450:	01085d00 	tsteq	r8, r0, lsl #26
 454:	01500000 	cmpeq	r0, r0
 458:	00020000 	andeq	r0, r2, r0
 45c:	0000107d 	andeq	r1, r0, sp, ror r0
 460:	00000000 	andeq	r0, r0, r0
 464:	01040000 	tsteq	r4, r0
 468:	012c0000 	teqeq	ip, r0
 46c:	00010000 	andeq	r0, r1, r0
 470:	00012c50 	andeq	r2, r1, r0, asr ip
 474:	00015000 	andeq	r5, r1, r0
 478:	54000100 	strpl	r0, [r0], #-256
	...
 484:	00000110 	andeq	r0, r0, r0, lsl r1
 488:	00000114 	andeq	r0, r0, r4, lsl r1
 48c:	30530001 	subccs	r0, r3, r1
 490:	34000001 	strcc	r0, [r0], #-1
 494:	01000001 	tsteq	r0, r1
 498:	00005300 	andeq	r5, r0, r0, lsl #6
 49c:	00000000 	andeq	r0, r0, r0
 4a0:	01400000 	cmpeq	r0, r0
 4a4:	01440000 	cmpeq	r4, r0
 4a8:	00010000 	andeq	r0, r1, r0
 4ac:	00000053 	andeq	r0, r0, r3, asr r0
	...
 4b8:	00000400 	andeq	r0, r0, r0, lsl #8
 4bc:	50000100 	andpl	r0, r0, r0, lsl #2
	...
 4c8:	0000000c 	andeq	r0, r0, ip
 4cc:	00000010 	andeq	r0, r0, r0, lsl r0
 4d0:	00500001 	subeqs	r0, r0, r1
 4d4:	00000000 	andeq	r0, r0, r0
 4d8:	18000000 	stmneda	r0, {}
 4dc:	1c000000 	stcne	0, cr0, [r0], {0}
 4e0:	01000000 	tsteq	r0, r0
 4e4:	00005000 	andeq	r5, r0, r0
 4e8:	00000000 	andeq	r0, r0, r0
 4ec:	002c0000 	eoreq	r0, ip, r0
 4f0:	00300000 	eoreqs	r0, r0, r0
 4f4:	00010000 	andeq	r0, r1, r0
 4f8:	00000050 	andeq	r0, r0, r0, asr r0
 4fc:	00000000 	andeq	r0, r0, r0
 500:	00000400 	andeq	r0, r0, r0, lsl #8
 504:	00000400 	andeq	r0, r0, r0, lsl #8
 508:	50000100 	andpl	r0, r0, r0, lsl #2
	...
 518:	0000000c 	andeq	r0, r0, ip
 51c:	0c5d0001 	mrrceq	0, 0, r0, sp, cr1
 520:	e8000000 	stmda	r0, {}
 524:	02000000 	andeq	r0, r0, #0	; 0x0
 528:	00047d00 	andeq	r7, r4, r0, lsl #26
	...
 534:	04000000 	streq	r0, [r0]
 538:	01000000 	tsteq	r0, r0
 53c:	00005000 	andeq	r5, r0, r0
	...
 548:	00640000 	rsbeq	r0, r4, r0
 54c:	00010000 	andeq	r0, r1, r0
 550:	00006451 	andeq	r6, r0, r1, asr r4
 554:	00007000 	andeq	r7, r0, r0
 558:	53000100 	movwpl	r0, #256	; 0x100
 55c:	00000070 	andeq	r0, r0, r0, ror r0
 560:	0000007c 	andeq	r0, r0, ip, ror r0
 564:	7c530001 	mrrcvc	0, 0, r0, r3, cr1
 568:	84000000 	strhi	r0, [r0]
 56c:	01000000 	tsteq	r0, r0
 570:	008c5300 	addeq	r5, ip, r0, lsl #6
 574:	00940000 	addeqs	r0, r4, r0
 578:	00010000 	andeq	r0, r1, r0
 57c:	00009453 	andeq	r9, r0, r3, asr r4
 580:	0000a400 	andeq	sl, r0, r0, lsl #8
 584:	53000100 	movwpl	r0, #256	; 0x100
 588:	000000a4 	andeq	r0, r0, r4, lsr #1
 58c:	000000ac 	andeq	r0, r0, ip, lsr #1
 590:	ac530001 	mrrcge	0, 0, r0, r3, cr1
 594:	b8000000 	stmltda	r0, {}
 598:	01000000 	tsteq	r0, r0
 59c:	00b85300 	adceqs	r5, r8, r0, lsl #6
 5a0:	00c40000 	sbceq	r0, r4, r0
 5a4:	00010000 	andeq	r0, r1, r0
 5a8:	0000c453 	andeq	ip, r0, r3, asr r4
 5ac:	0000d000 	andeq	sp, r0, r0
 5b0:	53000100 	movwpl	r0, #256	; 0x100
 5b4:	000000d0 	ldreqd	r0, [r0], -r0
 5b8:	000000d8 	ldreqd	r0, [r0], -r8
 5bc:	00530001 	subeqs	r0, r3, r1
 5c0:	00000000 	andeq	r0, r0, r0
 5c4:	5c000000 	stcpl	0, cr0, [r0], {0}
 5c8:	60000000 	andvs	r0, r0, r0
 5cc:	01000000 	tsteq	r0, r0
 5d0:	00605300 	rsbeq	r5, r0, r0, lsl #6
 5d4:	006c0000 	rsbeq	r0, ip, r0
 5d8:	00010000 	andeq	r0, r1, r0
 5dc:	00000053 	andeq	r0, r0, r3, asr r0
	...
 5e8:	00000800 	andeq	r0, r0, r0, lsl #16
 5ec:	5d000100 	stfpls	f0, [r0]
 5f0:	00000008 	andeq	r0, r0, r8
 5f4:	0000007c 	andeq	r0, r0, ip, ror r0
 5f8:	107d0002 	rsbnes	r0, sp, r2
	...
 608:	00000018 	andeq	r0, r0, r8, lsl r0
 60c:	24500001 	ldrcsb	r0, [r0], #-1
 610:	58000000 	stmplda	r0, {}
 614:	01000000 	tsteq	r0, r0
 618:	00605000 	rsbeq	r5, r0, r0
 61c:	006c0000 	rsbeq	r0, ip, r0
 620:	00010000 	andeq	r0, r1, r0
 624:	00007050 	andeq	r7, r0, r0, asr r0
 628:	00007400 	andeq	r7, r0, r0, lsl #8
 62c:	50000100 	andpl	r0, r0, r0, lsl #2
	...
 63c:	00000014 	andeq	r0, r0, r4, lsl r0
 640:	14510001 	ldrneb	r0, [r1], #-1
 644:	30000000 	andcc	r0, r0, r0
 648:	01000000 	tsteq	r0, r0
 64c:	00305500 	eoreqs	r5, r0, r0, lsl #10
 650:	00600000 	rsbeq	r0, r0, r0
 654:	00010000 	andeq	r0, r1, r0
 658:	00006051 	andeq	r6, r0, r1, asr r0
 65c:	00006800 	andeq	r6, r0, r0, lsl #16
 660:	55000100 	strpl	r0, [r0, #-256]
 664:	00000068 	andeq	r0, r0, r8, rrx
 668:	0000007c 	andeq	r0, r0, ip, ror r0
 66c:	00510001 	subeqs	r0, r1, r1
	...
 678:	14000000 	strne	r0, [r0]
 67c:	01000000 	tsteq	r0, r0
 680:	00145200 	andeqs	r5, r4, r0, lsl #4
 684:	00300000 	eoreqs	r0, r0, r0
 688:	00010000 	andeq	r0, r1, r0
 68c:	00003056 	andeq	r3, r0, r6, asr r0
 690:	00003c00 	andeq	r3, r0, r0, lsl #24
 694:	52000100 	andpl	r0, r0, #0	; 0x0
 698:	0000003c 	andeq	r0, r0, ip, lsr r0
 69c:	0000007c 	andeq	r0, r0, ip, ror r0
 6a0:	00560001 	subeqs	r0, r6, r1
 6a4:	00000000 	andeq	r0, r0, r0
 6a8:	28000000 	stmcsda	r0, {}
 6ac:	60000000 	andvs	r0, r0, r0
 6b0:	01000000 	tsteq	r0, r0
 6b4:	00605300 	rsbeq	r5, r0, r0, lsl #6
 6b8:	007c0000 	rsbeqs	r0, ip, r0
 6bc:	00010000 	andeq	r0, r1, r0
 6c0:	00000053 	andeq	r0, r0, r3, asr r0
 6c4:	00000000 	andeq	r0, r0, r0
 6c8:	00007c00 	andeq	r7, r0, r0, lsl #24
 6cc:	00008400 	andeq	r8, r0, r0, lsl #8
 6d0:	5d000100 	stfpls	f0, [r0]
 6d4:	00000084 	andeq	r0, r0, r4, lsl #1
 6d8:	0000014c 	andeq	r0, r0, ip, asr #2
 6dc:	147d0002 	ldrnebt	r0, [sp], #-2
	...
 6e8:	0000007c 	andeq	r0, r0, ip, ror r0
 6ec:	000000c4 	andeq	r0, r0, r4, asr #1
 6f0:	2c500001 	mrrccs	0, 0, r0, r0, cr1
 6f4:	30000001 	andcc	r0, r0, r1
 6f8:	01000001 	tsteq	r0, r1
 6fc:	01445000 	cmpeq	r4, r0
 700:	01480000 	cmpeq	r8, r0
 704:	00010000 	andeq	r0, r1, r0
 708:	00000050 	andeq	r0, r0, r0, asr r0
 70c:	00000000 	andeq	r0, r0, r0
 710:	00007c00 	andeq	r7, r0, r0, lsl #24
 714:	0000b000 	andeq	fp, r0, r0
 718:	51000100 	tstpl	r0, r0, lsl #2
 71c:	000000b0 	streqh	r0, [r0], -r0
 720:	0000014c 	andeq	r0, r0, ip, asr #2
 724:	00560001 	subeqs	r0, r6, r1
 728:	00000000 	andeq	r0, r0, r0
 72c:	7c000000 	stcvc	0, cr0, [r0], {0}
 730:	a0000000 	andge	r0, r0, r0
 734:	01000000 	tsteq	r0, r0
 738:	00a05200 	adceq	r5, r0, r0, lsl #4
 73c:	014c0000 	cmpeq	ip, r0
 740:	00010000 	andeq	r0, r1, r0
 744:	00000057 	andeq	r0, r0, r7, asr r0
 748:	00000000 	andeq	r0, r0, r0
 74c:	0000c400 	andeq	ip, r0, r0, lsl #8
 750:	0000d000 	andeq	sp, r0, r0
 754:	54000100 	strpl	r0, [r0], #-256
 758:	000000d0 	ldreqd	r0, [r0], -r0
 75c:	000000d8 	ldreqd	r0, [r0], -r8
 760:	d8500001 	ldmleda	r0, {r0}^
 764:	e0000000 	and	r0, r0, r0
 768:	01000000 	tsteq	r0, r0
 76c:	00e05400 	rsceq	r5, r0, r0, lsl #8
 770:	00e40000 	rsceq	r0, r4, r0
 774:	00010000 	andeq	r0, r1, r0
 778:	0000e450 	andeq	lr, r0, r0, asr r4
 77c:	00014c00 	andeq	r4, r1, r0, lsl #24
 780:	54000100 	strpl	r0, [r0], #-256
	...
 790:	00000008 	andeq	r0, r0, r8
 794:	08500001 	ldmeqda	r0, {r0}^
 798:	0c000000 	stceq	0, cr0, [r0], {0}
 79c:	01000000 	tsteq	r0, r0
 7a0:	00005100 	andeq	r5, r0, r0, lsl #2
 7a4:	00000000 	andeq	r0, r0, r0
 7a8:	00100000 	andeqs	r0, r0, r0
 7ac:	00140000 	andeqs	r0, r4, r0
 7b0:	00010000 	andeq	r0, r1, r0
 7b4:	00000053 	andeq	r0, r0, r3, asr r0
 7b8:	00000000 	andeq	r0, r0, r0
 7bc:	00002000 	andeq	r2, r0, r0
 7c0:	00002800 	andeq	r2, r0, r0, lsl #16
 7c4:	5d000100 	stfpls	f0, [r0]
 7c8:	00000028 	andeq	r0, r0, r8, lsr #32
 7cc:	00000040 	andeq	r0, r0, r0, asr #32
 7d0:	047d0002 	ldreqbt	r0, [sp], #-2
	...
 7dc:	00000020 	andeq	r0, r0, r0, lsr #32
 7e0:	00000034 	andeq	r0, r0, r4, lsr r0
 7e4:	38500001 	ldmccda	r0, {r0}^
 7e8:	3c000000 	stccc	0, cr0, [r0], {0}
 7ec:	01000000 	tsteq	r0, r0
 7f0:	00005000 	andeq	r5, r0, r0
 7f4:	00000000 	andeq	r0, r0, r0
 7f8:	00400000 	subeq	r0, r0, r0
 7fc:	00440000 	subeq	r0, r4, r0
 800:	00010000 	andeq	r0, r1, r0
 804:	0000445d 	andeq	r4, r0, sp, asr r4
 808:	00018400 	andeq	r8, r1, r0, lsl #8
 80c:	7d000200 	sfmvc	f0, 4, [r0]
 810:	00000010 	andeq	r0, r0, r0, lsl r0
 814:	00000000 	andeq	r0, r0, r0
 818:	00004000 	andeq	r4, r0, r0
 81c:	00004c00 	andeq	r4, r0, r0, lsl #24
 820:	50000100 	andpl	r0, r0, r0, lsl #2
 824:	0000004c 	andeq	r0, r0, ip, asr #32
 828:	00000118 	andeq	r0, r0, r8, lsl r1
 82c:	4c540001 	mrrcmi	0, 0, r0, r4, cr1
 830:	84000001 	strhi	r0, [r0], #-1
 834:	01000001 	tsteq	r0, r1
 838:	00005400 	andeq	r5, r0, r0, lsl #8
 83c:	00000000 	andeq	r0, r0, r0
 840:	00400000 	subeq	r0, r0, r0
 844:	00540000 	subeqs	r0, r4, r0
 848:	00010000 	andeq	r0, r1, r0
 84c:	00005451 	andeq	r5, r0, r1, asr r4
 850:	00018400 	andeq	r8, r1, r0, lsl #8
 854:	55000100 	strpl	r0, [r0, #-256]
	...
 860:	000000a4 	andeq	r0, r0, r4, lsr #1
 864:	000000a8 	andeq	r0, r0, r8, lsr #1
 868:	bc500001 	mrrclt	0, 0, r0, r0, cr1
 86c:	c0000000 	andgt	r0, r0, r0
 870:	01000000 	tsteq	r0, r0
 874:	01685000 	cmneq	r8, r0
 878:	01680000 	cmneq	r8, r0
 87c:	00010000 	andeq	r0, r1, r0
 880:	00000050 	andeq	r0, r0, r0, asr r0
 884:	00000000 	andeq	r0, r0, r0
 888:	00005c00 	andeq	r5, r0, r0, lsl #24
 88c:	0000a400 	andeq	sl, r0, r0, lsl #8
 890:	50000100 	andpl	r0, r0, r0, lsl #2
 894:	000000a8 	andeq	r0, r0, r8, lsr #1
 898:	000000ac 	andeq	r0, r0, ip, lsr #1
 89c:	b0500001 	sublts	r0, r0, r1
 8a0:	b4000000 	strlt	r0, [r0]
 8a4:	01000000 	tsteq	r0, r0
 8a8:	00b85000 	adceqs	r5, r8, r0
 8ac:	00bc0000 	adceqs	r0, ip, r0
 8b0:	00010000 	andeq	r0, r1, r0
 8b4:	0000c050 	andeq	ip, r0, r0, asr r0
 8b8:	0000dc00 	andeq	sp, r0, r0, lsl #24
 8bc:	50000100 	andpl	r0, r0, r0, lsl #2
	...
 8c8:	00000104 	andeq	r0, r0, r4, lsl #2
 8cc:	00000160 	andeq	r0, r0, r0, ror #2
 8d0:	005e0001 	subeqs	r0, lr, r1
 8d4:	00000000 	andeq	r0, r0, r0
 8d8:	08000000 	stmeqda	r0, {}
 8dc:	58000001 	stmplda	r0, {r0}
 8e0:	01000001 	tsteq	r0, r1
 8e4:	00005100 	andeq	r5, r0, r0, lsl #2
 8e8:	00000000 	andeq	r0, r0, r0
 8ec:	00180000 	andeqs	r0, r8, r0
 8f0:	00200000 	eoreq	r0, r0, r0
 8f4:	00010000 	andeq	r0, r1, r0
 8f8:	0000205d 	andeq	r2, r0, sp, asr r0
 8fc:	00004800 	andeq	r4, r0, r0, lsl #16
 900:	7d000200 	sfmvc	f0, 4, [r0]
 904:	00000008 	andeq	r0, r0, r8
 908:	00000000 	andeq	r0, r0, r0
 90c:	00001800 	andeq	r1, r0, r0, lsl #16
 910:	00002c00 	andeq	r2, r0, r0, lsl #24
 914:	50000100 	andpl	r0, r0, r0, lsl #2
	...
 920:	00000028 	andeq	r0, r0, r8, lsr #32
 924:	00000030 	andeq	r0, r0, r0, lsr r0
 928:	00540001 	subeqs	r0, r4, r1
 92c:	00000000 	andeq	r0, r0, r0
 930:	04000000 	streq	r0, [r0]
 934:	08000000 	stmeqda	r0, {}
 938:	01000000 	tsteq	r0, r0
 93c:	00005300 	andeq	r5, r0, r0, lsl #6
 940:	00000000 	andeq	r0, r0, r0
 944:	00100000 	andeqs	r0, r0, r0
 948:	00240000 	eoreq	r0, r4, r0
 94c:	00010000 	andeq	r0, r1, r0
 950:	0000245d 	andeq	r2, r0, sp, asr r4
 954:	00007000 	andeq	r7, r0, r0
 958:	7d000200 	sfmvc	f0, 4, [r0]
 95c:	00000010 	andeq	r0, r0, r0, lsl r0
 960:	00000000 	andeq	r0, r0, r0
 964:	00001000 	andeq	r1, r0, r0
 968:	00003c00 	andeq	r3, r0, r0, lsl #24
 96c:	50000100 	andpl	r0, r0, r0, lsl #2
	...
 978:	00000010 	andeq	r0, r0, r0, lsl r0
 97c:	00000040 	andeq	r0, r0, r0, asr #32
 980:	00520001 	subeqs	r0, r2, r1
 984:	00000000 	andeq	r0, r0, r0
 988:	70000000 	andvc	r0, r0, r0
 98c:	74000000 	strvc	r0, [r0]
 990:	01000000 	tsteq	r0, r0
 994:	00745d00 	rsbeqs	r5, r4, r0, lsl #26
 998:	01680000 	cmneq	r8, r0
 99c:	00020000 	andeq	r0, r2, r0
 9a0:	0000087d 	andeq	r0, r0, sp, ror r8
 9a4:	00000000 	andeq	r0, r0, r0
 9a8:	00700000 	rsbeqs	r0, r0, r0
 9ac:	007c0000 	rsbeqs	r0, ip, r0
 9b0:	00010000 	andeq	r0, r1, r0
 9b4:	00007c50 	andeq	r7, r0, r0, asr ip
 9b8:	00016800 	andeq	r6, r1, r0, lsl #16
 9bc:	54000100 	strpl	r0, [r0], #-256
	...
 9c8:	00000168 	andeq	r0, r0, r8, ror #2
 9cc:	0000016c 	andeq	r0, r0, ip, ror #2
 9d0:	6c5d0001 	mrrcvs	0, 0, r0, sp, cr1
 9d4:	70000001 	andvc	r0, r0, r1
 9d8:	02000001 	andeq	r0, r0, #1	; 0x1
 9dc:	70187d00 	andvcs	r7, r8, r0, lsl #26
 9e0:	14000001 	strne	r0, [r0], #-1
 9e4:	02000002 	andeq	r0, r0, #2	; 0x2
 9e8:	002c7d00 	eoreq	r7, ip, r0, lsl #26
 9ec:	00000000 	andeq	r0, r0, r0
 9f0:	68000000 	stmvsda	r0, {}
 9f4:	7c000001 	stcvc	0, cr0, [r0], {1}
 9f8:	01000001 	tsteq	r0, r1
 9fc:	017c5000 	cmneq	ip, r0
 a00:	02140000 	andeqs	r0, r4, #0	; 0x0
 a04:	00010000 	andeq	r0, r1, r0
 a08:	0000005a 	andeq	r0, r0, sl, asr r0
 a0c:	00000000 	andeq	r0, r0, r0
 a10:	00016800 	andeq	r6, r1, r0, lsl #16
 a14:	00017c00 	andeq	r7, r1, r0, lsl #24
 a18:	51000100 	tstpl	r0, r0, lsl #2
 a1c:	0000017c 	andeq	r0, r0, ip, ror r1
 a20:	00000214 	andeq	r0, r0, r4, lsl r2
 a24:	00570001 	subeqs	r0, r7, r1
 a28:	00000000 	andeq	r0, r0, r0
 a2c:	14000000 	strne	r0, [r0]
 a30:	18000002 	stmneda	r0, {r1}
 a34:	01000002 	tsteq	r0, r2
 a38:	02185d00 	andeqs	r5, r8, #0	; 0x0
 a3c:	02680000 	rsbeq	r0, r8, #0	; 0x0
 a40:	00020000 	andeq	r0, r2, r0
 a44:	00000c7d 	andeq	r0, r0, sp, ror ip
 a48:	00000000 	andeq	r0, r0, r0
 a4c:	02140000 	andeqs	r0, r4, #0	; 0x0
 a50:	024c0000 	subeq	r0, ip, #0	; 0x0
 a54:	00010000 	andeq	r0, r1, r0
 a58:	00000050 	andeq	r0, r0, r0, asr r0
	...
 a64:	00000400 	andeq	r0, r0, r0, lsl #8
 a68:	50000100 	andpl	r0, r0, r0, lsl #2
	...
 a74:	00000034 	andeq	r0, r0, r4, lsr r0
 a78:	00000038 	andeq	r0, r0, r8, lsr r0
 a7c:	385d0001 	ldmccda	sp, {r0}^
 a80:	58000000 	stmplda	r0, {}
 a84:	02000000 	andeq	r0, r0, #0	; 0x0
 a88:	00047d00 	andeq	r7, r4, r0, lsl #26
 a8c:	00000000 	andeq	r0, r0, r0
 a90:	48000000 	stmmida	r0, {}
 a94:	54000000 	strpl	r0, [r0]
 a98:	01000000 	tsteq	r0, r0
 a9c:	00005200 	andeq	r5, r0, r0, lsl #4
 aa0:	00000000 	andeq	r0, r0, r0
 aa4:	00580000 	subeqs	r0, r8, r0
 aa8:	005c0000 	subeqs	r0, ip, r0
 aac:	00010000 	andeq	r0, r1, r0
 ab0:	00005c5d 	andeq	r5, r0, sp, asr ip
 ab4:	0000e000 	andeq	lr, r0, r0
 ab8:	7d000200 	sfmvc	f0, 4, [r0]
 abc:	00000010 	andeq	r0, r0, r0, lsl r0
 ac0:	00000000 	andeq	r0, r0, r0
 ac4:	0000e000 	andeq	lr, r0, r0
 ac8:	0000e400 	andeq	lr, r0, r0, lsl #8
 acc:	5d000100 	stfpls	f0, [r0]
 ad0:	000000e4 	andeq	r0, r0, r4, ror #1
 ad4:	00000110 	andeq	r0, r0, r0, lsl r1
 ad8:	047d0002 	ldreqbt	r0, [sp], #-2
	...
 ae4:	000000f4 	streqd	r0, [r0], -r4
 ae8:	0000010c 	andeq	r0, r0, ip, lsl #2
 aec:	00530001 	subeqs	r0, r3, r1
 af0:	00000000 	andeq	r0, r0, r0
 af4:	fc000000 	stc2	0, cr0, [r0], {0}
 af8:	04000000 	streq	r0, [r0]
 afc:	01000001 	tsteq	r0, r1
 b00:	00005100 	andeq	r5, r0, r0, lsl #2
 b04:	00000000 	andeq	r0, r0, r0
 b08:	00540000 	subeqs	r0, r4, r0
 b0c:	00580000 	subeqs	r0, r8, r0
 b10:	00010000 	andeq	r0, r1, r0
 b14:	0000585d 	andeq	r5, r0, sp, asr r8
 b18:	0000a000 	andeq	sl, r0, r0
 b1c:	7d000200 	sfmvc	f0, 4, [r0]
 b20:	00000010 	andeq	r0, r0, r0, lsl r0
 b24:	00000000 	andeq	r0, r0, r0
 b28:	00005400 	andeq	r5, r0, r0, lsl #8
 b2c:	00007400 	andeq	r7, r0, r0, lsl #8
 b30:	51000100 	tstpl	r0, r0, lsl #2
 b34:	00000074 	andeq	r0, r0, r4, ror r0
 b38:	000000a0 	andeq	r0, r0, r0, lsr #1
 b3c:	00560001 	subeqs	r0, r6, r1
 b40:	00000000 	andeq	r0, r0, r0
 b44:	a0000000 	andge	r0, r0, r0
 b48:	ac000000 	stcge	0, cr0, [r0], {0}
 b4c:	01000000 	tsteq	r0, r0
 b50:	00ac5d00 	adceq	r5, ip, r0, lsl #26
 b54:	00f80000 	rsceqs	r0, r8, r0
 b58:	00020000 	andeq	r0, r2, r0
 b5c:	00000c7d 	andeq	r0, r0, sp, ror ip
 b60:	00000000 	andeq	r0, r0, r0
 b64:	00a00000 	adceq	r0, r0, r0
 b68:	00bc0000 	adceqs	r0, ip, r0
 b6c:	00010000 	andeq	r0, r1, r0
 b70:	0000bc50 	andeq	fp, r0, r0, asr ip
 b74:	0000f800 	andeq	pc, r0, r0, lsl #16
 b78:	52000100 	andpl	r0, r0, #0	; 0x0
	...
 b84:	000000d8 	ldreqd	r0, [r0], -r8
 b88:	000000e8 	andeq	r0, r0, r8, ror #1
 b8c:	00500001 	subeqs	r0, r0, r1
 b90:	00000000 	andeq	r0, r0, r0
 b94:	2c000000 	stccs	0, cr0, [r0], {0}
 b98:	30000001 	andcc	r0, r0, r1
 b9c:	01000001 	tsteq	r0, r1
 ba0:	01305d00 	teqeq	r0, r0, lsl #26
 ba4:	01840000 	orreq	r0, r4, r0
 ba8:	00020000 	andeq	r0, r2, r0
 bac:	00000c7d 	andeq	r0, r0, sp, ror ip
 bb0:	00000000 	andeq	r0, r0, r0
 bb4:	00840000 	addeq	r0, r4, r0
 bb8:	009c0000 	addeqs	r0, ip, r0
 bbc:	00010000 	andeq	r0, r1, r0
 bc0:	0000a052 	andeq	sl, r0, r2, asr r0
 bc4:	0000a400 	andeq	sl, r0, r0, lsl #8
 bc8:	52000100 	andpl	r0, r0, #0	; 0x0
	...
 bd4:	000000b8 	streqh	r0, [r0], -r8
 bd8:	000000c0 	andeq	r0, r0, r0, asr #1
 bdc:	c05d0001 	subgts	r0, sp, r1
 be0:	38000000 	stmccda	r0, {}
 be4:	02000001 	andeq	r0, r0, #1	; 0x1
 be8:	00107d00 	andeqs	r7, r0, r0, lsl #26
 bec:	00000000 	andeq	r0, r0, r0
 bf0:	b8000000 	stmltda	r0, {}
 bf4:	cc000000 	stcgt	0, cr0, [r0], {0}
 bf8:	01000000 	tsteq	r0, r0
 bfc:	00cc5000 	sbceq	r5, ip, r0
 c00:	00d80000 	sbceqs	r0, r8, r0
 c04:	00010000 	andeq	r0, r1, r0
 c08:	0000d854 	andeq	sp, r0, r4, asr r8
 c0c:	0000dc00 	andeq	sp, r0, r0, lsl #24
 c10:	50000100 	andpl	r0, r0, r0, lsl #2
 c14:	000000dc 	ldreqd	r0, [r0], -ip
 c18:	00000118 	andeq	r0, r0, r8, lsl r1
 c1c:	18540001 	ldmneda	r4, {r0}^
 c20:	1c000001 	stcne	0, cr0, [r0], {1}
 c24:	01000001 	tsteq	r0, r1
 c28:	011c5000 	tsteq	ip, r0
 c2c:	01380000 	teqeq	r8, r0
 c30:	00010000 	andeq	r0, r1, r0
 c34:	00000054 	andeq	r0, r0, r4, asr r0
 c38:	00000000 	andeq	r0, r0, r0
 c3c:	0000e800 	andeq	lr, r0, r0, lsl #16
 c40:	0000f400 	andeq	pc, r0, r0, lsl #8
 c44:	5c000100 	stfpls	f0, [r0], {0}
 c48:	000000f4 	streqd	r0, [r0], -r4
 c4c:	000000fc 	streqd	r0, [r0], -ip
 c50:	fc500001 	mrrc2	0, 0, r0, r0, cr1
 c54:	1c000000 	stcne	0, cr0, [r0], {0}
 c58:	01000001 	tsteq	r0, r1
 c5c:	012c5c00 	teqeq	ip, r0, lsl #24
 c60:	01380000 	teqeq	r8, r0
 c64:	00010000 	andeq	r0, r1, r0
 c68:	0000005c 	andeq	r0, r0, ip, asr r0
 c6c:	00000000 	andeq	r0, r0, r0
 c70:	00013800 	andeq	r3, r1, r0, lsl #16
 c74:	00014000 	andeq	r4, r1, r0
 c78:	5d000100 	stfpls	f0, [r0]
 c7c:	00000140 	andeq	r0, r0, r0, asr #2
 c80:	0000018c 	andeq	r0, r0, ip, lsl #3
 c84:	0c7d0002 	ldceql	0, cr0, [sp], #-8
	...
 c90:	00000138 	andeq	r0, r0, r8, lsr r1
 c94:	00000158 	andeq	r0, r0, r8, asr r1
 c98:	84500001 	ldrhib	r0, [r0], #-1
 c9c:	8c000001 	stchi	0, cr0, [r0], {1}
 ca0:	01000001 	tsteq	r0, r1
 ca4:	00005000 	andeq	r5, r0, r0
 ca8:	00000000 	andeq	r0, r0, r0
 cac:	01480000 	cmpeq	r8, r0
 cb0:	01600000 	cmneq	r0, r0
 cb4:	00010000 	andeq	r0, r1, r0
 cb8:	00016052 	andeq	r6, r1, r2, asr r0
 cbc:	00016800 	andeq	r6, r1, r0, lsl #16
 cc0:	50000100 	andpl	r0, r0, r0, lsl #2
 cc4:	00000170 	andeq	r0, r0, r0, ror r1
 cc8:	00000174 	andeq	r0, r0, r4, ror r1
 ccc:	74500001 	ldrvcb	r0, [r0], #-1
 cd0:	84000001 	strhi	r0, [r0], #-1
 cd4:	01000001 	tsteq	r0, r1
 cd8:	01845300 	orreq	r5, r4, r0, lsl #6
 cdc:	018c0000 	orreq	r0, ip, r0
 ce0:	00010000 	andeq	r0, r1, r0
 ce4:	00000052 	andeq	r0, r0, r2, asr r0
 ce8:	00000000 	andeq	r0, r0, r0
 cec:	00018c00 	andeq	r8, r1, r0, lsl #24
 cf0:	00019400 	andeq	r9, r1, r0, lsl #8
 cf4:	5d000100 	stfpls	f0, [r0]
 cf8:	00000194 	muleq	r0, r4, r1
 cfc:	000001ec 	andeq	r0, r0, ip, ror #3
 d00:	107d0002 	rsbnes	r0, sp, r2
	...
 d0c:	0000018c 	andeq	r0, r0, ip, lsl #3
 d10:	000001a0 	andeq	r0, r0, r0, lsr #3
 d14:	a0500001 	subges	r0, r0, r1
 d18:	ac000001 	stcge	0, cr0, [r0], {1}
 d1c:	01000001 	tsteq	r0, r1
 d20:	01ac5400 	moveq	r5, r0, lsl #8
 d24:	01b00000 	moveqs	r0, r0
 d28:	00010000 	andeq	r0, r1, r0
 d2c:	0001b050 	andeq	fp, r1, r0, asr r0
 d30:	0001c800 	andeq	ip, r1, r0, lsl #16
 d34:	54000100 	strpl	r0, [r0], #-256
 d38:	000001c8 	andeq	r0, r0, r8, asr #3
 d3c:	000001d4 	ldreqd	r0, [r0], -r4
 d40:	d4500001 	ldrleb	r0, [r0], #-1
 d44:	ec000001 	stc	0, cr0, [r0], {1}
 d48:	01000001 	tsteq	r0, r1
 d4c:	00005400 	andeq	r5, r0, r0, lsl #8
 d50:	00000000 	andeq	r0, r0, r0
	...
Disassembly of section .debug_ranges:

00000000 <.debug_ranges>:
   0:	00000008 	andeq	r0, r0, r8
   4:	0000000c 	andeq	r0, r0, ip
   8:	00000010 	andeq	r0, r0, r0, lsl r0
   c:	00000018 	andeq	r0, r0, r8, lsl r0
	...
  18:	00000040 	andeq	r0, r0, r0, asr #32
  1c:	00000044 	andeq	r0, r0, r4, asr #32
  20:	00000050 	andeq	r0, r0, r0, asr r0
  24:	00000058 	andeq	r0, r0, r8, asr r0
	...
  30:	000000ec 	andeq	r0, r0, ip, ror #1
  34:	000000f0 	streqd	r0, [r0], -r0
  38:	000000f8 	streqd	r0, [r0], -r8
  3c:	000000fc 	streqd	r0, [r0], -ip
	...
